SF:/Users/hl/Projects/private/bingo/crates/bingo-api/src/error_cli.rs
FN:380,_RNCNvMNtCsh21Ep08yPYI_9bingo_api9error_cliNtB4_19InteractiveDebugger14show_analytics0B6_
FN:466,_RNCNvMNtCsh21Ep08yPYI_9bingo_api9error_cliNtB4_19InteractiveDebugger16analyze_category0B6_
FN:702,_RNCNvMNtCsh21Ep08yPYI_9bingo_api9error_cliNtB4_19InteractiveDebugger20generate_html_report0B6_
FN:709,_RNCNvMNtCsh21Ep08yPYI_9bingo_api9error_cliNtB4_19InteractiveDebugger20generate_html_reports_0B6_
FN:622,_RNvMNtCsh21Ep08yPYI_9bingo_api9error_cliNtB2_19InteractiveDebugger10show_error
FN:569,_RNvMNtCsh21Ep08yPYI_9bingo_api9error_cliNtB2_19InteractiveDebugger11list_errors
FN:817,_RNvMNtCsh21Ep08yPYI_9bingo_api9error_cliNtB2_19InteractiveDebugger12clear_errors
FN:758,_RNvMNtCsh21Ep08yPYI_9bingo_api9error_cliNtB2_19InteractiveDebugger13export_errors
FN:750,_RNvMNtCsh21Ep08yPYI_9bingo_api9error_cliNtB2_19InteractiveDebugger13search_errors
FN:226,_RNvMNtCsh21Ep08yPYI_9bingo_api9error_cliNtB2_19InteractiveDebugger13start_session
FN:481,_RNvMNtCsh21Ep08yPYI_9bingo_api9error_cliNtB2_19InteractiveDebugger14analyze_errors
FN:370,_RNvMNtCsh21Ep08yPYI_9bingo_api9error_cliNtB2_19InteractiveDebugger14show_analytics
FN:209,_RNvMNtCsh21Ep08yPYI_9bingo_api9error_cliNtB2_19InteractiveDebugger15execute_command
FN:632,_RNvMNtCsh21Ep08yPYI_9bingo_api9error_cliNtB2_19InteractiveDebugger15generate_report
FN:449,_RNvMNtCsh21Ep08yPYI_9bingo_api9error_cliNtB2_19InteractiveDebugger16analyze_category
FN:343,_RNvMNtCsh21Ep08yPYI_9bingo_api9error_cliNtB2_19InteractiveDebugger18show_recent_errors
FN:779,_RNvMNtCsh21Ep08yPYI_9bingo_api9error_cliNtB2_19InteractiveDebugger19generate_csv_export
FN:791,_RNvMNtCsh21Ep08yPYI_9bingo_api9error_cliNtB2_19InteractiveDebugger19generate_xml_export
FN:322,_RNvMNtCsh21Ep08yPYI_9bingo_api9error_cliNtB2_19InteractiveDebugger19show_session_status
FN:657,_RNvMNtCsh21Ep08yPYI_9bingo_api9error_cliNtB2_19InteractiveDebugger20generate_html_report
FN:526,_RNvMNtCsh21Ep08yPYI_9bingo_api9error_cliNtB2_19InteractiveDebugger20print_analysis_table
FN:266,_RNvMNtCsh21Ep08yPYI_9bingo_api9error_cliNtB2_19InteractiveDebugger20run_interactive_loop
FN:418,_RNvMNtCsh21Ep08yPYI_9bingo_api9error_cliNtB2_19InteractiveDebugger22show_error_interactive
FN:716,_RNvMNtCsh21Ep08yPYI_9bingo_api9error_cliNtB2_19InteractiveDebugger24generate_markdown_report
FN:438,_RNvMNtCsh21Ep08yPYI_9bingo_api9error_cliNtB2_19InteractiveDebugger25search_errors_interactive
FN:204,_RNvMNtCsh21Ep08yPYI_9bingo_api9error_cliNtB2_19InteractiveDebugger3new
FN:309,_RNvMNtCsh21Ep08yPYI_9bingo_api9error_cliNtB2_19InteractiveDebugger9show_help
FN:838,_RNvNtCsh21Ep08yPYI_9bingo_api9error_cli19run_error_debug_cli
FNDA:0,_RNCNvMNtCsh21Ep08yPYI_9bingo_api9error_cliNtB4_19InteractiveDebugger14show_analytics0B6_
FNDA:0,_RNCNvMNtCsh21Ep08yPYI_9bingo_api9error_cliNtB4_19InteractiveDebugger16analyze_category0B6_
FNDA:0,_RNCNvMNtCsh21Ep08yPYI_9bingo_api9error_cliNtB4_19InteractiveDebugger20generate_html_report0B6_
FNDA:0,_RNCNvMNtCsh21Ep08yPYI_9bingo_api9error_cliNtB4_19InteractiveDebugger20generate_html_reports_0B6_
FNDA:0,_RNvMNtCsh21Ep08yPYI_9bingo_api9error_cliNtB2_19InteractiveDebugger10show_error
FNDA:0,_RNvMNtCsh21Ep08yPYI_9bingo_api9error_cliNtB2_19InteractiveDebugger11list_errors
FNDA:0,_RNvMNtCsh21Ep08yPYI_9bingo_api9error_cliNtB2_19InteractiveDebugger12clear_errors
FNDA:0,_RNvMNtCsh21Ep08yPYI_9bingo_api9error_cliNtB2_19InteractiveDebugger13export_errors
FNDA:0,_RNvMNtCsh21Ep08yPYI_9bingo_api9error_cliNtB2_19InteractiveDebugger13search_errors
FNDA:0,_RNvMNtCsh21Ep08yPYI_9bingo_api9error_cliNtB2_19InteractiveDebugger13start_session
FNDA:0,_RNvMNtCsh21Ep08yPYI_9bingo_api9error_cliNtB2_19InteractiveDebugger14analyze_errors
FNDA:0,_RNvMNtCsh21Ep08yPYI_9bingo_api9error_cliNtB2_19InteractiveDebugger14show_analytics
FNDA:0,_RNvMNtCsh21Ep08yPYI_9bingo_api9error_cliNtB2_19InteractiveDebugger15execute_command
FNDA:0,_RNvMNtCsh21Ep08yPYI_9bingo_api9error_cliNtB2_19InteractiveDebugger15generate_report
FNDA:0,_RNvMNtCsh21Ep08yPYI_9bingo_api9error_cliNtB2_19InteractiveDebugger16analyze_category
FNDA:0,_RNvMNtCsh21Ep08yPYI_9bingo_api9error_cliNtB2_19InteractiveDebugger18show_recent_errors
FNDA:0,_RNvMNtCsh21Ep08yPYI_9bingo_api9error_cliNtB2_19InteractiveDebugger19generate_csv_export
FNDA:0,_RNvMNtCsh21Ep08yPYI_9bingo_api9error_cliNtB2_19InteractiveDebugger19generate_xml_export
FNDA:0,_RNvMNtCsh21Ep08yPYI_9bingo_api9error_cliNtB2_19InteractiveDebugger19show_session_status
FNDA:0,_RNvMNtCsh21Ep08yPYI_9bingo_api9error_cliNtB2_19InteractiveDebugger20generate_html_report
FNDA:0,_RNvMNtCsh21Ep08yPYI_9bingo_api9error_cliNtB2_19InteractiveDebugger20print_analysis_table
FNDA:0,_RNvMNtCsh21Ep08yPYI_9bingo_api9error_cliNtB2_19InteractiveDebugger20run_interactive_loop
FNDA:0,_RNvMNtCsh21Ep08yPYI_9bingo_api9error_cliNtB2_19InteractiveDebugger22show_error_interactive
FNDA:0,_RNvMNtCsh21Ep08yPYI_9bingo_api9error_cliNtB2_19InteractiveDebugger24generate_markdown_report
FNDA:0,_RNvMNtCsh21Ep08yPYI_9bingo_api9error_cliNtB2_19InteractiveDebugger25search_errors_interactive
FNDA:0,_RNvMNtCsh21Ep08yPYI_9bingo_api9error_cliNtB2_19InteractiveDebugger3new
FNDA:0,_RNvMNtCsh21Ep08yPYI_9bingo_api9error_cliNtB2_19InteractiveDebugger9show_help
FNDA:0,_RNvNtCsh21Ep08yPYI_9bingo_api9error_cli19run_error_debug_cli
FNF:28
FNH:0
DA:204,0
DA:205,0
DA:206,0
DA:209,0
DA:210,0
DA:211,0
DA:212,0
DA:213,0
DA:214,0
DA:215,0
DA:216,0
DA:217,0
DA:218,0
DA:219,0
DA:220,0
DA:221,0
DA:223,0
DA:226,0
DA:227,0
DA:230,0
DA:231,0
DA:232,0
DA:233,0
DA:234,0
DA:235,0
DA:239,0
DA:240,0
DA:241,0
DA:242,0
DA:243,0
DA:244,0
DA:247,0
DA:248,0
DA:249,0
DA:252,0
DA:254,0
DA:255,0
DA:256,0
DA:257,0
DA:258,0
DA:259,0
DA:262,0
DA:263,0
DA:266,0
DA:267,0
DA:268,0
DA:272,0
DA:273,0
DA:275,0
DA:276,0
DA:277,0
DA:279,0
DA:280,0
DA:281,0
DA:282,0
DA:284,0
DA:285,0
DA:286,0
DA:287,0
DA:288,0
DA:289,0
DA:290,0
DA:291,0
DA:292,0
DA:293,0
DA:294,0
DA:295,0
DA:296,0
DA:297,0
DA:298,0
DA:299,0
DA:300,0
DA:301,0
DA:305,0
DA:306,0
DA:309,0
DA:310,0
DA:311,0
DA:312,0
DA:313,0
DA:314,0
DA:315,0
DA:316,0
DA:317,0
DA:318,0
DA:319,0
DA:322,0
DA:323,0
DA:324,0
DA:325,0
DA:326,0
DA:327,0
DA:329,0
DA:330,0
DA:331,0
DA:332,0
DA:333,0
DA:334,0
DA:335,0
DA:336,0
DA:337,0
DA:338,0
DA:339,0
DA:340,0
DA:343,0
DA:344,0
DA:345,0
DA:347,0
DA:349,0
DA:350,0
DA:351,0
DA:352,0
DA:355,0
DA:356,0
DA:357,0
DA:358,0
DA:359,0
DA:363,0
DA:364,0
DA:365,0
DA:367,0
DA:370,0
DA:371,0
DA:372,0
DA:374,0
DA:377,0
DA:378,0
DA:379,0
DA:380,0
DA:382,0
DA:383,0
DA:384,0
DA:385,0
DA:388,0
DA:389,0
DA:390,0
DA:391,0
DA:392,0
DA:393,0
DA:394,0
DA:395,0
DA:396,0
DA:397,0
DA:398,0
DA:399,0
DA:402,0
DA:403,0
DA:404,0
DA:405,0
DA:406,0
DA:407,0
DA:408,0
DA:409,0
DA:410,0
DA:411,0
DA:412,0
DA:413,0
DA:414,0
DA:415,0
DA:418,0
DA:419,0
DA:420,0
DA:421,0
DA:422,0
DA:424,0
DA:425,0
DA:427,0
DA:428,0
DA:433,0
DA:434,0
DA:435,0
DA:438,0
DA:439,0
DA:440,0
DA:441,0
DA:442,0
DA:444,0
DA:445,0
DA:446,0
DA:449,0
DA:450,0
DA:451,0
DA:452,0
DA:453,0
DA:455,0
DA:456,0
DA:458,0
DA:459,0
DA:460,0
DA:463,0
DA:464,0
DA:465,0
DA:466,0
DA:467,0
DA:469,0
DA:470,0
DA:471,0
DA:472,0
DA:473,0
DA:474,0
DA:475,0
DA:476,0
DA:477,0
DA:478,0
DA:481,0
DA:482,0
DA:484,0
DA:485,0
DA:486,0
DA:488,0
DA:489,0
DA:490,0
DA:492,0
DA:493,0
DA:494,0
DA:495,0
DA:497,0
DA:498,0
DA:499,0
DA:500,0
DA:501,0
DA:502,0
DA:504,0
DA:505,0
DA:506,0
DA:507,0
DA:508,0
DA:509,0
DA:510,0
DA:512,0
DA:514,0
DA:515,0
DA:516,0
DA:517,0
DA:518,0
DA:519,0
DA:522,0
DA:523,0
DA:526,0
DA:527,0
DA:528,0
DA:529,0
DA:530,0
DA:531,0
DA:532,0
DA:534,0
DA:535,0
DA:538,0
DA:540,0
DA:541,0
DA:542,0
DA:543,0
DA:544,0
DA:545,0
DA:546,0
DA:547,0
DA:549,0
DA:550,0
DA:551,0
DA:552,0
DA:553,0
DA:554,0
DA:555,0
DA:556,0
DA:557,0
DA:559,0
DA:561,0
DA:563,0
DA:565,0
DA:566,0
DA:569,0
DA:570,0
DA:572,0
DA:573,0
DA:575,0
DA:576,0
DA:577,0
DA:579,0
DA:580,0
DA:581,0
DA:582,0
DA:583,0
DA:584,0
DA:585,0
DA:586,0
DA:587,0
DA:588,0
DA:589,0
DA:590,0
DA:591,0
DA:592,0
DA:593,0
DA:594,0
DA:595,0
DA:596,0
DA:597,0
DA:598,0
DA:599,0
DA:603,0
DA:604,0
DA:605,0
DA:606,0
DA:607,0
DA:608,0
DA:609,0
DA:610,0
DA:611,0
DA:612,0
DA:613,0
DA:618,0
DA:619,0
DA:622,0
DA:623,0
DA:625,0
DA:626,0
DA:628,0
DA:629,0
DA:632,0
DA:633,0
DA:635,0
DA:636,0
DA:637,0
DA:639,0
DA:640,0
DA:641,0
DA:642,0
DA:643,0
DA:646,0
DA:647,0
DA:648,0
DA:649,0
DA:650,0
DA:651,0
DA:653,0
DA:654,0
DA:657,0
DA:658,0
DA:659,0
DA:660,0
DA:661,0
DA:662,0
DA:663,0
DA:664,0
DA:665,0
DA:666,0
DA:667,0
DA:668,0
DA:669,0
DA:670,0
DA:671,0
DA:672,0
DA:673,0
DA:674,0
DA:675,0
DA:676,0
DA:677,0
DA:678,0
DA:679,0
DA:680,0
DA:681,0
DA:682,0
DA:683,0
DA:684,0
DA:685,0
DA:686,0
DA:687,0
DA:688,0
DA:689,0
DA:690,0
DA:691,0
DA:692,0
DA:693,0
DA:694,0
DA:695,0
DA:696,0
DA:697,0
DA:699,0
DA:700,0
DA:701,0
DA:702,0
DA:703,0
DA:704,0
DA:705,0
DA:706,0
DA:707,0
DA:708,0
DA:709,0
DA:710,0
DA:711,0
DA:713,0
DA:716,0
DA:717,0
DA:719,0
DA:720,0
DA:721,0
DA:722,0
DA:723,0
DA:724,0
DA:726,0
DA:727,0
DA:728,0
DA:729,0
DA:730,0
DA:731,0
DA:732,0
DA:733,0
DA:734,0
DA:736,0
DA:737,0
DA:738,0
DA:739,0
DA:740,0
DA:741,0
DA:742,0
DA:743,0
DA:744,0
DA:746,0
DA:747,0
DA:750,0
DA:751,0
DA:752,0
DA:754,0
DA:755,0
DA:758,0
DA:759,0
DA:761,0
DA:762,0
DA:763,0
DA:765,0
DA:766,0
DA:767,0
DA:768,0
DA:769,0
DA:772,0
DA:773,0
DA:775,0
DA:776,0
DA:779,0
DA:780,0
DA:781,0
DA:783,0
DA:784,0
DA:785,0
DA:787,0
DA:788,0
DA:791,0
DA:792,0
DA:793,0
DA:794,0
DA:795,0
DA:796,0
DA:797,0
DA:798,0
DA:799,0
DA:800,0
DA:801,0
DA:802,0
DA:804,0
DA:805,0
DA:806,0
DA:807,0
DA:808,0
DA:809,0
DA:810,0
DA:812,0
DA:813,0
DA:814,0
DA:817,0
DA:818,0
DA:819,0
DA:820,0
DA:821,0
DA:823,0
DA:825,0
DA:826,0
DA:827,0
DA:828,0
DA:829,0
DA:831,0
DA:833,0
DA:834,0
DA:838,0
DA:839,0
DA:840,0
DA:841,0
DA:842,0
DA:843,0
DA:844,0
BRF:0
BRH:0
LF:492
LH:0
end_of_record
SF:/Users/hl/Projects/private/bingo/crates/bingo-api/src/grpc/conversions.rs
FN:64,_RNCNvNtNtCsh21Ep08yPYI_9bingo_api4grpc11conversions13to_proto_fact0B7_
FN:87,_RNCNvNtNtCsh21Ep08yPYI_9bingo_api4grpc11conversions15from_proto_rule0B7_
FN:107,_RNCNvNtNtCsh21Ep08yPYI_9bingo_api4grpc11conversions20from_proto_condition0B7_
FN:56,_RNvNtNtCsh21Ep08yPYI_9bingo_api4grpc11conversions13to_proto_fact
FN:39,_RNvNtNtCsh21Ep08yPYI_9bingo_api4grpc11conversions14to_proto_value
FN:12,_RNvNtNtCsh21Ep08yPYI_9bingo_api4grpc11conversions15from_proto_fact
FN:70,_RNvNtNtCsh21Ep08yPYI_9bingo_api4grpc11conversions15from_proto_rule
FN:160,_RNvNtNtCsh21Ep08yPYI_9bingo_api4grpc11conversions15to_proto_result
FN:29,_RNvNtNtCsh21Ep08yPYI_9bingo_api4grpc11conversions16from_proto_value
FN:131,_RNvNtNtCsh21Ep08yPYI_9bingo_api4grpc11conversions17from_proto_action
FN:92,_RNvNtNtCsh21Ep08yPYI_9bingo_api4grpc11conversions20from_proto_condition
FN:187,_RNvNtNtCsh21Ep08yPYI_9bingo_api4grpc11conversions22to_proto_action_result
FNDA:0,_RNCNvNtNtCsh21Ep08yPYI_9bingo_api4grpc11conversions13to_proto_fact0B7_
FNDA:0,_RNCNvNtNtCsh21Ep08yPYI_9bingo_api4grpc11conversions15from_proto_rule0B7_
FNDA:0,_RNCNvNtNtCsh21Ep08yPYI_9bingo_api4grpc11conversions20from_proto_condition0B7_
FNDA:0,_RNvNtNtCsh21Ep08yPYI_9bingo_api4grpc11conversions13to_proto_fact
FNDA:0,_RNvNtNtCsh21Ep08yPYI_9bingo_api4grpc11conversions14to_proto_value
FNDA:0,_RNvNtNtCsh21Ep08yPYI_9bingo_api4grpc11conversions15from_proto_fact
FNDA:0,_RNvNtNtCsh21Ep08yPYI_9bingo_api4grpc11conversions15from_proto_rule
FNDA:0,_RNvNtNtCsh21Ep08yPYI_9bingo_api4grpc11conversions15to_proto_result
FNDA:0,_RNvNtNtCsh21Ep08yPYI_9bingo_api4grpc11conversions16from_proto_value
FNDA:0,_RNvNtNtCsh21Ep08yPYI_9bingo_api4grpc11conversions17from_proto_action
FNDA:0,_RNvNtNtCsh21Ep08yPYI_9bingo_api4grpc11conversions20from_proto_condition
FNDA:0,_RNvNtNtCsh21Ep08yPYI_9bingo_api4grpc11conversions22to_proto_action_result
FNF:12
FNH:0
DA:12,0
DA:13,0
DA:15,0
DA:16,0
DA:17,0
DA:20,0
DA:21,0
DA:22,0
DA:23,0
DA:24,0
DA:25,0
DA:26,0
DA:27,0
DA:29,0
DA:30,0
DA:31,0
DA:32,0
DA:33,0
DA:34,0
DA:35,0
DA:37,0
DA:39,0
DA:40,0
DA:41,0
DA:42,0
DA:43,0
DA:44,0
DA:45,0
DA:46,0
DA:49,0
DA:53,0
DA:54,0
DA:56,0
DA:57,0
DA:59,0
DA:60,0
DA:61,0
DA:64,0
DA:65,0
DA:66,0
DA:68,0
DA:70,0
DA:71,0
DA:72,0
DA:73,0
DA:74,0
DA:75,0
DA:77,0
DA:78,0
DA:79,0
DA:80,0
DA:81,0
DA:84,0
DA:85,0
DA:86,0
DA:87,0
DA:89,0
DA:90,0
DA:92,0
DA:93,0
DA:94,0
DA:95,0
DA:96,0
DA:97,0
DA:98,0
DA:99,0
DA:100,0
DA:101,0
DA:102,0
DA:103,0
DA:104,0
DA:107,0
DA:108,0
DA:110,0
DA:112,0
DA:113,0
DA:114,0
DA:115,0
DA:116,0
DA:119,0
DA:120,0
DA:121,0
DA:122,0
DA:123,0
DA:125,0
DA:127,0
DA:129,0
DA:131,0
DA:132,0
DA:133,0
DA:134,0
DA:135,0
DA:136,0
DA:139,0
DA:140,0
DA:141,0
DA:143,0
DA:144,0
DA:145,0
DA:146,0
DA:147,0
DA:148,0
DA:149,0
DA:150,0
DA:151,0
DA:152,0
DA:153,0
DA:154,0
DA:155,0
DA:156,0
DA:158,0
DA:160,0
DA:162,0
DA:163,0
DA:164,0
DA:165,0
DA:166,0
DA:168,0
DA:169,0
DA:170,0
DA:171,0
DA:172,0
DA:174,0
DA:175,0
DA:177,0
DA:178,0
DA:179,0
DA:180,0
DA:181,0
DA:182,0
DA:183,0
DA:184,0
DA:185,0
DA:187,0
DA:188,0
DA:189,0
DA:190,0
DA:191,0
DA:192,0
DA:193,0
DA:194,0
DA:195,0
DA:196,0
DA:197,0
DA:198,0
DA:199,0
DA:200,0
DA:201,0
DA:202,0
DA:203,0
DA:204,0
DA:205,0
DA:206,0
DA:207,0
DA:208,0
DA:209,0
DA:210,0
DA:211,0
DA:212,0
DA:213,0
DA:214,0
DA:215,0
DA:216,0
DA:217,0
DA:218,0
DA:219,0
DA:220,0
DA:221,0
DA:222,0
DA:223,0
DA:224,0
DA:225,0
DA:226,0
DA:227,0
DA:228,0
DA:229,0
DA:230,0
DA:231,0
DA:232,0
DA:233,0
DA:234,0
DA:235,0
DA:236,0
DA:237,0
DA:238,0
DA:239,0
DA:240,0
DA:241,0
DA:242,0
DA:243,0
DA:244,0
DA:245,0
DA:246,0
DA:247,0
DA:248,0
DA:249,0
DA:250,0
DA:251,0
DA:252,0
DA:253,0
DA:254,0
DA:255,0
DA:256,0
DA:257,0
DA:258,0
DA:261,0
DA:262,0
BRF:0
BRH:0
LF:210
LH:0
end_of_record
SF:/Users/hl/Projects/private/bingo/crates/bingo-api/src/grpc/service.rs
FN:212,_RNCNCNCNCNvXs_NtNtCsh21Ep08yPYI_9bingo_api4grpc7serviceNtBc_22RulesEngineServiceImplNtNtNtBg_9generated27rules_engine_service_server18RulesEngineService25process_with_rules_stream0s_000Bg_
FN:214,_RNCNCNCNCNvXs_NtNtCsh21Ep08yPYI_9bingo_api4grpc7serviceNtBc_22RulesEngineServiceImplNtNtNtBg_9generated27rules_engine_service_server18RulesEngineService25process_with_rules_stream0s_00s_0Bg_
FN:211,_RNCNCNCNvXs_NtNtCsh21Ep08yPYI_9bingo_api4grpc7serviceNtBa_22RulesEngineServiceImplNtNtNtBe_9generated27rules_engine_service_server18RulesEngineService25process_with_rules_stream0s_00Be_
FN:52,_RNCNCNvXs_NtNtCsh21Ep08yPYI_9bingo_api4grpc7serviceNtB8_22RulesEngineServiceImplNtNtNtBc_9generated27rules_engine_service_server18RulesEngineService13compile_rules00Bc_
FN:61,_RNCNCNvXs_NtNtCsh21Ep08yPYI_9bingo_api4grpc7serviceNtB8_22RulesEngineServiceImplNtNtNtBc_9generated27rules_engine_service_server18RulesEngineService13compile_rules0s0_0Bc_
FN:56,_RNCNCNvXs_NtNtCsh21Ep08yPYI_9bingo_api4grpc7serviceNtB8_22RulesEngineServiceImplNtNtNtBc_9generated27rules_engine_service_server18RulesEngineService13compile_rules0s_0Bc_
FN:335,_RNCNvXs_NtNtCsh21Ep08yPYI_9bingo_api4grpc7serviceNtB6_22RulesEngineServiceImplNtNtNtBa_9generated27rules_engine_service_server18RulesEngineService12health_check0Ba_
FN:30,_RNCNvXs_NtNtCsh21Ep08yPYI_9bingo_api4grpc7serviceNtB6_22RulesEngineServiceImplNtNtNtBa_9generated27rules_engine_service_server18RulesEngineService13compile_rules0Ba_
FN:327,_RNCNvXs_NtNtCsh21Ep08yPYI_9bingo_api4grpc7serviceNtB6_22RulesEngineServiceImplNtNtNtBa_9generated27rules_engine_service_server18RulesEngineService16register_ruleset0Ba_
FN:304,_RNCNvXs_NtNtCsh21Ep08yPYI_9bingo_api4grpc7serviceNtB6_22RulesEngineServiceImplNtNtNtBa_9generated27rules_engine_service_server18RulesEngineService19process_facts_batch0Ba_
FN:92,_RNCNvXs_NtNtCsh21Ep08yPYI_9bingo_api4grpc7serviceNtB6_22RulesEngineServiceImplNtNtNtBa_9generated27rules_engine_service_server18RulesEngineService20process_facts_stream0Ba_
FN:317,_RNCNvXs_NtNtCsh21Ep08yPYI_9bingo_api4grpc7serviceNtB6_22RulesEngineServiceImplNtNtNtBa_9generated27rules_engine_service_server18RulesEngineService23evaluate_ruleset_stream0Ba_
FN:174,_RNCNvXs_NtNtCsh21Ep08yPYI_9bingo_api4grpc7serviceNtB6_22RulesEngineServiceImplNtNtNtBa_9generated27rules_engine_service_server18RulesEngineService25process_with_rules_stream0Ba_
FN:19,_RNvMNtNtCsh21Ep08yPYI_9bingo_api4grpc7serviceNtB2_22RulesEngineServiceImpl3new
FN:335,_RNvXs_NtNtCsh21Ep08yPYI_9bingo_api4grpc7serviceNtB4_22RulesEngineServiceImplNtNtNtB8_9generated27rules_engine_service_server18RulesEngineService12health_check
FN:30,_RNvXs_NtNtCsh21Ep08yPYI_9bingo_api4grpc7serviceNtB4_22RulesEngineServiceImplNtNtNtB8_9generated27rules_engine_service_server18RulesEngineService13compile_rules
FN:327,_RNvXs_NtNtCsh21Ep08yPYI_9bingo_api4grpc7serviceNtB4_22RulesEngineServiceImplNtNtNtB8_9generated27rules_engine_service_server18RulesEngineService16register_ruleset
FN:304,_RNvXs_NtNtCsh21Ep08yPYI_9bingo_api4grpc7serviceNtB4_22RulesEngineServiceImplNtNtNtB8_9generated27rules_engine_service_server18RulesEngineService19process_facts_batch
FN:92,_RNvXs_NtNtCsh21Ep08yPYI_9bingo_api4grpc7serviceNtB4_22RulesEngineServiceImplNtNtNtB8_9generated27rules_engine_service_server18RulesEngineService20process_facts_stream
FN:317,_RNvXs_NtNtCsh21Ep08yPYI_9bingo_api4grpc7serviceNtB4_22RulesEngineServiceImplNtNtNtB8_9generated27rules_engine_service_server18RulesEngineService23evaluate_ruleset_stream
FN:174,_RNvXs_NtNtCsh21Ep08yPYI_9bingo_api4grpc7serviceNtB4_22RulesEngineServiceImplNtNtNtB8_9generated27rules_engine_service_server18RulesEngineService25process_with_rules_stream
FNDA:0,_RNCNCNCNCNvXs_NtNtCsh21Ep08yPYI_9bingo_api4grpc7serviceNtBc_22RulesEngineServiceImplNtNtNtBg_9generated27rules_engine_service_server18RulesEngineService25process_with_rules_stream0s_000Bg_
FNDA:0,_RNCNCNCNCNvXs_NtNtCsh21Ep08yPYI_9bingo_api4grpc7serviceNtBc_22RulesEngineServiceImplNtNtNtBg_9generated27rules_engine_service_server18RulesEngineService25process_with_rules_stream0s_00s_0Bg_
FNDA:0,_RNCNCNCNvXs_NtNtCsh21Ep08yPYI_9bingo_api4grpc7serviceNtBa_22RulesEngineServiceImplNtNtNtBe_9generated27rules_engine_service_server18RulesEngineService25process_with_rules_stream0s_00Be_
FNDA:0,_RNCNCNvXs_NtNtCsh21Ep08yPYI_9bingo_api4grpc7serviceNtB8_22RulesEngineServiceImplNtNtNtBc_9generated27rules_engine_service_server18RulesEngineService13compile_rules00Bc_
FNDA:0,_RNCNCNvXs_NtNtCsh21Ep08yPYI_9bingo_api4grpc7serviceNtB8_22RulesEngineServiceImplNtNtNtBc_9generated27rules_engine_service_server18RulesEngineService13compile_rules0s0_0Bc_
FNDA:0,_RNCNCNvXs_NtNtCsh21Ep08yPYI_9bingo_api4grpc7serviceNtB8_22RulesEngineServiceImplNtNtNtBc_9generated27rules_engine_service_server18RulesEngineService13compile_rules0s_0Bc_
FNDA:0,_RNCNvXs_NtNtCsh21Ep08yPYI_9bingo_api4grpc7serviceNtB6_22RulesEngineServiceImplNtNtNtBa_9generated27rules_engine_service_server18RulesEngineService12health_check0Ba_
FNDA:0,_RNCNvXs_NtNtCsh21Ep08yPYI_9bingo_api4grpc7serviceNtB6_22RulesEngineServiceImplNtNtNtBa_9generated27rules_engine_service_server18RulesEngineService13compile_rules0Ba_
FNDA:0,_RNCNvXs_NtNtCsh21Ep08yPYI_9bingo_api4grpc7serviceNtB6_22RulesEngineServiceImplNtNtNtBa_9generated27rules_engine_service_server18RulesEngineService16register_ruleset0Ba_
FNDA:0,_RNCNvXs_NtNtCsh21Ep08yPYI_9bingo_api4grpc7serviceNtB6_22RulesEngineServiceImplNtNtNtBa_9generated27rules_engine_service_server18RulesEngineService19process_facts_batch0Ba_
FNDA:0,_RNCNvXs_NtNtCsh21Ep08yPYI_9bingo_api4grpc7serviceNtB6_22RulesEngineServiceImplNtNtNtBa_9generated27rules_engine_service_server18RulesEngineService20process_facts_stream0Ba_
FNDA:0,_RNCNvXs_NtNtCsh21Ep08yPYI_9bingo_api4grpc7serviceNtB6_22RulesEngineServiceImplNtNtNtBa_9generated27rules_engine_service_server18RulesEngineService23evaluate_ruleset_stream0Ba_
FNDA:0,_RNCNvXs_NtNtCsh21Ep08yPYI_9bingo_api4grpc7serviceNtB6_22RulesEngineServiceImplNtNtNtBa_9generated27rules_engine_service_server18RulesEngineService25process_with_rules_stream0Ba_
FNDA:0,_RNvMNtNtCsh21Ep08yPYI_9bingo_api4grpc7serviceNtB2_22RulesEngineServiceImpl3new
FNDA:0,_RNvXs_NtNtCsh21Ep08yPYI_9bingo_api4grpc7serviceNtB4_22RulesEngineServiceImplNtNtNtB8_9generated27rules_engine_service_server18RulesEngineService12health_check
FNDA:0,_RNvXs_NtNtCsh21Ep08yPYI_9bingo_api4grpc7serviceNtB4_22RulesEngineServiceImplNtNtNtB8_9generated27rules_engine_service_server18RulesEngineService13compile_rules
FNDA:0,_RNvXs_NtNtCsh21Ep08yPYI_9bingo_api4grpc7serviceNtB4_22RulesEngineServiceImplNtNtNtB8_9generated27rules_engine_service_server18RulesEngineService16register_ruleset
FNDA:0,_RNvXs_NtNtCsh21Ep08yPYI_9bingo_api4grpc7serviceNtB4_22RulesEngineServiceImplNtNtNtB8_9generated27rules_engine_service_server18RulesEngineService19process_facts_batch
FNDA:0,_RNvXs_NtNtCsh21Ep08yPYI_9bingo_api4grpc7serviceNtB4_22RulesEngineServiceImplNtNtNtB8_9generated27rules_engine_service_server18RulesEngineService20process_facts_stream
FNDA:0,_RNvXs_NtNtCsh21Ep08yPYI_9bingo_api4grpc7serviceNtB4_22RulesEngineServiceImplNtNtNtB8_9generated27rules_engine_service_server18RulesEngineService23evaluate_ruleset_stream
FNDA:0,_RNvXs_NtNtCsh21Ep08yPYI_9bingo_api4grpc7serviceNtB4_22RulesEngineServiceImplNtNtNtB8_9generated27rules_engine_service_server18RulesEngineService25process_with_rules_stream
FNF:14
FNH:0
DA:19,0
DA:20,0
DA:21,0
DA:30,0
DA:31,0
DA:32,0
DA:33,0
DA:35,0
DA:38,0
DA:40,0
DA:41,0
DA:44,0
DA:47,0
DA:48,0
DA:49,0
DA:50,0
DA:51,0
DA:52,0
DA:55,0
DA:56,0
DA:59,0
DA:60,0
DA:61,0
DA:63,0
DA:64,0
DA:66,0
DA:68,0
DA:70,0
DA:71,0
DA:74,0
DA:75,0
DA:76,0
DA:77,0
DA:78,0
DA:79,0
DA:80,0
DA:81,0
DA:82,0
DA:83,0
DA:92,0
DA:93,0
DA:95,0
DA:164,0
DA:165,0
DA:174,0
DA:175,0
DA:176,0
DA:178,0
DA:180,0
DA:181,0
DA:183,0
DA:187,0
DA:188,0
DA:189,0
DA:190,0
DA:194,0
DA:211,0
DA:212,0
DA:213,0
DA:214,0
DA:215,0
DA:216,0
DA:217,0
DA:295,0
DA:296,0
DA:304,0
DA:306,0
DA:307,0
DA:308,0
DA:309,0
DA:317,0
DA:319,0
DA:320,0
DA:321,0
DA:322,0
DA:327,0
DA:329,0
DA:330,0
DA:335,0
DA:336,0
DA:337,0
DA:338,0
DA:339,0
DA:340,0
DA:341,0
BRF:0
BRH:0
LF:90
LH:0
end_of_record
SF:/Users/hl/Projects/private/bingo/crates/bingo-api/src/grpc_error_handler.rs
FN:590,_RNvNtNtCsh21Ep08yPYI_9bingo_api18grpc_error_handler5testss_21test_error_conversion
FN:604,_RNvNtNtCsh21Ep08yPYI_9bingo_api18grpc_error_handler5testss_29test_request_context_creation
FN:580,_RNvNtNtCsh21Ep08yPYI_9bingo_api18grpc_error_handler5testss_32test_grpc_error_handler_creation
FN:271,_RNCNvMs_NtCsh21Ep08yPYI_9bingo_api18grpc_error_handlerNtB6_16GrpcErrorHandler12handle_error0B8_
FN:349,_RNCNvMs_NtCsh21Ep08yPYI_9bingo_api18grpc_error_handlerNtB6_16GrpcErrorHandler21create_enhanced_error0B8_
FN:359,_RNCNvMs_NtCsh21Ep08yPYI_9bingo_api18grpc_error_handlerNtB6_16GrpcErrorHandler21create_enhanced_errors0_0B8_
FN:374,_RNCNvMs_NtCsh21Ep08yPYI_9bingo_api18grpc_error_handlerNtB6_16GrpcErrorHandler21create_enhanced_errors1_0B8_
FN:377,_RNCNvMs_NtCsh21Ep08yPYI_9bingo_api18grpc_error_handlerNtB6_16GrpcErrorHandler21create_enhanced_errors2_0B8_
FN:356,_RNCNvMs_NtCsh21Ep08yPYI_9bingo_api18grpc_error_handlerNtB6_16GrpcErrorHandler21create_enhanced_errors_0B8_
FN:313,_RNCNvMs_NtCsh21Ep08yPYI_9bingo_api18grpc_error_handlerNtB6_16GrpcErrorHandler22generate_error_message0B8_
FN:314,_RNCNvMs_NtCsh21Ep08yPYI_9bingo_api18grpc_error_handlerNtB6_16GrpcErrorHandler22generate_error_messages_0B8_
FN:440,_RNCNvMs_NtCsh21Ep08yPYI_9bingo_api18grpc_error_handlerNtB6_16GrpcErrorHandler9log_error0B8_
FN:441,_RNCNvMs_NtCsh21Ep08yPYI_9bingo_api18grpc_error_handlerNtB6_16GrpcErrorHandler9log_errors_0B8_
FN:262,_RNvMs_NtCsh21Ep08yPYI_9bingo_api18grpc_error_handlerNtB4_16GrpcErrorHandler12handle_error
FN:327,_RNvMs_NtCsh21Ep08yPYI_9bingo_api18grpc_error_handlerNtB4_16GrpcErrorHandler21create_enhanced_error
FN:484,_RNvMs_NtCsh21Ep08yPYI_9bingo_api18grpc_error_handlerNtB4_16GrpcErrorHandler22create_request_context
FN:302,_RNvMs_NtCsh21Ep08yPYI_9bingo_api18grpc_error_handlerNtB4_16GrpcErrorHandler22generate_error_message
FN:149,_RNvMs_NtCsh21Ep08yPYI_9bingo_api18grpc_error_handlerNtB4_16GrpcErrorHandler22setup_default_mappings
FN:397,_RNvMs_NtCsh21Ep08yPYI_9bingo_api18grpc_error_handlerNtB4_16GrpcErrorHandler23add_diagnostic_metadata
FN:138,_RNvMs_NtCsh21Ep08yPYI_9bingo_api18grpc_error_handlerNtB4_16GrpcErrorHandler3new
FN:433,_RNvMs_NtCsh21Ep08yPYI_9bingo_api18grpc_error_handlerNtB4_16GrpcErrorHandler9log_error
FN:124,_RNvXNtCsh21Ep08yPYI_9bingo_api18grpc_error_handlerNtB2_15GrpcErrorConfigNtNtCsd2KPTObkMr_4core7default7Default7default
FN:537,_RNCNvMs_NtCsh21Ep08yPYI_9bingo_api18grpc_error_handlerNtB6_16GrpcErrorHandler19get_error_analytics0B8_
FN:540,_RNCNvMs_NtCsh21Ep08yPYI_9bingo_api18grpc_error_handlerNtB6_16GrpcErrorHandler19get_error_analyticss_0B8_
FN:559,_RNCNvXININtCsh21Ep08yPYI_9bingo_api18grpc_error_handlers0_0pEINtNtCsd2KPTObkMr_4core6result6ResultpNtNtCs6Pl1wmeKPjF_10bingo_core5error10BingoErrorEINtB7_23BingoResultToGrpcStatuspE14to_grpc_status0B9_
FN:536,_RNvMs_NtCsh21Ep08yPYI_9bingo_api18grpc_error_handlerNtB4_16GrpcErrorHandler19get_error_analytics
FN:531,_RNvMs_NtCsh21Ep08yPYI_9bingo_api18grpc_error_handlerNtB4_16GrpcErrorHandler20update_error_mapping
FN:554,_RNvXININtCsh21Ep08yPYI_9bingo_api18grpc_error_handlers0_0pEINtNtCsd2KPTObkMr_4core6result6ResultpNtNtCs6Pl1wmeKPjF_10bingo_core5error10BingoErrorEINtB5_23BingoResultToGrpcStatuspE14to_grpc_statusB7_
FNDA:1,_RNvNtNtCsh21Ep08yPYI_9bingo_api18grpc_error_handler5testss_21test_error_conversion
FNDA:1,_RNvNtNtCsh21Ep08yPYI_9bingo_api18grpc_error_handler5testss_29test_request_context_creation
FNDA:1,_RNvNtNtCsh21Ep08yPYI_9bingo_api18grpc_error_handler5testss_32test_grpc_error_handler_creation
FNDA:0,_RNCNvMs_NtCsh21Ep08yPYI_9bingo_api18grpc_error_handlerNtB6_16GrpcErrorHandler12handle_error0B8_
FNDA:0,_RNCNvMs_NtCsh21Ep08yPYI_9bingo_api18grpc_error_handlerNtB6_16GrpcErrorHandler21create_enhanced_error0B8_
FNDA:1,_RNCNvMs_NtCsh21Ep08yPYI_9bingo_api18grpc_error_handlerNtB6_16GrpcErrorHandler21create_enhanced_errors0_0B8_
FNDA:2,_RNCNvMs_NtCsh21Ep08yPYI_9bingo_api18grpc_error_handlerNtB6_16GrpcErrorHandler21create_enhanced_errors1_0B8_
FNDA:2,_RNCNvMs_NtCsh21Ep08yPYI_9bingo_api18grpc_error_handlerNtB6_16GrpcErrorHandler21create_enhanced_errors2_0B8_
FNDA:1,_RNCNvMs_NtCsh21Ep08yPYI_9bingo_api18grpc_error_handlerNtB6_16GrpcErrorHandler21create_enhanced_errors_0B8_
FNDA:0,_RNCNvMs_NtCsh21Ep08yPYI_9bingo_api18grpc_error_handlerNtB6_16GrpcErrorHandler22generate_error_message0B8_
FNDA:0,_RNCNvMs_NtCsh21Ep08yPYI_9bingo_api18grpc_error_handlerNtB6_16GrpcErrorHandler22generate_error_messages_0B8_
FNDA:0,_RNCNvMs_NtCsh21Ep08yPYI_9bingo_api18grpc_error_handlerNtB6_16GrpcErrorHandler9log_error0B8_
FNDA:1,_RNCNvMs_NtCsh21Ep08yPYI_9bingo_api18grpc_error_handlerNtB6_16GrpcErrorHandler9log_errors_0B8_
FNDA:1,_RNvMs_NtCsh21Ep08yPYI_9bingo_api18grpc_error_handlerNtB4_16GrpcErrorHandler12handle_error
FNDA:1,_RNvMs_NtCsh21Ep08yPYI_9bingo_api18grpc_error_handlerNtB4_16GrpcErrorHandler21create_enhanced_error
FNDA:1,_RNvMs_NtCsh21Ep08yPYI_9bingo_api18grpc_error_handlerNtB4_16GrpcErrorHandler22create_request_context
FNDA:1,_RNvMs_NtCsh21Ep08yPYI_9bingo_api18grpc_error_handlerNtB4_16GrpcErrorHandler22generate_error_message
FNDA:2,_RNvMs_NtCsh21Ep08yPYI_9bingo_api18grpc_error_handlerNtB4_16GrpcErrorHandler22setup_default_mappings
FNDA:1,_RNvMs_NtCsh21Ep08yPYI_9bingo_api18grpc_error_handlerNtB4_16GrpcErrorHandler23add_diagnostic_metadata
FNDA:2,_RNvMs_NtCsh21Ep08yPYI_9bingo_api18grpc_error_handlerNtB4_16GrpcErrorHandler3new
FNDA:1,_RNvMs_NtCsh21Ep08yPYI_9bingo_api18grpc_error_handlerNtB4_16GrpcErrorHandler9log_error
FNDA:2,_RNvXNtCsh21Ep08yPYI_9bingo_api18grpc_error_handlerNtB2_15GrpcErrorConfigNtNtCsd2KPTObkMr_4core7default7Default7default
FNDA:0,_RNCNvMs_NtCsh21Ep08yPYI_9bingo_api18grpc_error_handlerNtB6_16GrpcErrorHandler19get_error_analytics0B8_
FNDA:0,_RNCNvMs_NtCsh21Ep08yPYI_9bingo_api18grpc_error_handlerNtB6_16GrpcErrorHandler19get_error_analyticss_0B8_
FNDA:0,_RNCNvXININtCsh21Ep08yPYI_9bingo_api18grpc_error_handlers0_0pEINtNtCsd2KPTObkMr_4core6result6ResultpNtNtCs6Pl1wmeKPjF_10bingo_core5error10BingoErrorEINtB7_23BingoResultToGrpcStatuspE14to_grpc_status0B9_
FNDA:0,_RNvMs_NtCsh21Ep08yPYI_9bingo_api18grpc_error_handlerNtB4_16GrpcErrorHandler19get_error_analytics
FNDA:0,_RNvMs_NtCsh21Ep08yPYI_9bingo_api18grpc_error_handlerNtB4_16GrpcErrorHandler20update_error_mapping
FNDA:0,_RNvXININtCsh21Ep08yPYI_9bingo_api18grpc_error_handlers0_0pEINtNtCsd2KPTObkMr_4core6result6ResultpNtNtCs6Pl1wmeKPjF_10bingo_core5error10BingoErrorEINtB5_23BingoResultToGrpcStatuspE14to_grpc_statusB7_
FNF:28
FNH:17
DA:124,2
DA:125,2
DA:126,2
DA:127,2
DA:128,2
DA:129,2
DA:130,2
DA:131,2
DA:132,2
DA:133,2
DA:138,2
DA:139,2
DA:140,2
DA:141,2
DA:142,2
DA:144,2
DA:145,2
DA:146,2
DA:149,2
DA:151,2
DA:152,2
DA:153,2
DA:154,2
DA:155,2
DA:156,2
DA:157,2
DA:158,2
DA:162,2
DA:163,2
DA:164,2
DA:165,2
DA:166,2
DA:167,2
DA:168,2
DA:169,2
DA:173,2
DA:174,2
DA:175,2
DA:176,2
DA:177,2
DA:178,2
DA:179,2
DA:180,2
DA:184,2
DA:185,2
DA:186,2
DA:187,2
DA:188,2
DA:189,2
DA:190,2
DA:191,2
DA:195,2
DA:196,2
DA:197,2
DA:198,2
DA:199,2
DA:200,2
DA:201,2
DA:202,2
DA:206,2
DA:207,2
DA:208,2
DA:209,2
DA:210,2
DA:211,2
DA:212,2
DA:213,2
DA:217,2
DA:218,2
DA:219,2
DA:220,2
DA:221,2
DA:222,2
DA:223,2
DA:224,2
DA:228,2
DA:229,2
DA:230,2
DA:231,2
DA:232,2
DA:233,2
DA:234,2
DA:235,2
DA:239,2
DA:240,2
DA:241,2
DA:242,2
DA:243,2
DA:244,2
DA:245,2
DA:246,2
DA:250,2
DA:251,2
DA:252,2
DA:253,2
DA:254,2
DA:255,2
DA:256,2
DA:257,2
DA:259,2
DA:262,1
DA:264,1
DA:265,1
DA:266,1
DA:270,1
DA:271,1
DA:273,0
DA:274,0
DA:275,0
DA:276,0
DA:277,0
DA:278,0
DA:279,0
DA:282,1
DA:285,1
DA:288,1
DA:291,1
DA:292,1
DA:293,1
DA:296,1
DA:298,1
DA:299,1
DA:302,1
DA:303,1
DA:304,1
DA:305,1
DA:306,1
DA:307,1
DA:308,1
DA:310,0
DA:311,0
DA:312,0
DA:313,0
DA:314,0
DA:318,1
DA:319,0
DA:320,0
DA:321,1
DA:323,1
DA:324,1
DA:327,1
DA:328,1
DA:329,1
DA:330,1
DA:331,1
DA:332,1
DA:335,1
DA:336,0
DA:337,1
DA:338,1
DA:339,0
DA:340,1
DA:341,1
DA:342,0
DA:343,1
DA:344,1
DA:345,0
DA:346,1
DA:349,1
DA:352,1
DA:353,1
DA:354,1
DA:355,1
DA:356,1
DA:357,1
DA:358,1
DA:359,1
DA:360,1
DA:361,1
DA:362,1
DA:363,1
DA:364,1
DA:365,1
DA:367,0
DA:371,1
DA:372,1
DA:373,1
DA:374,2
DA:375,1
DA:376,1
DA:377,2
DA:378,2
DA:379,2
DA:380,2
DA:381,1
DA:383,1
DA:384,1
DA:385,1
DA:386,1
DA:387,1
DA:388,1
DA:389,1
DA:390,1
DA:391,1
DA:392,1
DA:393,1
DA:394,1
DA:397,1
DA:399,1
DA:401,1
DA:402,1
DA:404,0
DA:407,1
DA:408,1
DA:409,1
DA:410,0
DA:413,1
DA:414,1
DA:415,1
DA:417,1
DA:418,1
DA:419,1
DA:421,1
DA:422,1
DA:423,1
DA:425,1
DA:426,0
DA:427,0
DA:428,0
DA:429,1
DA:430,1
DA:433,1
DA:434,1
DA:435,1
DA:436,1
DA:437,1
DA:438,1
DA:439,1
DA:440,1
DA:441,1
DA:443,1
DA:449,1
DA:454,0
DA:460,0
DA:465,0
DA:471,0
DA:476,0
DA:481,1
DA:484,1
DA:485,1
DA:486,1
DA:487,1
DA:488,1
DA:489,1
DA:490,1
DA:493,1
DA:494,0
DA:495,0
DA:496,0
DA:497,0
DA:498,0
DA:499,0
DA:500,0
DA:501,0
DA:503,0
DA:504,0
DA:505,0
DA:507,0
DA:509,0
DA:510,0
DA:511,0
DA:512,0
DA:517,1
DA:518,1
DA:519,1
DA:521,1
DA:522,1
DA:523,1
DA:524,1
DA:525,1
DA:526,1
DA:527,1
DA:528,1
DA:531,0
DA:532,0
DA:533,0
DA:536,0
DA:537,0
DA:538,0
DA:540,0
DA:541,0
DA:554,0
DA:555,0
DA:556,0
DA:557,0
DA:558,0
DA:559,0
DA:560,0
DA:580,1
DA:581,1
DA:582,1
DA:584,1
DA:586,1
DA:587,1
DA:590,1
DA:591,1
DA:592,1
DA:594,1
DA:596,1
DA:597,1
DA:599,1
DA:600,1
DA:601,1
DA:604,1
DA:605,1
DA:606,1
DA:608,1
DA:609,1
DA:610,1
BRF:0
BRH:0
LF:320
LH:252
end_of_record
SF:/Users/hl/Projects/private/bingo/crates/bingo-api/src/lib.rs
FN:44,_RNCNvMCsh21Ep08yPYI_9bingo_apiNtB4_8AppState3new0B4_
FN:44,_RNvMCsh21Ep08yPYI_9bingo_apiNtB2_8AppState3new
FN:50,_RNvMCsh21Ep08yPYI_9bingo_apiNtB2_8AppState7elapsed
FNDA:0,_RNCNvMCsh21Ep08yPYI_9bingo_apiNtB4_8AppState3new0B4_
FNDA:0,_RNvMCsh21Ep08yPYI_9bingo_apiNtB2_8AppState3new
FNDA:0,_RNvMCsh21Ep08yPYI_9bingo_apiNtB2_8AppState7elapsed
FNF:3
FNH:0
DA:44,0
DA:45,0
DA:47,0
DA:48,0
DA:50,0
DA:51,0
DA:52,0
BRF:0
BRH:0
LF:8
LH:0
end_of_record
SF:/Users/hl/Projects/private/bingo/crates/bingo-api/src/main.rs
FN:75,_RNCNCNvCscZ9aFEXryBA_5bingo17start_grpc_server00B5_
FN:50,_RNCNvCscZ9aFEXryBA_5bingo15explain_command0B3_
FN:73,_RNCNvCscZ9aFEXryBA_5bingo17start_grpc_server0B3_
FN:15,_RNCNvCscZ9aFEXryBA_5bingo4main0B3_
FN:62,_RNvCscZ9aFEXryBA_5bingo10print_help
FN:50,_RNvCscZ9aFEXryBA_5bingo15explain_command
FN:73,_RNvCscZ9aFEXryBA_5bingo17start_grpc_server
FN:15,_RNvCscZ9aFEXryBA_5bingo4main
FNDA:0,_RNCNCNvCscZ9aFEXryBA_5bingo17start_grpc_server00B5_
FNDA:0,_RNCNvCscZ9aFEXryBA_5bingo15explain_command0B3_
FNDA:0,_RNCNvCscZ9aFEXryBA_5bingo17start_grpc_server0B3_
FNDA:0,_RNCNvCscZ9aFEXryBA_5bingo4main0B3_
FNDA:0,_RNvCscZ9aFEXryBA_5bingo10print_help
FNDA:0,_RNvCscZ9aFEXryBA_5bingo15explain_command
FNDA:0,_RNvCscZ9aFEXryBA_5bingo17start_grpc_server
FNDA:0,_RNvCscZ9aFEXryBA_5bingo4main
FNF:8
FNH:0
DA:15,0
DA:17,0
DA:18,0
DA:20,0
DA:23,0
DA:27,0
DA:28,0
DA:29,0
DA:30,0
DA:31,0
DA:32,0
DA:33,0
DA:34,0
DA:35,0
DA:36,0
DA:37,0
DA:38,0
DA:39,0
DA:40,0
DA:41,0
DA:42,0
DA:43,0
DA:44,0
DA:45,0
DA:46,0
DA:47,0
DA:48,0
DA:50,0
DA:51,0
DA:52,0
DA:53,0
DA:54,0
DA:55,0
DA:56,0
DA:57,0
DA:58,0
DA:59,0
DA:60,0
DA:62,0
DA:63,0
DA:64,0
DA:65,0
DA:66,0
DA:67,0
DA:68,0
DA:69,0
DA:70,0
DA:71,0
DA:73,0
DA:75,0
DA:77,0
DA:80,0
DA:83,0
DA:85,0
DA:86,0
DA:87,0
DA:89,0
DA:90,0
DA:92,0
DA:95,0
DA:97,0
DA:98,0
BRF:0
BRH:0
LF:79
LH:0
end_of_record
SF:/Users/hl/Projects/private/bingo/crates/bingo-api/src/tracing_setup.rs
FN:35,_RNCNvMs_NtCsh21Ep08yPYI_9bingo_api13tracing_setupNtB6_13TracingConfig16from_environment0B8_
FN:39,_RNCNvMs_NtCsh21Ep08yPYI_9bingo_api13tracing_setupNtB6_13TracingConfig16from_environments0_0B8_
FN:37,_RNCNvMs_NtCsh21Ep08yPYI_9bingo_api13tracing_setupNtB6_13TracingConfig16from_environments_0B8_
FN:52,_RNCNvNtCsh21Ep08yPYI_9bingo_api13tracing_setup12init_tracing0B5_
FN:32,_RNvMs_NtCsh21Ep08yPYI_9bingo_api13tracing_setupNtB4_13TracingConfig16from_environment
FN:45,_RNvNtCsh21Ep08yPYI_9bingo_api13tracing_setup12init_tracing
FN:68,_RNvNtCsh21Ep08yPYI_9bingo_api13tracing_setup16shutdown_tracing
FN:21,_RNvXNtCsh21Ep08yPYI_9bingo_api13tracing_setupNtB2_13TracingConfigNtNtCsd2KPTObkMr_4core7default7Default7default
FNDA:0,_RNCNvMs_NtCsh21Ep08yPYI_9bingo_api13tracing_setupNtB6_13TracingConfig16from_environment0B8_
FNDA:0,_RNCNvMs_NtCsh21Ep08yPYI_9bingo_api13tracing_setupNtB6_13TracingConfig16from_environments0_0B8_
FNDA:0,_RNCNvMs_NtCsh21Ep08yPYI_9bingo_api13tracing_setupNtB6_13TracingConfig16from_environments_0B8_
FNDA:0,_RNCNvNtCsh21Ep08yPYI_9bingo_api13tracing_setup12init_tracing0B5_
FNDA:0,_RNvMs_NtCsh21Ep08yPYI_9bingo_api13tracing_setupNtB4_13TracingConfig16from_environment
FNDA:0,_RNvNtCsh21Ep08yPYI_9bingo_api13tracing_setup12init_tracing
FNDA:0,_RNvNtCsh21Ep08yPYI_9bingo_api13tracing_setup16shutdown_tracing
FNDA:0,_RNvXNtCsh21Ep08yPYI_9bingo_api13tracing_setupNtB2_13TracingConfigNtNtCsd2KPTObkMr_4core7default7Default7default
FNF:8
FNH:0
DA:21,0
DA:22,0
DA:23,0
DA:24,0
DA:25,0
DA:26,0
DA:27,0
DA:32,0
DA:34,0
DA:35,0
DA:36,0
DA:37,0
DA:38,0
DA:39,0
DA:41,0
DA:45,0
DA:46,0
DA:49,0
DA:50,0
DA:51,0
DA:52,0
DA:54,0
DA:55,0
DA:57,0
DA:61,0
DA:64,0
DA:65,0
DA:68,0
DA:69,0
DA:70,0
BRF:0
BRH:0
LF:34
LH:0
end_of_record
SF:/Users/hl/Projects/private/bingo/crates/bingo-calculator/src/built_in/add.rs
FN:23,_RNvXNtNtCs6Gf3xPIjPY5_16bingo_calculator8built_in3addNtB2_13AddCalculatorNtNtB6_6plugin16CalculatorPlugin4name
FN:27,_RNvXNtNtCs6Gf3xPIjPY5_16bingo_calculator8built_in3addNtB2_13AddCalculatorNtNtB6_6plugin16CalculatorPlugin9calculate
FN:23,_RNvXNtNtCskKeWLi2yIol_16bingo_calculator8built_in3addNtB2_13AddCalculatorNtNtB6_6plugin16CalculatorPlugin4name
FN:27,_RNvXNtNtCskKeWLi2yIol_16bingo_calculator8built_in3addNtB2_13AddCalculatorNtNtB6_6plugin16CalculatorPlugin9calculate
FNDA:8,_RNvXNtNtCs6Gf3xPIjPY5_16bingo_calculator8built_in3addNtB2_13AddCalculatorNtNtB6_6plugin16CalculatorPlugin4name
FNDA:0,_RNvXNtNtCs6Gf3xPIjPY5_16bingo_calculator8built_in3addNtB2_13AddCalculatorNtNtB6_6plugin16CalculatorPlugin9calculate
FNDA:0,_RNvXNtNtCskKeWLi2yIol_16bingo_calculator8built_in3addNtB2_13AddCalculatorNtNtB6_6plugin16CalculatorPlugin4name
FNDA:0,_RNvXNtNtCskKeWLi2yIol_16bingo_calculator8built_in3addNtB2_13AddCalculatorNtNtB6_6plugin16CalculatorPlugin9calculate
FNF:2
FNH:1
DA:23,8
DA:24,8
DA:25,8
DA:27,0
DA:28,0
DA:29,0
DA:30,0
DA:31,0
DA:33,0
DA:34,0
DA:35,0
DA:36,0
DA:38,0
DA:39,0
BRF:0
BRH:0
LF:14
LH:3
end_of_record
SF:/Users/hl/Projects/private/bingo/crates/bingo-calculator/src/built_in/multiply.rs
FN:23,_RNvXNtNtCs6Gf3xPIjPY5_16bingo_calculator8built_in8multiplyNtB2_18MultiplyCalculatorNtNtB6_6plugin16CalculatorPlugin4name
FN:27,_RNvXNtNtCs6Gf3xPIjPY5_16bingo_calculator8built_in8multiplyNtB2_18MultiplyCalculatorNtNtB6_6plugin16CalculatorPlugin9calculate
FN:23,_RNvXNtNtCskKeWLi2yIol_16bingo_calculator8built_in8multiplyNtB2_18MultiplyCalculatorNtNtB6_6plugin16CalculatorPlugin4name
FN:27,_RNvXNtNtCskKeWLi2yIol_16bingo_calculator8built_in8multiplyNtB2_18MultiplyCalculatorNtNtB6_6plugin16CalculatorPlugin9calculate
FNDA:8,_RNvXNtNtCs6Gf3xPIjPY5_16bingo_calculator8built_in8multiplyNtB2_18MultiplyCalculatorNtNtB6_6plugin16CalculatorPlugin4name
FNDA:0,_RNvXNtNtCs6Gf3xPIjPY5_16bingo_calculator8built_in8multiplyNtB2_18MultiplyCalculatorNtNtB6_6plugin16CalculatorPlugin9calculate
FNDA:0,_RNvXNtNtCskKeWLi2yIol_16bingo_calculator8built_in8multiplyNtB2_18MultiplyCalculatorNtNtB6_6plugin16CalculatorPlugin4name
FNDA:0,_RNvXNtNtCskKeWLi2yIol_16bingo_calculator8built_in8multiplyNtB2_18MultiplyCalculatorNtNtB6_6plugin16CalculatorPlugin9calculate
FNF:2
FNH:1
DA:23,8
DA:24,8
DA:25,8
DA:27,0
DA:28,0
DA:29,0
DA:30,0
DA:31,0
DA:33,0
DA:34,0
DA:35,0
DA:36,0
DA:38,0
DA:39,0
BRF:0
BRH:0
LF:14
LH:3
end_of_record
SF:/Users/hl/Projects/private/bingo/crates/bingo-calculator/src/built_in/percentage_add.rs
FN:24,_RNvXNtNtCs6Gf3xPIjPY5_16bingo_calculator8built_in14percentage_addNtB2_23PercentageAddCalculatorNtNtB6_6plugin16CalculatorPlugin4name
FN:28,_RNvXNtNtCs6Gf3xPIjPY5_16bingo_calculator8built_in14percentage_addNtB2_23PercentageAddCalculatorNtNtB6_6plugin16CalculatorPlugin9calculate
FN:24,_RNvXNtNtCskKeWLi2yIol_16bingo_calculator8built_in14percentage_addNtB2_23PercentageAddCalculatorNtNtB6_6plugin16CalculatorPlugin4name
FN:28,_RNvXNtNtCskKeWLi2yIol_16bingo_calculator8built_in14percentage_addNtB2_23PercentageAddCalculatorNtNtB6_6plugin16CalculatorPlugin9calculate
FNDA:8,_RNvXNtNtCs6Gf3xPIjPY5_16bingo_calculator8built_in14percentage_addNtB2_23PercentageAddCalculatorNtNtB6_6plugin16CalculatorPlugin4name
FNDA:0,_RNvXNtNtCs6Gf3xPIjPY5_16bingo_calculator8built_in14percentage_addNtB2_23PercentageAddCalculatorNtNtB6_6plugin16CalculatorPlugin9calculate
FNDA:0,_RNvXNtNtCskKeWLi2yIol_16bingo_calculator8built_in14percentage_addNtB2_23PercentageAddCalculatorNtNtB6_6plugin16CalculatorPlugin4name
FNDA:0,_RNvXNtNtCskKeWLi2yIol_16bingo_calculator8built_in14percentage_addNtB2_23PercentageAddCalculatorNtNtB6_6plugin16CalculatorPlugin9calculate
FNF:2
FNH:1
DA:24,8
DA:25,8
DA:26,8
DA:28,0
DA:29,0
DA:30,0
DA:31,0
DA:32,0
DA:34,0
DA:35,0
DA:36,0
DA:37,0
DA:39,0
DA:40,0
DA:41,0
BRF:0
BRH:0
LF:15
LH:3
end_of_record
SF:/Users/hl/Projects/private/bingo/crates/bingo-calculator/src/built_in/percentage_deduct.rs
FN:24,_RNvXNtNtCs6Gf3xPIjPY5_16bingo_calculator8built_in17percentage_deductNtB2_26PercentageDeductCalculatorNtNtB6_6plugin16CalculatorPlugin4name
FN:28,_RNvXNtNtCs6Gf3xPIjPY5_16bingo_calculator8built_in17percentage_deductNtB2_26PercentageDeductCalculatorNtNtB6_6plugin16CalculatorPlugin9calculate
FN:24,_RNvXNtNtCskKeWLi2yIol_16bingo_calculator8built_in17percentage_deductNtB2_26PercentageDeductCalculatorNtNtB6_6plugin16CalculatorPlugin4name
FN:28,_RNvXNtNtCskKeWLi2yIol_16bingo_calculator8built_in17percentage_deductNtB2_26PercentageDeductCalculatorNtNtB6_6plugin16CalculatorPlugin9calculate
FNDA:8,_RNvXNtNtCs6Gf3xPIjPY5_16bingo_calculator8built_in17percentage_deductNtB2_26PercentageDeductCalculatorNtNtB6_6plugin16CalculatorPlugin4name
FNDA:0,_RNvXNtNtCs6Gf3xPIjPY5_16bingo_calculator8built_in17percentage_deductNtB2_26PercentageDeductCalculatorNtNtB6_6plugin16CalculatorPlugin9calculate
FNDA:0,_RNvXNtNtCskKeWLi2yIol_16bingo_calculator8built_in17percentage_deductNtB2_26PercentageDeductCalculatorNtNtB6_6plugin16CalculatorPlugin4name
FNDA:0,_RNvXNtNtCskKeWLi2yIol_16bingo_calculator8built_in17percentage_deductNtB2_26PercentageDeductCalculatorNtNtB6_6plugin16CalculatorPlugin9calculate
FNF:2
FNH:1
DA:24,8
DA:25,8
DA:26,8
DA:28,0
DA:29,0
DA:30,0
DA:31,0
DA:32,0
DA:34,0
DA:35,0
DA:36,0
DA:37,0
DA:39,0
DA:40,0
DA:41,0
BRF:0
BRH:0
LF:15
LH:3
end_of_record
SF:/Users/hl/Projects/private/bingo/crates/bingo-calculator/src/built_in/proportional_allocator.rs
FN:16,_RNvXNtNtCs6Gf3xPIjPY5_16bingo_calculator8built_in22proportional_allocatorNtB2_31ProportionalAllocatorCalculatorNtNtB6_6plugin16CalculatorPlugin4name
FN:20,_RNvXNtNtCs6Gf3xPIjPY5_16bingo_calculator8built_in22proportional_allocatorNtB2_31ProportionalAllocatorCalculatorNtNtB6_6plugin16CalculatorPlugin9calculate
FN:16,_RNvXNtNtCskKeWLi2yIol_16bingo_calculator8built_in22proportional_allocatorNtB2_31ProportionalAllocatorCalculatorNtNtB6_6plugin16CalculatorPlugin4name
FN:20,_RNvXNtNtCskKeWLi2yIol_16bingo_calculator8built_in22proportional_allocatorNtB2_31ProportionalAllocatorCalculatorNtNtB6_6plugin16CalculatorPlugin9calculate
FNDA:8,_RNvXNtNtCs6Gf3xPIjPY5_16bingo_calculator8built_in22proportional_allocatorNtB2_31ProportionalAllocatorCalculatorNtNtB6_6plugin16CalculatorPlugin4name
FNDA:0,_RNvXNtNtCs6Gf3xPIjPY5_16bingo_calculator8built_in22proportional_allocatorNtB2_31ProportionalAllocatorCalculatorNtNtB6_6plugin16CalculatorPlugin9calculate
FNDA:0,_RNvXNtNtCskKeWLi2yIol_16bingo_calculator8built_in22proportional_allocatorNtB2_31ProportionalAllocatorCalculatorNtNtB6_6plugin16CalculatorPlugin4name
FNDA:0,_RNvXNtNtCskKeWLi2yIol_16bingo_calculator8built_in22proportional_allocatorNtB2_31ProportionalAllocatorCalculatorNtNtB6_6plugin16CalculatorPlugin9calculate
FNF:2
FNH:1
DA:16,8
DA:17,8
DA:18,8
DA:20,0
DA:21,0
DA:22,0
DA:23,0
DA:24,0
DA:26,0
DA:27,0
DA:28,0
DA:29,0
DA:31,0
DA:32,0
DA:33,0
DA:34,0
DA:38,0
DA:39,0
DA:40,0
DA:45,0
DA:46,0
DA:47,0
BRF:0
BRH:0
LF:22
LH:3
end_of_record
SF:/Users/hl/Projects/private/bingo/crates/bingo-calculator/src/built_in/time_between_datetime.rs
FN:17,_RNCNvNtNtCs6Gf3xPIjPY5_16bingo_calculator8built_in21time_between_datetime14parse_datetime0B7_
FN:14,_RNvNtNtCs6Gf3xPIjPY5_16bingo_calculator8built_in21time_between_datetime14parse_datetime
FN:27,_RNvXNtNtCs6Gf3xPIjPY5_16bingo_calculator8built_in21time_between_datetimeNtB2_29TimeBetweenDatetimeCalculatorNtNtB6_6plugin16CalculatorPlugin4name
FN:31,_RNvXNtNtCs6Gf3xPIjPY5_16bingo_calculator8built_in21time_between_datetimeNtB2_29TimeBetweenDatetimeCalculatorNtNtB6_6plugin16CalculatorPlugin9calculate
FN:17,_RNCNvNtNtCskKeWLi2yIol_16bingo_calculator8built_in21time_between_datetime14parse_datetime0B7_
FN:14,_RNvNtNtCskKeWLi2yIol_16bingo_calculator8built_in21time_between_datetime14parse_datetime
FN:27,_RNvXNtNtCskKeWLi2yIol_16bingo_calculator8built_in21time_between_datetimeNtB2_29TimeBetweenDatetimeCalculatorNtNtB6_6plugin16CalculatorPlugin4name
FN:31,_RNvXNtNtCskKeWLi2yIol_16bingo_calculator8built_in21time_between_datetimeNtB2_29TimeBetweenDatetimeCalculatorNtNtB6_6plugin16CalculatorPlugin9calculate
FNDA:0,_RNCNvNtNtCs6Gf3xPIjPY5_16bingo_calculator8built_in21time_between_datetime14parse_datetime0B7_
FNDA:0,_RNvNtNtCs6Gf3xPIjPY5_16bingo_calculator8built_in21time_between_datetime14parse_datetime
FNDA:8,_RNvXNtNtCs6Gf3xPIjPY5_16bingo_calculator8built_in21time_between_datetimeNtB2_29TimeBetweenDatetimeCalculatorNtNtB6_6plugin16CalculatorPlugin4name
FNDA:0,_RNvXNtNtCs6Gf3xPIjPY5_16bingo_calculator8built_in21time_between_datetimeNtB2_29TimeBetweenDatetimeCalculatorNtNtB6_6plugin16CalculatorPlugin9calculate
FNDA:0,_RNCNvNtNtCskKeWLi2yIol_16bingo_calculator8built_in21time_between_datetime14parse_datetime0B7_
FNDA:0,_RNvNtNtCskKeWLi2yIol_16bingo_calculator8built_in21time_between_datetime14parse_datetime
FNDA:0,_RNvXNtNtCskKeWLi2yIol_16bingo_calculator8built_in21time_between_datetimeNtB2_29TimeBetweenDatetimeCalculatorNtNtB6_6plugin16CalculatorPlugin4name
FNDA:0,_RNvXNtNtCskKeWLi2yIol_16bingo_calculator8built_in21time_between_datetimeNtB2_29TimeBetweenDatetimeCalculatorNtNtB6_6plugin16CalculatorPlugin9calculate
FNF:4
FNH:1
DA:14,0
DA:15,0
DA:16,0
DA:17,0
DA:18,0
DA:19,0
DA:21,0
DA:27,8
DA:28,8
DA:29,8
DA:31,0
DA:32,0
DA:33,0
DA:34,0
DA:37,0
DA:38,0
DA:39,0
DA:42,0
DA:43,0
DA:44,0
DA:45,0
DA:48,0
DA:50,0
DA:51,0
DA:52,0
DA:53,0
DA:56,0
DA:57,0
BRF:0
BRH:0
LF:29
LH:3
end_of_record
SF:/Users/hl/Projects/private/bingo/crates/bingo-calculator/src/built_in/weighted_average.rs
FN:26,_RNvMNtNtCskKeWLi2yIol_16bingo_calculator8built_in16weighted_averageNtB2_25WeightedAverageCalculator3new
FN:32,_RNvXs_NtNtCskKeWLi2yIol_16bingo_calculator8built_in16weighted_averageNtB4_25WeightedAverageCalculatorNtNtB8_6plugin16CalculatorPlugin4name
FN:36,_RNvXs_NtNtCskKeWLi2yIol_16bingo_calculator8built_in16weighted_averageNtB4_25WeightedAverageCalculatorNtNtB8_6plugin16CalculatorPlugin9calculate
FNDA:0,_RNvMNtNtCskKeWLi2yIol_16bingo_calculator8built_in16weighted_averageNtB2_25WeightedAverageCalculator3new
FNDA:0,_RNvXs_NtNtCskKeWLi2yIol_16bingo_calculator8built_in16weighted_averageNtB4_25WeightedAverageCalculatorNtNtB8_6plugin16CalculatorPlugin4name
FNDA:0,_RNvXs_NtNtCskKeWLi2yIol_16bingo_calculator8built_in16weighted_averageNtB4_25WeightedAverageCalculatorNtNtB8_6plugin16CalculatorPlugin9calculate
FNF:3
FNH:0
DA:26,0
DA:27,0
DA:28,0
DA:32,0
DA:33,0
DA:34,0
DA:36,0
DA:37,0
DA:38,0
DA:39,0
DA:42,0
DA:43,0
DA:44,0
DA:47,0
DA:48,0
DA:51,0
DA:52,0
DA:54,0
DA:55,0
DA:56,0
DA:57,0
DA:61,0
DA:62,0
DA:63,0
DA:64,0
DA:68,0
DA:70,0
DA:72,0
DA:77,0
DA:79,0
DA:82,0
DA:84,0
DA:85,0
BRF:0
BRH:0
LF:33
LH:0
end_of_record
SF:/Users/hl/Projects/private/bingo/crates/bingo-calculator/src/calculator.rs
FN:22,_RNvMs_NtCs6Gf3xPIjPY5_16bingo_calculator10calculatorNtB4_10Calculator3new
FN:33,_RNvMs_NtCs6Gf3xPIjPY5_16bingo_calculator10calculatorNtB4_10Calculator9calculate
FN:16,_RNvXNtCs6Gf3xPIjPY5_16bingo_calculator10calculatorNtB2_10CalculatorNtNtCsd2KPTObkMr_4core7default7Default7default
FN:22,_RNvMs_NtCskKeWLi2yIol_16bingo_calculator10calculatorNtB4_10Calculator3new
FN:33,_RNvMs_NtCskKeWLi2yIol_16bingo_calculator10calculatorNtB4_10Calculator9calculate
FN:16,_RNvXNtCskKeWLi2yIol_16bingo_calculator10calculatorNtB2_10CalculatorNtNtCsd2KPTObkMr_4core7default7Default7default
FNDA:8,_RNvMs_NtCs6Gf3xPIjPY5_16bingo_calculator10calculatorNtB4_10Calculator3new
FNDA:0,_RNvMs_NtCs6Gf3xPIjPY5_16bingo_calculator10calculatorNtB4_10Calculator9calculate
FNDA:0,_RNvXNtCs6Gf3xPIjPY5_16bingo_calculator10calculatorNtB2_10CalculatorNtNtCsd2KPTObkMr_4core7default7Default7default
FNDA:0,_RNvMs_NtCskKeWLi2yIol_16bingo_calculator10calculatorNtB4_10Calculator3new
FNDA:0,_RNvMs_NtCskKeWLi2yIol_16bingo_calculator10calculatorNtB4_10Calculator9calculate
FNDA:0,_RNvXNtCskKeWLi2yIol_16bingo_calculator10calculatorNtB2_10CalculatorNtNtCsd2KPTObkMr_4core7default7Default7default
FNF:3
FNH:1
DA:16,0
DA:17,0
DA:18,0
DA:22,8
DA:23,8
DA:24,8
DA:25,8
DA:26,8
DA:27,8
DA:28,8
DA:29,8
DA:30,8
DA:31,8
DA:33,0
DA:34,0
DA:35,0
DA:36,0
DA:37,0
DA:38,0
DA:39,0
DA:41,0
DA:43,0
BRF:0
BRH:0
LF:22
LH:10
end_of_record
SF:/Users/hl/Projects/private/bingo/crates/bingo-calculator/src/limit_validator.rs
FN:10,_RNvXNtCskKeWLi2yIol_16bingo_calculator15limit_validatorNtB2_23LimitValidateCalculatorNtNtB4_6plugin16CalculatorPlugin4name
FN:14,_RNvXNtCskKeWLi2yIol_16bingo_calculator15limit_validatorNtB2_23LimitValidateCalculatorNtNtB4_6plugin16CalculatorPlugin9calculate
FNDA:0,_RNvXNtCskKeWLi2yIol_16bingo_calculator15limit_validatorNtB2_23LimitValidateCalculatorNtNtB4_6plugin16CalculatorPlugin4name
FNDA:0,_RNvXNtCskKeWLi2yIol_16bingo_calculator15limit_validatorNtB2_23LimitValidateCalculatorNtNtB4_6plugin16CalculatorPlugin9calculate
FNF:2
FNH:0
DA:10,0
DA:11,0
DA:12,0
DA:14,0
DA:15,0
DA:16,0
DA:17,0
DA:18,0
DA:20,0
DA:21,0
DA:22,0
DA:23,0
DA:25,0
DA:26,0
DA:27,0
DA:28,0
DA:31,0
DA:32,0
DA:34,0
DA:36,0
BRF:0
BRH:0
LF:20
LH:0
end_of_record
SF:/Users/hl/Projects/private/bingo/crates/bingo-calculator/src/plugin_manager.rs
FN:23,_RNvMs_NtCs6Gf3xPIjPY5_16bingo_calculator14plugin_managerNtB4_13PluginManager3get
FN:15,_RNvMs_NtCs6Gf3xPIjPY5_16bingo_calculator14plugin_managerNtB4_13PluginManager3new
FN:19,_RNvMs_NtCs6Gf3xPIjPY5_16bingo_calculator14plugin_managerNtB4_13PluginManager8register
FN:9,_RNvXNtCs6Gf3xPIjPY5_16bingo_calculator14plugin_managerNtB2_13PluginManagerNtNtCsd2KPTObkMr_4core7default7Default7default
FN:24,_RNCNvMs_NtCs6Gf3xPIjPY5_16bingo_calculator14plugin_managerNtB6_13PluginManager3get0B8_
FN:24,_RNCNvMs_NtCskKeWLi2yIol_16bingo_calculator14plugin_managerNtB6_13PluginManager3get0B8_
FN:23,_RNvMs_NtCskKeWLi2yIol_16bingo_calculator14plugin_managerNtB4_13PluginManager3get
FN:15,_RNvMs_NtCskKeWLi2yIol_16bingo_calculator14plugin_managerNtB4_13PluginManager3new
FN:19,_RNvMs_NtCskKeWLi2yIol_16bingo_calculator14plugin_managerNtB4_13PluginManager8register
FN:9,_RNvXNtCskKeWLi2yIol_16bingo_calculator14plugin_managerNtB2_13PluginManagerNtNtCsd2KPTObkMr_4core7default7Default7default
FNDA:0,_RNvMs_NtCs6Gf3xPIjPY5_16bingo_calculator14plugin_managerNtB4_13PluginManager3get
FNDA:8,_RNvMs_NtCs6Gf3xPIjPY5_16bingo_calculator14plugin_managerNtB4_13PluginManager3new
FNDA:48,_RNvMs_NtCs6Gf3xPIjPY5_16bingo_calculator14plugin_managerNtB4_13PluginManager8register
FNDA:0,_RNvXNtCs6Gf3xPIjPY5_16bingo_calculator14plugin_managerNtB2_13PluginManagerNtNtCsd2KPTObkMr_4core7default7Default7default
FNDA:0,_RNCNvMs_NtCs6Gf3xPIjPY5_16bingo_calculator14plugin_managerNtB6_13PluginManager3get0B8_
FNDA:0,_RNCNvMs_NtCskKeWLi2yIol_16bingo_calculator14plugin_managerNtB6_13PluginManager3get0B8_
FNDA:0,_RNvMs_NtCskKeWLi2yIol_16bingo_calculator14plugin_managerNtB4_13PluginManager3get
FNDA:0,_RNvMs_NtCskKeWLi2yIol_16bingo_calculator14plugin_managerNtB4_13PluginManager3new
FNDA:0,_RNvMs_NtCskKeWLi2yIol_16bingo_calculator14plugin_managerNtB4_13PluginManager8register
FNDA:0,_RNvXNtCskKeWLi2yIol_16bingo_calculator14plugin_managerNtB2_13PluginManagerNtNtCsd2KPTObkMr_4core7default7Default7default
FNF:5
FNH:2
DA:9,0
DA:10,0
DA:11,0
DA:15,8
DA:16,8
DA:17,8
DA:19,48
DA:20,48
DA:21,48
DA:23,0
DA:24,0
DA:25,0
BRF:0
BRH:0
LF:13
LH:6
end_of_record
SF:/Users/hl/Projects/private/bingo/crates/bingo-calculator/src/threshold_check.rs
FN:10,_RNvXNtCskKeWLi2yIol_16bingo_calculator15threshold_checkNtB2_24ThresholdCheckCalculatorNtNtB4_6plugin16CalculatorPlugin4name
FN:14,_RNvXNtCskKeWLi2yIol_16bingo_calculator15threshold_checkNtB2_24ThresholdCheckCalculatorNtNtB4_6plugin16CalculatorPlugin9calculate
FNDA:0,_RNvXNtCskKeWLi2yIol_16bingo_calculator15threshold_checkNtB2_24ThresholdCheckCalculatorNtNtB4_6plugin16CalculatorPlugin4name
FNDA:0,_RNvXNtCskKeWLi2yIol_16bingo_calculator15threshold_checkNtB2_24ThresholdCheckCalculatorNtNtB4_6plugin16CalculatorPlugin9calculate
FNF:2
FNH:0
DA:10,0
DA:11,0
DA:12,0
DA:14,0
DA:15,0
DA:16,0
DA:17,0
DA:18,0
DA:20,0
DA:21,0
DA:22,0
DA:23,0
DA:26,0
DA:27,0
DA:29,0
DA:31,0
BRF:0
BRH:0
LF:16
LH:0
end_of_record
SF:/Users/hl/Projects/private/bingo/crates/bingo-core/src/aggregation.rs
FN:177,_RNCNCNvMNtCs6Pl1wmeKPjF_10bingo_core11aggregationNtB6_14FactAggregator17apply_aggregation00B8_
FN:45,_RNCNvMNtCs6Pl1wmeKPjF_10bingo_core11aggregationNtB4_14FactAggregator15aggregate_facts0B6_
FN:169,_RNCNvMNtCs6Pl1wmeKPjF_10bingo_core11aggregationNtB4_14FactAggregator17apply_aggregation0B6_
FN:209,_RNCNvMNtCs6Pl1wmeKPjF_10bingo_core11aggregationNtB4_14FactAggregator17apply_aggregations0_0B6_
FN:218,_RNCNvMNtCs6Pl1wmeKPjF_10bingo_core11aggregationNtB4_14FactAggregator17apply_aggregations1_0B6_
FN:225,_RNCNvMNtCs6Pl1wmeKPjF_10bingo_core11aggregationNtB4_14FactAggregator17apply_aggregations2_0B6_
FN:204,_RNCNvMNtCs6Pl1wmeKPjF_10bingo_core11aggregationNtB4_14FactAggregator17apply_aggregations_0B6_
FN:260,_RNCNvMNtCs6Pl1wmeKPjF_10bingo_core11aggregationNtB4_14FactAggregator18evaluate_condition0B6_
FN:263,_RNCNvMNtCs6Pl1wmeKPjF_10bingo_core11aggregationNtB4_14FactAggregator18evaluate_conditions_0B6_
FN:332,_RNvMNtCs6Pl1wmeKPjF_10bingo_core11aggregationNtB2_14FactAggregator11clear_cache
FN:99,_RNvMNtCs6Pl1wmeKPjF_10bingo_core11aggregationNtB2_14FactAggregator11group_facts
FN:29,_RNvMNtCs6Pl1wmeKPjF_10bingo_core11aggregationNtB2_14FactAggregator15aggregate_facts
FN:156,_RNvMNtCs6Pl1wmeKPjF_10bingo_core11aggregationNtB2_14FactAggregator17apply_aggregation
FN:249,_RNvMNtCs6Pl1wmeKPjF_10bingo_core11aggregationNtB2_14FactAggregator18evaluate_condition
FN:119,_RNvMNtCs6Pl1wmeKPjF_10bingo_core11aggregationNtB2_14FactAggregator18generate_group_key
FN:237,_RNvMNtCs6Pl1wmeKPjF_10bingo_core11aggregationNtB2_14FactAggregator21extract_numeric_value
FN:283,_RNvMNtCs6Pl1wmeKPjF_10bingo_core11aggregationNtB2_14FactAggregator25evaluate_simple_condition
FN:23,_RNvMNtCs6Pl1wmeKPjF_10bingo_core11aggregationNtB2_14FactAggregator3new
FN:375,_RNvMs0_NtCs6Pl1wmeKPjF_10bingo_core11aggregationNtB5_17AggregationResult7to_fact
FN:338,_RNvXs_NtCs6Pl1wmeKPjF_10bingo_core11aggregationNtB4_14FactAggregatorNtNtCsd2KPTObkMr_4core7default7Default7default
FN:452,_RNCNvNtNtCscF0MZJB4Qop_10bingo_core11aggregation5testss_22test_basic_aggregation0B7_
FN:332,_RNvMNtCscF0MZJB4Qop_10bingo_core11aggregationNtB2_14FactAggregator11clear_cache
FN:375,_RNvMs0_NtCscF0MZJB4Qop_10bingo_core11aggregationNtB5_17AggregationResult7to_fact
FN:338,_RNvXs_NtCscF0MZJB4Qop_10bingo_core11aggregationNtB4_14FactAggregatorNtNtCsd2KPTObkMr_4core7default7Default7default
FN:414,_RNvNtNtCscF0MZJB4Qop_10bingo_core11aggregation5tests16create_test_fact
FN:430,_RNvNtNtCscF0MZJB4Qop_10bingo_core11aggregation5testss_22test_basic_aggregation
FN:459,_RNvNtNtCscF0MZJB4Qop_10bingo_core11aggregation5testss_25test_filtered_aggregation
FN:99,_RNvMNtCscF0MZJB4Qop_10bingo_core11aggregationNtB2_14FactAggregator11group_facts
FN:29,_RNvMNtCscF0MZJB4Qop_10bingo_core11aggregationNtB2_14FactAggregator15aggregate_facts
FN:156,_RNvMNtCscF0MZJB4Qop_10bingo_core11aggregationNtB2_14FactAggregator17apply_aggregation
FN:249,_RNvMNtCscF0MZJB4Qop_10bingo_core11aggregationNtB2_14FactAggregator18evaluate_condition
FN:119,_RNvMNtCscF0MZJB4Qop_10bingo_core11aggregationNtB2_14FactAggregator18generate_group_key
FN:237,_RNvMNtCscF0MZJB4Qop_10bingo_core11aggregationNtB2_14FactAggregator21extract_numeric_value
FN:283,_RNvMNtCscF0MZJB4Qop_10bingo_core11aggregationNtB2_14FactAggregator25evaluate_simple_condition
FN:23,_RNvMNtCscF0MZJB4Qop_10bingo_core11aggregationNtB2_14FactAggregator3new
FN:177,_RNCNCNvMNtCscF0MZJB4Qop_10bingo_core11aggregationNtB6_14FactAggregator17apply_aggregation00B8_
FN:45,_RNCNvMNtCscF0MZJB4Qop_10bingo_core11aggregationNtB4_14FactAggregator15aggregate_facts0B6_
FN:169,_RNCNvMNtCscF0MZJB4Qop_10bingo_core11aggregationNtB4_14FactAggregator17apply_aggregation0B6_
FN:209,_RNCNvMNtCscF0MZJB4Qop_10bingo_core11aggregationNtB4_14FactAggregator17apply_aggregations0_0B6_
FN:218,_RNCNvMNtCscF0MZJB4Qop_10bingo_core11aggregationNtB4_14FactAggregator17apply_aggregations1_0B6_
FN:225,_RNCNvMNtCscF0MZJB4Qop_10bingo_core11aggregationNtB4_14FactAggregator17apply_aggregations2_0B6_
FN:204,_RNCNvMNtCscF0MZJB4Qop_10bingo_core11aggregationNtB4_14FactAggregator17apply_aggregations_0B6_
FN:260,_RNCNvMNtCscF0MZJB4Qop_10bingo_core11aggregationNtB4_14FactAggregator18evaluate_condition0B6_
FN:263,_RNCNvMNtCscF0MZJB4Qop_10bingo_core11aggregationNtB4_14FactAggregator18evaluate_conditions_0B6_
FNDA:0,_RNCNCNvMNtCs6Pl1wmeKPjF_10bingo_core11aggregationNtB6_14FactAggregator17apply_aggregation00B8_
FNDA:0,_RNCNvMNtCs6Pl1wmeKPjF_10bingo_core11aggregationNtB4_14FactAggregator15aggregate_facts0B6_
FNDA:0,_RNCNvMNtCs6Pl1wmeKPjF_10bingo_core11aggregationNtB4_14FactAggregator17apply_aggregation0B6_
FNDA:0,_RNCNvMNtCs6Pl1wmeKPjF_10bingo_core11aggregationNtB4_14FactAggregator17apply_aggregations0_0B6_
FNDA:0,_RNCNvMNtCs6Pl1wmeKPjF_10bingo_core11aggregationNtB4_14FactAggregator17apply_aggregations1_0B6_
FNDA:0,_RNCNvMNtCs6Pl1wmeKPjF_10bingo_core11aggregationNtB4_14FactAggregator17apply_aggregations2_0B6_
FNDA:0,_RNCNvMNtCs6Pl1wmeKPjF_10bingo_core11aggregationNtB4_14FactAggregator17apply_aggregations_0B6_
FNDA:0,_RNCNvMNtCs6Pl1wmeKPjF_10bingo_core11aggregationNtB4_14FactAggregator18evaluate_condition0B6_
FNDA:0,_RNCNvMNtCs6Pl1wmeKPjF_10bingo_core11aggregationNtB4_14FactAggregator18evaluate_conditions_0B6_
FNDA:0,_RNvMNtCs6Pl1wmeKPjF_10bingo_core11aggregationNtB2_14FactAggregator11clear_cache
FNDA:0,_RNvMNtCs6Pl1wmeKPjF_10bingo_core11aggregationNtB2_14FactAggregator11group_facts
FNDA:0,_RNvMNtCs6Pl1wmeKPjF_10bingo_core11aggregationNtB2_14FactAggregator15aggregate_facts
FNDA:0,_RNvMNtCs6Pl1wmeKPjF_10bingo_core11aggregationNtB2_14FactAggregator17apply_aggregation
FNDA:0,_RNvMNtCs6Pl1wmeKPjF_10bingo_core11aggregationNtB2_14FactAggregator18evaluate_condition
FNDA:0,_RNvMNtCs6Pl1wmeKPjF_10bingo_core11aggregationNtB2_14FactAggregator18generate_group_key
FNDA:0,_RNvMNtCs6Pl1wmeKPjF_10bingo_core11aggregationNtB2_14FactAggregator21extract_numeric_value
FNDA:0,_RNvMNtCs6Pl1wmeKPjF_10bingo_core11aggregationNtB2_14FactAggregator25evaluate_simple_condition
FNDA:0,_RNvMNtCs6Pl1wmeKPjF_10bingo_core11aggregationNtB2_14FactAggregator3new
FNDA:0,_RNvMs0_NtCs6Pl1wmeKPjF_10bingo_core11aggregationNtB5_17AggregationResult7to_fact
FNDA:0,_RNvXs_NtCs6Pl1wmeKPjF_10bingo_core11aggregationNtB4_14FactAggregatorNtNtCsd2KPTObkMr_4core7default7Default7default
FNDA:2,_RNCNvNtNtCscF0MZJB4Qop_10bingo_core11aggregation5testss_22test_basic_aggregation0B7_
FNDA:0,_RNvMNtCscF0MZJB4Qop_10bingo_core11aggregationNtB2_14FactAggregator11clear_cache
FNDA:0,_RNvMs0_NtCscF0MZJB4Qop_10bingo_core11aggregationNtB5_17AggregationResult7to_fact
FNDA:0,_RNvXs_NtCscF0MZJB4Qop_10bingo_core11aggregationNtB4_14FactAggregatorNtNtCsd2KPTObkMr_4core7default7Default7default
FNDA:6,_RNvNtNtCscF0MZJB4Qop_10bingo_core11aggregation5tests16create_test_fact
FNDA:1,_RNvNtNtCscF0MZJB4Qop_10bingo_core11aggregation5testss_22test_basic_aggregation
FNDA:1,_RNvNtNtCscF0MZJB4Qop_10bingo_core11aggregation5testss_25test_filtered_aggregation
FNDA:2,_RNvMNtCscF0MZJB4Qop_10bingo_core11aggregationNtB2_14FactAggregator11group_facts
FNDA:2,_RNvMNtCscF0MZJB4Qop_10bingo_core11aggregationNtB2_14FactAggregator15aggregate_facts
FNDA:4,_RNvMNtCscF0MZJB4Qop_10bingo_core11aggregationNtB2_14FactAggregator17apply_aggregation
FNDA:3,_RNvMNtCscF0MZJB4Qop_10bingo_core11aggregationNtB2_14FactAggregator18evaluate_condition
FNDA:6,_RNvMNtCscF0MZJB4Qop_10bingo_core11aggregationNtB2_14FactAggregator18generate_group_key
FNDA:6,_RNvMNtCscF0MZJB4Qop_10bingo_core11aggregationNtB2_14FactAggregator21extract_numeric_value
FNDA:3,_RNvMNtCscF0MZJB4Qop_10bingo_core11aggregationNtB2_14FactAggregator25evaluate_simple_condition
FNDA:2,_RNvMNtCscF0MZJB4Qop_10bingo_core11aggregationNtB2_14FactAggregator3new
FNDA:6,_RNCNCNvMNtCscF0MZJB4Qop_10bingo_core11aggregationNtB6_14FactAggregator17apply_aggregation00B8_
FNDA:3,_RNCNvMNtCscF0MZJB4Qop_10bingo_core11aggregationNtB4_14FactAggregator15aggregate_facts0B6_
FNDA:6,_RNCNvMNtCscF0MZJB4Qop_10bingo_core11aggregationNtB4_14FactAggregator17apply_aggregation0B6_
FNDA:0,_RNCNvMNtCscF0MZJB4Qop_10bingo_core11aggregationNtB4_14FactAggregator17apply_aggregations0_0B6_
FNDA:0,_RNCNvMNtCscF0MZJB4Qop_10bingo_core11aggregationNtB4_14FactAggregator17apply_aggregations1_0B6_
FNDA:0,_RNCNvMNtCscF0MZJB4Qop_10bingo_core11aggregationNtB4_14FactAggregator17apply_aggregations2_0B6_
FNDA:0,_RNCNvMNtCscF0MZJB4Qop_10bingo_core11aggregationNtB4_14FactAggregator17apply_aggregations_0B6_
FNDA:0,_RNCNvMNtCscF0MZJB4Qop_10bingo_core11aggregationNtB4_14FactAggregator18evaluate_condition0B6_
FNDA:0,_RNCNvMNtCscF0MZJB4Qop_10bingo_core11aggregationNtB4_14FactAggregator18evaluate_conditions_0B6_
FNF:24
FNH:15
DA:23,2
DA:24,2
DA:25,2
DA:29,2
DA:30,2
DA:31,2
DA:32,2
DA:33,2
DA:34,2
DA:35,0
DA:36,0
DA:38,0
DA:42,2
DA:43,1
DA:44,1
DA:45,3
DA:46,1
DA:48,1
DA:52,2
DA:55,2
DA:56,6
DA:57,4
DA:58,4
DA:59,4
DA:60,4
DA:61,0
DA:63,4
DA:64,4
DA:65,4
DA:66,4
DA:67,4
DA:68,4
DA:69,4
DA:71,4
DA:74,2
DA:75,0
DA:76,0
DA:77,0
DA:80,2
DA:81,2
DA:99,2
DA:100,2
DA:101,2
DA:102,2
DA:103,2
DA:104,2
DA:107,8
DA:109,6
DA:112,6
DA:115,2
DA:116,2
DA:119,6
DA:120,6
DA:122,12
DA:123,6
DA:124,6
DA:126,0
DA:127,6
DA:130,6
DA:131,6
DA:156,4
DA:157,4
DA:158,4
DA:159,4
DA:160,4
DA:161,4
DA:162,4
DA:163,0
DA:164,4
DA:167,4
DA:168,4
DA:169,6
DA:170,6
DA:171,6
DA:172,6
DA:173,6
DA:174,6
DA:177,6
DA:178,6
DA:179,4
DA:181,4
DA:183,4
DA:184,0
DA:185,4
DA:188,4
DA:191,4
DA:195,0
DA:199,0
DA:200,0
DA:204,0
DA:205,0
DA:209,0
DA:210,0
DA:215,0
DA:217,0
DA:218,0
DA:220,0
DA:222,0
DA:224,0
DA:225,0
DA:228,0
DA:229,0
DA:233,4
DA:234,4
DA:237,6
DA:238,6
DA:239,0
DA:240,6
DA:241,0
DA:242,0
DA:244,0
DA:246,6
DA:249,3
DA:250,3
DA:251,3
DA:252,3
DA:253,3
DA:254,3
DA:256,0
DA:259,0
DA:260,0
DA:261,0
DA:262,0
DA:263,0
DA:264,0
DA:265,0
DA:268,0
DA:269,0
DA:271,0
DA:277,0
DA:280,3
DA:283,3
DA:284,3
DA:285,3
DA:286,3
DA:287,3
DA:288,3
DA:289,3
DA:290,3
DA:291,0
DA:293,0
DA:296,0
DA:299,0
DA:300,0
DA:301,0
DA:304,0
DA:305,0
DA:309,0
DA:310,0
DA:311,0
DA:316,0
DA:317,0
DA:318,0
DA:323,0
DA:324,0
DA:325,0
DA:329,3
DA:332,0
DA:333,0
DA:334,0
DA:338,0
DA:339,0
DA:340,0
DA:375,0
DA:376,0
DA:379,0
DA:382,0
DA:383,0
DA:384,0
DA:386,0
DA:387,0
DA:388,0
DA:390,0
DA:391,0
DA:392,0
DA:394,0
DA:395,0
DA:396,0
DA:399,0
DA:400,0
DA:401,0
DA:402,0
DA:403,0
DA:404,0
DA:405,0
DA:406,0
DA:414,6
DA:415,6
DA:416,6
DA:417,6
DA:418,6
DA:420,6
DA:421,6
DA:422,6
DA:423,6
DA:426,6
DA:427,6
DA:430,1
DA:431,1
DA:433,1
DA:434,1
DA:435,1
DA:436,1
DA:439,1
DA:440,1
DA:441,1
DA:442,1
DA:443,1
DA:444,1
DA:445,1
DA:447,1
DA:449,1
DA:452,2
DA:454,1
DA:455,1
DA:456,1
DA:459,1
DA:460,1
DA:462,1
DA:463,1
DA:464,1
DA:465,1
DA:469,1
DA:470,1
DA:471,1
DA:472,1
DA:473,1
DA:475,1
DA:476,1
DA:477,1
DA:478,1
DA:479,1
DA:480,1
DA:481,1
DA:483,1
DA:485,1
DA:486,1
BRF:0
BRH:0
LF:247
LH:153
end_of_record
SF:/Users/hl/Projects/private/bingo/crates/bingo-core/src/alpha_memory.rs
FN:66,_RNvMNtCs6Pl1wmeKPjF_10bingo_core12alpha_memoryNtB2_11FactPattern12matches_fact
FN:75,_RNvMNtCs6Pl1wmeKPjF_10bingo_core12alpha_memoryNtB2_11FactPattern13matches_value
FN:44,_RNvMNtCs6Pl1wmeKPjF_10bingo_core12alpha_memoryNtB2_11FactPattern14from_condition
FN:61,_RNvMNtCs6Pl1wmeKPjF_10bingo_core12alpha_memoryNtB2_11FactPattern6to_key
FN:451,_RNvMs0_NtCs6Pl1wmeKPjF_10bingo_core12alpha_memoryNtB5_18AlphaMemoryManager14get_statistics
FN:395,_RNvMs0_NtCs6Pl1wmeKPjF_10bingo_core12alpha_memoryNtB5_18AlphaMemoryManager16get_alpha_memory
FN:381,_RNvMs0_NtCs6Pl1wmeKPjF_10bingo_core12alpha_memoryNtB5_18AlphaMemoryManager20process_fact_removal
FN:465,_RNvMs0_NtCs6Pl1wmeKPjF_10bingo_core12alpha_memoryNtB5_18AlphaMemoryManager21estimate_memory_usage
FN:312,_RNvMs0_NtCs6Pl1wmeKPjF_10bingo_core12alpha_memoryNtB5_18AlphaMemoryManager21process_fact_addition
FN:545,_RNvMs0_NtCs6Pl1wmeKPjF_10bingo_core12alpha_memoryNtB5_18AlphaMemoryManager22get_optimization_stats
FN:422,_RNvMs0_NtCs6Pl1wmeKPjF_10bingo_core12alpha_memoryNtB5_18AlphaMemoryManager23cleanup_unused_memories
FN:401,_RNvMs0_NtCs6Pl1wmeKPjF_10bingo_core12alpha_memoryNtB5_18AlphaMemoryManager23get_alpha_memory_by_key
FN:489,_RNvMs0_NtCs6Pl1wmeKPjF_10bingo_core12alpha_memoryNtB5_18AlphaMemoryManager24add_to_optimized_indexes
FN:415,_RNvMs0_NtCs6Pl1wmeKPjF_10bingo_core12alpha_memoryNtB5_18AlphaMemoryManager24register_rule_dependency
FN:286,_RNvMs0_NtCs6Pl1wmeKPjF_10bingo_core12alpha_memoryNtB5_18AlphaMemoryManager26get_or_create_alpha_memory
FN:534,_RNvMs0_NtCs6Pl1wmeKPjF_10bingo_core12alpha_memoryNtB5_18AlphaMemoryManager27get_pattern_frequency_stats
FN:406,_RNvMs0_NtCs6Pl1wmeKPjF_10bingo_core12alpha_memoryNtB5_18AlphaMemoryManager28get_alpha_memories_for_field
FN:271,_RNvMs0_NtCs6Pl1wmeKPjF_10bingo_core12alpha_memoryNtB5_18AlphaMemoryManager3new
FN:188,_RNvMs_NtCs6Pl1wmeKPjF_10bingo_core12alpha_memoryNtB4_11AlphaMemory11remove_fact
FN:208,_RNvMs_NtCs6Pl1wmeKPjF_10bingo_core12alpha_memoryNtB4_11AlphaMemory18add_dependent_rule
FN:197,_RNvMs_NtCs6Pl1wmeKPjF_10bingo_core12alpha_memoryNtB4_11AlphaMemory18get_matching_facts
FN:166,_RNvMs_NtCs6Pl1wmeKPjF_10bingo_core12alpha_memoryNtB4_11AlphaMemory3new
FN:203,_RNvMs_NtCs6Pl1wmeKPjF_10bingo_core12alpha_memoryNtB4_11AlphaMemory5count
FN:179,_RNvMs_NtCs6Pl1wmeKPjF_10bingo_core12alpha_memoryNtB4_11AlphaMemory8add_fact
FN:218,_RNvMs_NtCs6Pl1wmeKPjF_10bingo_core12alpha_memoryNtB4_11AlphaMemory9get_stats
FN:213,_RNvMs_NtCs6Pl1wmeKPjF_10bingo_core12alpha_memoryNtB4_11AlphaMemory9is_needed
FN:584,_RNvXs1_NtCs6Pl1wmeKPjF_10bingo_core12alpha_memoryNtB5_18AlphaMemoryManagerNtNtCsd2KPTObkMr_4core7default7Default7default
FN:611,_RNvXs2_NtCs6Pl1wmeKPjF_10bingo_core12alpha_memoryNtB5_23AlphaMemoryManagerStatsNtNtCsd2KPTObkMr_4core3fmt7Display3fmt
FN:549,_RNCNCNvMs0_NtCs6Pl1wmeKPjF_10bingo_core12alpha_memoryNtB9_18AlphaMemoryManager22get_optimization_stats00Bb_
FN:556,_RNCNCNvMs0_NtCs6Pl1wmeKPjF_10bingo_core12alpha_memoryNtB9_18AlphaMemoryManager22get_optimization_statss_00Bb_
FN:120,_RNCNvMNtCs6Pl1wmeKPjF_10bingo_core12alpha_memoryNtB4_11FactPattern13matches_value0B6_
FN:453,_RNCNvMs0_NtCs6Pl1wmeKPjF_10bingo_core12alpha_memoryNtB7_18AlphaMemoryManager14get_statistics0B9_
FN:482,_RNCNvMs0_NtCs6Pl1wmeKPjF_10bingo_core12alpha_memoryNtB7_18AlphaMemoryManager21estimate_memory_usage0B9_
FN:549,_RNCNvMs0_NtCs6Pl1wmeKPjF_10bingo_core12alpha_memoryNtB7_18AlphaMemoryManager22get_optimization_stats0B9_
FN:555,_RNCNvMs0_NtCs6Pl1wmeKPjF_10bingo_core12alpha_memoryNtB7_18AlphaMemoryManager22get_optimization_statss_0B9_
FN:437,_RNCNvMs0_NtCs6Pl1wmeKPjF_10bingo_core12alpha_memoryNtB7_18AlphaMemoryManager23cleanup_unused_memories0B9_
FN:510,_RNCNvMs0_NtCs6Pl1wmeKPjF_10bingo_core12alpha_memoryNtB7_18AlphaMemoryManager24add_to_optimized_indexes0B9_
FN:538,_RNCNvMs0_NtCs6Pl1wmeKPjF_10bingo_core12alpha_memoryNtB7_18AlphaMemoryManager27get_pattern_frequency_stats0B9_
FN:540,_RNCNvMs0_NtCs6Pl1wmeKPjF_10bingo_core12alpha_memoryNtB7_18AlphaMemoryManager27get_pattern_frequency_statss_0B9_
FN:408,_RNCNvMs0_NtCs6Pl1wmeKPjF_10bingo_core12alpha_memoryNtB7_18AlphaMemoryManager28get_alpha_memories_for_field0B9_
FN:626,_RNCNvXs2_NtCs6Pl1wmeKPjF_10bingo_core12alpha_memoryNtB7_23AlphaMemoryManagerStatsNtNtCsd2KPTObkMr_4core3fmt7Display3fmt0B9_
FN:549,_RNCNCNvMs0_NtCscF0MZJB4Qop_10bingo_core12alpha_memoryNtB9_18AlphaMemoryManager22get_optimization_stats00Bb_
FN:556,_RNCNCNvMs0_NtCscF0MZJB4Qop_10bingo_core12alpha_memoryNtB9_18AlphaMemoryManager22get_optimization_statss_00Bb_
FN:482,_RNCNvMs0_NtCscF0MZJB4Qop_10bingo_core12alpha_memoryNtB7_18AlphaMemoryManager21estimate_memory_usage0B9_
FN:549,_RNCNvMs0_NtCscF0MZJB4Qop_10bingo_core12alpha_memoryNtB7_18AlphaMemoryManager22get_optimization_stats0B9_
FN:555,_RNCNvMs0_NtCscF0MZJB4Qop_10bingo_core12alpha_memoryNtB7_18AlphaMemoryManager22get_optimization_statss_0B9_
FN:538,_RNCNvMs0_NtCscF0MZJB4Qop_10bingo_core12alpha_memoryNtB7_18AlphaMemoryManager27get_pattern_frequency_stats0B9_
FN:540,_RNCNvMs0_NtCscF0MZJB4Qop_10bingo_core12alpha_memoryNtB7_18AlphaMemoryManager27get_pattern_frequency_statss_0B9_
FN:408,_RNCNvMs0_NtCscF0MZJB4Qop_10bingo_core12alpha_memoryNtB7_18AlphaMemoryManager28get_alpha_memories_for_field0B9_
FN:626,_RNCNvXs2_NtCscF0MZJB4Qop_10bingo_core12alpha_memoryNtB7_23AlphaMemoryManagerStatsNtNtCsd2KPTObkMr_4core3fmt7Display3fmt0B9_
FN:381,_RNvMs0_NtCscF0MZJB4Qop_10bingo_core12alpha_memoryNtB5_18AlphaMemoryManager20process_fact_removal
FN:465,_RNvMs0_NtCscF0MZJB4Qop_10bingo_core12alpha_memoryNtB5_18AlphaMemoryManager21estimate_memory_usage
FN:545,_RNvMs0_NtCscF0MZJB4Qop_10bingo_core12alpha_memoryNtB5_18AlphaMemoryManager22get_optimization_stats
FN:415,_RNvMs0_NtCscF0MZJB4Qop_10bingo_core12alpha_memoryNtB5_18AlphaMemoryManager24register_rule_dependency
FN:534,_RNvMs0_NtCscF0MZJB4Qop_10bingo_core12alpha_memoryNtB5_18AlphaMemoryManager27get_pattern_frequency_stats
FN:406,_RNvMs0_NtCscF0MZJB4Qop_10bingo_core12alpha_memoryNtB5_18AlphaMemoryManager28get_alpha_memories_for_field
FN:197,_RNvMs_NtCscF0MZJB4Qop_10bingo_core12alpha_memoryNtB4_11AlphaMemory18get_matching_facts
FN:584,_RNvXs1_NtCscF0MZJB4Qop_10bingo_core12alpha_memoryNtB5_18AlphaMemoryManagerNtNtCsd2KPTObkMr_4core7default7Default7default
FN:611,_RNvXs2_NtCscF0MZJB4Qop_10bingo_core12alpha_memoryNtB5_23AlphaMemoryManagerStatsNtNtCsd2KPTObkMr_4core3fmt7Display3fmt
FN:648,_RNvNtNtCscF0MZJB4Qop_10bingo_core12alpha_memory5tests16create_test_fact
FN:676,_RNvNtNtCscF0MZJB4Qop_10bingo_core12alpha_memory5testss_21test_pattern_matching
FN:757,_RNvNtNtCscF0MZJB4Qop_10bingo_core12alpha_memory5testss_25test_alpha_memory_cleanup
FN:712,_RNvNtNtCscF0MZJB4Qop_10bingo_core12alpha_memory5testss_25test_alpha_memory_manager
FN:662,_RNvNtNtCscF0MZJB4Qop_10bingo_core12alpha_memory5testss_26test_fact_pattern_creation
FN:743,_RNvNtNtCscF0MZJB4Qop_10bingo_core12alpha_memory5testss_27test_pattern_key_generation
FN:691,_RNvNtNtCscF0MZJB4Qop_10bingo_core12alpha_memory5testss_34test_alpha_memory_basic_operations
FN:120,_RNCNvMNtCscF0MZJB4Qop_10bingo_core12alpha_memoryNtB4_11FactPattern13matches_value0B6_
FN:453,_RNCNvMs0_NtCscF0MZJB4Qop_10bingo_core12alpha_memoryNtB7_18AlphaMemoryManager14get_statistics0B9_
FN:437,_RNCNvMs0_NtCscF0MZJB4Qop_10bingo_core12alpha_memoryNtB7_18AlphaMemoryManager23cleanup_unused_memories0B9_
FN:510,_RNCNvMs0_NtCscF0MZJB4Qop_10bingo_core12alpha_memoryNtB7_18AlphaMemoryManager24add_to_optimized_indexes0B9_
FN:66,_RNvMNtCscF0MZJB4Qop_10bingo_core12alpha_memoryNtB2_11FactPattern12matches_fact
FN:75,_RNvMNtCscF0MZJB4Qop_10bingo_core12alpha_memoryNtB2_11FactPattern13matches_value
FN:44,_RNvMNtCscF0MZJB4Qop_10bingo_core12alpha_memoryNtB2_11FactPattern14from_condition
FN:61,_RNvMNtCscF0MZJB4Qop_10bingo_core12alpha_memoryNtB2_11FactPattern6to_key
FN:451,_RNvMs0_NtCscF0MZJB4Qop_10bingo_core12alpha_memoryNtB5_18AlphaMemoryManager14get_statistics
FN:395,_RNvMs0_NtCscF0MZJB4Qop_10bingo_core12alpha_memoryNtB5_18AlphaMemoryManager16get_alpha_memory
FN:312,_RNvMs0_NtCscF0MZJB4Qop_10bingo_core12alpha_memoryNtB5_18AlphaMemoryManager21process_fact_addition
FN:422,_RNvMs0_NtCscF0MZJB4Qop_10bingo_core12alpha_memoryNtB5_18AlphaMemoryManager23cleanup_unused_memories
FN:401,_RNvMs0_NtCscF0MZJB4Qop_10bingo_core12alpha_memoryNtB5_18AlphaMemoryManager23get_alpha_memory_by_key
FN:489,_RNvMs0_NtCscF0MZJB4Qop_10bingo_core12alpha_memoryNtB5_18AlphaMemoryManager24add_to_optimized_indexes
FN:286,_RNvMs0_NtCscF0MZJB4Qop_10bingo_core12alpha_memoryNtB5_18AlphaMemoryManager26get_or_create_alpha_memory
FN:271,_RNvMs0_NtCscF0MZJB4Qop_10bingo_core12alpha_memoryNtB5_18AlphaMemoryManager3new
FN:188,_RNvMs_NtCscF0MZJB4Qop_10bingo_core12alpha_memoryNtB4_11AlphaMemory11remove_fact
FN:208,_RNvMs_NtCscF0MZJB4Qop_10bingo_core12alpha_memoryNtB4_11AlphaMemory18add_dependent_rule
FN:166,_RNvMs_NtCscF0MZJB4Qop_10bingo_core12alpha_memoryNtB4_11AlphaMemory3new
FN:203,_RNvMs_NtCscF0MZJB4Qop_10bingo_core12alpha_memoryNtB4_11AlphaMemory5count
FN:179,_RNvMs_NtCscF0MZJB4Qop_10bingo_core12alpha_memoryNtB4_11AlphaMemory8add_fact
FN:218,_RNvMs_NtCscF0MZJB4Qop_10bingo_core12alpha_memoryNtB4_11AlphaMemory9get_stats
FN:213,_RNvMs_NtCscF0MZJB4Qop_10bingo_core12alpha_memoryNtB4_11AlphaMemory9is_needed
FNDA:0,_RNvMNtCs6Pl1wmeKPjF_10bingo_core12alpha_memoryNtB2_11FactPattern12matches_fact
FNDA:0,_RNvMNtCs6Pl1wmeKPjF_10bingo_core12alpha_memoryNtB2_11FactPattern13matches_value
FNDA:0,_RNvMNtCs6Pl1wmeKPjF_10bingo_core12alpha_memoryNtB2_11FactPattern14from_condition
FNDA:0,_RNvMNtCs6Pl1wmeKPjF_10bingo_core12alpha_memoryNtB2_11FactPattern6to_key
FNDA:0,_RNvMs0_NtCs6Pl1wmeKPjF_10bingo_core12alpha_memoryNtB5_18AlphaMemoryManager14get_statistics
FNDA:0,_RNvMs0_NtCs6Pl1wmeKPjF_10bingo_core12alpha_memoryNtB5_18AlphaMemoryManager16get_alpha_memory
FNDA:0,_RNvMs0_NtCs6Pl1wmeKPjF_10bingo_core12alpha_memoryNtB5_18AlphaMemoryManager20process_fact_removal
FNDA:0,_RNvMs0_NtCs6Pl1wmeKPjF_10bingo_core12alpha_memoryNtB5_18AlphaMemoryManager21estimate_memory_usage
FNDA:0,_RNvMs0_NtCs6Pl1wmeKPjF_10bingo_core12alpha_memoryNtB5_18AlphaMemoryManager21process_fact_addition
FNDA:0,_RNvMs0_NtCs6Pl1wmeKPjF_10bingo_core12alpha_memoryNtB5_18AlphaMemoryManager22get_optimization_stats
FNDA:0,_RNvMs0_NtCs6Pl1wmeKPjF_10bingo_core12alpha_memoryNtB5_18AlphaMemoryManager23cleanup_unused_memories
FNDA:0,_RNvMs0_NtCs6Pl1wmeKPjF_10bingo_core12alpha_memoryNtB5_18AlphaMemoryManager23get_alpha_memory_by_key
FNDA:0,_RNvMs0_NtCs6Pl1wmeKPjF_10bingo_core12alpha_memoryNtB5_18AlphaMemoryManager24add_to_optimized_indexes
FNDA:0,_RNvMs0_NtCs6Pl1wmeKPjF_10bingo_core12alpha_memoryNtB5_18AlphaMemoryManager24register_rule_dependency
FNDA:0,_RNvMs0_NtCs6Pl1wmeKPjF_10bingo_core12alpha_memoryNtB5_18AlphaMemoryManager26get_or_create_alpha_memory
FNDA:0,_RNvMs0_NtCs6Pl1wmeKPjF_10bingo_core12alpha_memoryNtB5_18AlphaMemoryManager27get_pattern_frequency_stats
FNDA:0,_RNvMs0_NtCs6Pl1wmeKPjF_10bingo_core12alpha_memoryNtB5_18AlphaMemoryManager28get_alpha_memories_for_field
FNDA:0,_RNvMs0_NtCs6Pl1wmeKPjF_10bingo_core12alpha_memoryNtB5_18AlphaMemoryManager3new
FNDA:0,_RNvMs_NtCs6Pl1wmeKPjF_10bingo_core12alpha_memoryNtB4_11AlphaMemory11remove_fact
FNDA:0,_RNvMs_NtCs6Pl1wmeKPjF_10bingo_core12alpha_memoryNtB4_11AlphaMemory18add_dependent_rule
FNDA:0,_RNvMs_NtCs6Pl1wmeKPjF_10bingo_core12alpha_memoryNtB4_11AlphaMemory18get_matching_facts
FNDA:0,_RNvMs_NtCs6Pl1wmeKPjF_10bingo_core12alpha_memoryNtB4_11AlphaMemory3new
FNDA:0,_RNvMs_NtCs6Pl1wmeKPjF_10bingo_core12alpha_memoryNtB4_11AlphaMemory5count
FNDA:0,_RNvMs_NtCs6Pl1wmeKPjF_10bingo_core12alpha_memoryNtB4_11AlphaMemory8add_fact
FNDA:0,_RNvMs_NtCs6Pl1wmeKPjF_10bingo_core12alpha_memoryNtB4_11AlphaMemory9get_stats
FNDA:0,_RNvMs_NtCs6Pl1wmeKPjF_10bingo_core12alpha_memoryNtB4_11AlphaMemory9is_needed
FNDA:0,_RNvXs1_NtCs6Pl1wmeKPjF_10bingo_core12alpha_memoryNtB5_18AlphaMemoryManagerNtNtCsd2KPTObkMr_4core7default7Default7default
FNDA:0,_RNvXs2_NtCs6Pl1wmeKPjF_10bingo_core12alpha_memoryNtB5_23AlphaMemoryManagerStatsNtNtCsd2KPTObkMr_4core3fmt7Display3fmt
FNDA:0,_RNCNCNvMs0_NtCs6Pl1wmeKPjF_10bingo_core12alpha_memoryNtB9_18AlphaMemoryManager22get_optimization_stats00Bb_
FNDA:0,_RNCNCNvMs0_NtCs6Pl1wmeKPjF_10bingo_core12alpha_memoryNtB9_18AlphaMemoryManager22get_optimization_statss_00Bb_
FNDA:0,_RNCNvMNtCs6Pl1wmeKPjF_10bingo_core12alpha_memoryNtB4_11FactPattern13matches_value0B6_
FNDA:0,_RNCNvMs0_NtCs6Pl1wmeKPjF_10bingo_core12alpha_memoryNtB7_18AlphaMemoryManager14get_statistics0B9_
FNDA:0,_RNCNvMs0_NtCs6Pl1wmeKPjF_10bingo_core12alpha_memoryNtB7_18AlphaMemoryManager21estimate_memory_usage0B9_
FNDA:0,_RNCNvMs0_NtCs6Pl1wmeKPjF_10bingo_core12alpha_memoryNtB7_18AlphaMemoryManager22get_optimization_stats0B9_
FNDA:0,_RNCNvMs0_NtCs6Pl1wmeKPjF_10bingo_core12alpha_memoryNtB7_18AlphaMemoryManager22get_optimization_statss_0B9_
FNDA:0,_RNCNvMs0_NtCs6Pl1wmeKPjF_10bingo_core12alpha_memoryNtB7_18AlphaMemoryManager23cleanup_unused_memories0B9_
FNDA:0,_RNCNvMs0_NtCs6Pl1wmeKPjF_10bingo_core12alpha_memoryNtB7_18AlphaMemoryManager24add_to_optimized_indexes0B9_
FNDA:0,_RNCNvMs0_NtCs6Pl1wmeKPjF_10bingo_core12alpha_memoryNtB7_18AlphaMemoryManager27get_pattern_frequency_stats0B9_
FNDA:0,_RNCNvMs0_NtCs6Pl1wmeKPjF_10bingo_core12alpha_memoryNtB7_18AlphaMemoryManager27get_pattern_frequency_statss_0B9_
FNDA:0,_RNCNvMs0_NtCs6Pl1wmeKPjF_10bingo_core12alpha_memoryNtB7_18AlphaMemoryManager28get_alpha_memories_for_field0B9_
FNDA:0,_RNCNvXs2_NtCs6Pl1wmeKPjF_10bingo_core12alpha_memoryNtB7_23AlphaMemoryManagerStatsNtNtCsd2KPTObkMr_4core3fmt7Display3fmt0B9_
FNDA:0,_RNCNCNvMs0_NtCscF0MZJB4Qop_10bingo_core12alpha_memoryNtB9_18AlphaMemoryManager22get_optimization_stats00Bb_
FNDA:0,_RNCNCNvMs0_NtCscF0MZJB4Qop_10bingo_core12alpha_memoryNtB9_18AlphaMemoryManager22get_optimization_statss_00Bb_
FNDA:0,_RNCNvMs0_NtCscF0MZJB4Qop_10bingo_core12alpha_memoryNtB7_18AlphaMemoryManager21estimate_memory_usage0B9_
FNDA:0,_RNCNvMs0_NtCscF0MZJB4Qop_10bingo_core12alpha_memoryNtB7_18AlphaMemoryManager22get_optimization_stats0B9_
FNDA:0,_RNCNvMs0_NtCscF0MZJB4Qop_10bingo_core12alpha_memoryNtB7_18AlphaMemoryManager22get_optimization_statss_0B9_
FNDA:0,_RNCNvMs0_NtCscF0MZJB4Qop_10bingo_core12alpha_memoryNtB7_18AlphaMemoryManager27get_pattern_frequency_stats0B9_
FNDA:0,_RNCNvMs0_NtCscF0MZJB4Qop_10bingo_core12alpha_memoryNtB7_18AlphaMemoryManager27get_pattern_frequency_statss_0B9_
FNDA:0,_RNCNvMs0_NtCscF0MZJB4Qop_10bingo_core12alpha_memoryNtB7_18AlphaMemoryManager28get_alpha_memories_for_field0B9_
FNDA:0,_RNCNvXs2_NtCscF0MZJB4Qop_10bingo_core12alpha_memoryNtB7_23AlphaMemoryManagerStatsNtNtCsd2KPTObkMr_4core3fmt7Display3fmt0B9_
FNDA:0,_RNvMs0_NtCscF0MZJB4Qop_10bingo_core12alpha_memoryNtB5_18AlphaMemoryManager20process_fact_removal
FNDA:0,_RNvMs0_NtCscF0MZJB4Qop_10bingo_core12alpha_memoryNtB5_18AlphaMemoryManager21estimate_memory_usage
FNDA:0,_RNvMs0_NtCscF0MZJB4Qop_10bingo_core12alpha_memoryNtB5_18AlphaMemoryManager22get_optimization_stats
FNDA:0,_RNvMs0_NtCscF0MZJB4Qop_10bingo_core12alpha_memoryNtB5_18AlphaMemoryManager24register_rule_dependency
FNDA:0,_RNvMs0_NtCscF0MZJB4Qop_10bingo_core12alpha_memoryNtB5_18AlphaMemoryManager27get_pattern_frequency_stats
FNDA:0,_RNvMs0_NtCscF0MZJB4Qop_10bingo_core12alpha_memoryNtB5_18AlphaMemoryManager28get_alpha_memories_for_field
FNDA:0,_RNvMs_NtCscF0MZJB4Qop_10bingo_core12alpha_memoryNtB4_11AlphaMemory18get_matching_facts
FNDA:0,_RNvXs1_NtCscF0MZJB4Qop_10bingo_core12alpha_memoryNtB5_18AlphaMemoryManagerNtNtCsd2KPTObkMr_4core7default7Default7default
FNDA:0,_RNvXs2_NtCscF0MZJB4Qop_10bingo_core12alpha_memoryNtB5_23AlphaMemoryManagerStatsNtNtCsd2KPTObkMr_4core3fmt7Display3fmt
FNDA:4,_RNvNtNtCscF0MZJB4Qop_10bingo_core12alpha_memory5tests16create_test_fact
FNDA:1,_RNvNtNtCscF0MZJB4Qop_10bingo_core12alpha_memory5testss_21test_pattern_matching
FNDA:1,_RNvNtNtCscF0MZJB4Qop_10bingo_core12alpha_memory5testss_25test_alpha_memory_cleanup
FNDA:1,_RNvNtNtCscF0MZJB4Qop_10bingo_core12alpha_memory5testss_25test_alpha_memory_manager
FNDA:1,_RNvNtNtCscF0MZJB4Qop_10bingo_core12alpha_memory5testss_26test_fact_pattern_creation
FNDA:1,_RNvNtNtCscF0MZJB4Qop_10bingo_core12alpha_memory5testss_27test_pattern_key_generation
FNDA:1,_RNvNtNtCscF0MZJB4Qop_10bingo_core12alpha_memory5testss_34test_alpha_memory_basic_operations
FNDA:0,_RNCNvMNtCscF0MZJB4Qop_10bingo_core12alpha_memoryNtB4_11FactPattern13matches_value0B6_
FNDA:4,_RNCNvMs0_NtCscF0MZJB4Qop_10bingo_core12alpha_memoryNtB7_18AlphaMemoryManager14get_statistics0B9_
FNDA:1,_RNCNvMs0_NtCscF0MZJB4Qop_10bingo_core12alpha_memoryNtB7_18AlphaMemoryManager23cleanup_unused_memories0B9_
FNDA:0,_RNCNvMs0_NtCscF0MZJB4Qop_10bingo_core12alpha_memoryNtB7_18AlphaMemoryManager24add_to_optimized_indexes0B9_
FNDA:829,_RNvMNtCscF0MZJB4Qop_10bingo_core12alpha_memoryNtB2_11FactPattern12matches_fact
FNDA:29,_RNvMNtCscF0MZJB4Qop_10bingo_core12alpha_memoryNtB2_11FactPattern13matches_value
FNDA:13,_RNvMNtCscF0MZJB4Qop_10bingo_core12alpha_memoryNtB2_11FactPattern14from_condition
FNDA:21,_RNvMNtCscF0MZJB4Qop_10bingo_core12alpha_memoryNtB2_11FactPattern6to_key
FNDA:1,_RNvMs0_NtCscF0MZJB4Qop_10bingo_core12alpha_memoryNtB5_18AlphaMemoryManager14get_statistics
FNDA:1,_RNvMs0_NtCscF0MZJB4Qop_10bingo_core12alpha_memoryNtB5_18AlphaMemoryManager16get_alpha_memory
FNDA:222,_RNvMs0_NtCscF0MZJB4Qop_10bingo_core12alpha_memoryNtB5_18AlphaMemoryManager21process_fact_addition
FNDA:2,_RNvMs0_NtCscF0MZJB4Qop_10bingo_core12alpha_memoryNtB5_18AlphaMemoryManager23cleanup_unused_memories
FNDA:8,_RNvMs0_NtCscF0MZJB4Qop_10bingo_core12alpha_memoryNtB5_18AlphaMemoryManager23get_alpha_memory_by_key
FNDA:10,_RNvMs0_NtCscF0MZJB4Qop_10bingo_core12alpha_memoryNtB5_18AlphaMemoryManager24add_to_optimized_indexes
FNDA:19,_RNvMs0_NtCscF0MZJB4Qop_10bingo_core12alpha_memoryNtB5_18AlphaMemoryManager26get_or_create_alpha_memory
FNDA:13,_RNvMs0_NtCscF0MZJB4Qop_10bingo_core12alpha_memoryNtB5_18AlphaMemoryManager3new
FNDA:2,_RNvMs_NtCscF0MZJB4Qop_10bingo_core12alpha_memoryNtB4_11AlphaMemory11remove_fact
FNDA:13,_RNvMs_NtCscF0MZJB4Qop_10bingo_core12alpha_memoryNtB4_11AlphaMemory18add_dependent_rule
FNDA:11,_RNvMs_NtCscF0MZJB4Qop_10bingo_core12alpha_memoryNtB4_11AlphaMemory3new
FNDA:2,_RNvMs_NtCscF0MZJB4Qop_10bingo_core12alpha_memoryNtB4_11AlphaMemory5count
FNDA:17,_RNvMs_NtCscF0MZJB4Qop_10bingo_core12alpha_memoryNtB4_11AlphaMemory8add_fact
FNDA:4,_RNvMs_NtCscF0MZJB4Qop_10bingo_core12alpha_memoryNtB4_11AlphaMemory9get_stats
FNDA:2,_RNvMs_NtCscF0MZJB4Qop_10bingo_core12alpha_memoryNtB4_11AlphaMemory9is_needed
FNF:48
FNH:28
DA:44,13
DA:45,13
DA:46,13
DA:47,13
DA:48,13
DA:49,13
DA:50,13
DA:56,0
DA:58,13
DA:61,21
DA:62,21
DA:63,21
DA:66,829
DA:67,829
DA:68,29
DA:70,800
DA:72,829
DA:75,29
DA:76,29
DA:77,1
DA:78,0
DA:80,28
DA:81,28
DA:83,28
DA:85,0
DA:89,0
DA:90,0
DA:92,0
DA:94,0
DA:98,0
DA:99,0
DA:101,0
DA:103,0
DA:107,0
DA:108,0
DA:110,0
DA:112,0
DA:115,0
DA:116,0
DA:117,0
DA:119,0
DA:120,0
DA:122,0
DA:124,0
DA:125,0
DA:126,0
DA:128,0
DA:130,0
DA:131,0
DA:132,0
DA:134,0
DA:137,29
DA:166,11
DA:167,11
DA:168,11
DA:169,11
DA:170,11
DA:171,11
DA:172,11
DA:173,11
DA:174,11
DA:175,11
DA:176,11
DA:179,17
DA:180,17
DA:181,17
DA:182,16
DA:183,16
DA:184,17
DA:185,17
DA:188,2
DA:189,2
DA:190,2
DA:191,1
DA:192,1
DA:193,2
DA:194,2
DA:197,0
DA:198,0
DA:199,0
DA:200,0
DA:203,2
DA:204,2
DA:205,2
DA:208,13
DA:209,13
DA:210,13
DA:213,2
DA:214,2
DA:215,2
DA:218,4
DA:219,4
DA:220,4
DA:221,4
DA:222,4
DA:223,4
DA:224,4
DA:225,4
DA:226,4
DA:227,4
DA:271,13
DA:272,13
DA:273,13
DA:274,13
DA:275,13
DA:276,13
DA:277,13
DA:278,13
DA:279,13
DA:280,13
DA:281,13
DA:282,13
DA:286,19
DA:287,19
DA:289,19
DA:290,10
DA:292,10
DA:293,10
DA:296,10
DA:297,10
DA:298,10
DA:299,10
DA:302,10
DA:304,10
DA:305,9
DA:307,19
DA:308,19
DA:312,222
DA:313,222
DA:314,222
DA:317,666
DA:319,444
DA:320,2
DA:321,2
DA:323,1
DA:325,1
DA:326,1
DA:327,1
DA:328,1
DA:329,1
DA:330,0
DA:331,0
DA:333,1
DA:334,442
DA:337,444
DA:338,20
DA:339,40
DA:340,40
DA:342,20
DA:344,20
DA:345,20
DA:346,14
DA:348,14
DA:349,14
DA:350,14
DA:351,0
DA:354,6
DA:355,0
DA:358,0
DA:359,424
DA:363,1044
DA:364,822
DA:366,807
DA:368,807
DA:369,0
DA:370,0
DA:371,0
DA:372,807
DA:373,15
DA:376,222
DA:377,222
DA:381,0
DA:382,0
DA:384,0
DA:385,0
DA:386,0
DA:387,0
DA:388,0
DA:391,0
DA:392,0
DA:395,1
DA:396,1
DA:397,1
DA:398,1
DA:401,8
DA:402,8
DA:403,8
DA:406,0
DA:407,0
DA:408,0
DA:410,0
DA:412,0
DA:415,0
DA:416,0
DA:417,0
DA:418,0
DA:419,0
DA:422,2
DA:423,2
DA:424,2
DA:426,4
DA:427,2
DA:428,1
DA:429,1
DA:432,3
DA:433,1
DA:435,1
DA:437,1
DA:438,1
DA:439,1
DA:440,1
DA:441,0
DA:442,1
DA:443,0
DA:446,2
DA:447,2
DA:448,2
DA:451,1
DA:452,1
DA:453,4
DA:455,1
DA:456,1
DA:457,1
DA:458,1
DA:459,1
DA:460,1
DA:461,1
DA:462,1
DA:465,0
DA:466,0
DA:469,0
DA:472,0
DA:473,0
DA:474,0
DA:475,0
DA:476,0
DA:477,0
DA:480,0
DA:481,0
DA:482,0
DA:485,0
DA:486,0
DA:489,10
DA:490,10
DA:491,1
DA:492,1
DA:493,1
DA:494,1
DA:495,1
DA:496,1
DA:497,1
DA:498,1
DA:499,1
DA:505,9
DA:506,9
DA:509,9
DA:510,9
DA:511,0
DA:512,0
DA:513,9
DA:515,9
DA:516,0
DA:517,0
DA:518,0
DA:519,0
DA:520,9
DA:521,9
DA:522,9
DA:523,9
DA:524,0
DA:526,0
DA:527,0
DA:528,0
DA:529,0
DA:531,10
DA:534,0
DA:535,0
DA:536,0
DA:537,0
DA:538,0
DA:539,0
DA:540,0
DA:541,0
DA:542,0
DA:545,0
DA:546,0
DA:547,0
DA:548,0
DA:549,0
DA:550,0
DA:552,0
DA:553,0
DA:554,0
DA:555,0
DA:556,0
DA:557,0
DA:558,0
DA:560,0
DA:561,0
DA:562,0
DA:565,0
DA:566,0
DA:567,0
DA:568,0
DA:569,0
DA:570,0
DA:572,0
DA:574,0
DA:575,0
DA:576,0
DA:577,0
DA:578,0
DA:580,0
DA:584,0
DA:585,0
DA:586,0
DA:611,0
DA:612,0
DA:613,0
DA:614,0
DA:615,0
DA:616,0
DA:618,0
DA:619,0
DA:620,0
DA:621,0
DA:622,0
DA:624,0
DA:625,0
DA:626,0
DA:628,0
DA:629,0
DA:630,0
DA:631,0
DA:632,0
DA:633,0
DA:636,0
DA:639,0
DA:640,0
DA:648,4
DA:649,4
DA:650,4
DA:651,4
DA:653,4
DA:654,4
DA:655,4
DA:656,4
DA:657,4
DA:658,4
DA:659,4
DA:662,1
DA:663,1
DA:664,1
DA:665,1
DA:666,1
DA:667,1
DA:669,1
DA:670,1
DA:671,1
DA:672,1
DA:673,1
DA:676,1
DA:677,1
DA:678,1
DA:679,1
DA:680,1
DA:681,1
DA:683,1
DA:684,1
DA:686,1
DA:687,1
DA:688,1
DA:691,1
DA:692,1
DA:693,1
DA:694,1
DA:695,1
DA:696,1
DA:698,1
DA:701,1
DA:702,1
DA:703,1
DA:706,1
DA:707,1
DA:708,1
DA:709,1
DA:712,1
DA:713,1
DA:715,1
DA:716,1
DA:717,1
DA:718,1
DA:719,1
DA:721,1
DA:722,1
DA:723,1
DA:724,1
DA:725,1
DA:728,1
DA:729,1
DA:732,1
DA:733,1
DA:735,1
DA:736,1
DA:738,1
DA:739,1
DA:740,1
DA:743,1
DA:744,1
DA:745,1
DA:746,1
DA:747,1
DA:748,1
DA:750,1
DA:751,1
DA:752,1
DA:753,1
DA:754,1
DA:757,1
DA:758,1
DA:760,1
DA:761,1
DA:762,1
DA:763,1
DA:764,1
DA:767,1
DA:768,1
DA:769,1
DA:770,1
DA:773,1
DA:776,1
DA:777,1
DA:778,1
DA:779,1
DA:780,1
DA:781,1
BRF:0
BRH:0
LF:449
LH:287
end_of_record
SF:/Users/hl/Projects/private/bingo/crates/bingo-core/src/beta_network.rs
FN:95,_RNCNvMNtCs6Pl1wmeKPjF_10bingo_core12beta_networkNtB4_5Token6to_key0B6_
FN:836,_RNCNvMs5_NtCs6Pl1wmeKPjF_10bingo_core12beta_networkNtB7_18BetaNetworkManager14get_statistics0B9_
FN:842,_RNCNvMs5_NtCs6Pl1wmeKPjF_10bingo_core12beta_networkNtB7_18BetaNetworkManager14get_statisticss0_0B9_
FN:839,_RNCNvMs5_NtCs6Pl1wmeKPjF_10bingo_core12beta_networkNtB7_18BetaNetworkManager14get_statisticss_0B9_
FN:827,_RNCNvMs5_NtCs6Pl1wmeKPjF_10bingo_core12beta_networkNtB7_18BetaNetworkManager17get_network_state0B9_
FN:764,_RNCNvMs5_NtCs6Pl1wmeKPjF_10bingo_core12beta_networkNtB7_18BetaNetworkManager30retract_tokens_containing_fact0B9_
FN:765,_RNCNvMs5_NtCs6Pl1wmeKPjF_10bingo_core12beta_networkNtB7_18BetaNetworkManager30retract_tokens_containing_facts_0B9_
FN:933,_RNCNvXs7_NtCs6Pl1wmeKPjF_10bingo_core12beta_networkNtB7_16BetaNetworkStatsNtNtCsd2KPTObkMr_4core3fmt7Display3fmt0B9_
FN:78,_RNvMNtCs6Pl1wmeKPjF_10bingo_core12beta_networkNtB2_5Token11is_complete
FN:86,_RNvMNtCs6Pl1wmeKPjF_10bingo_core12beta_networkNtB2_5Token22get_fact_for_condition
FN:51,_RNvMNtCs6Pl1wmeKPjF_10bingo_core12beta_networkNtB2_5Token3new
FN:65,_RNvMNtCs6Pl1wmeKPjF_10bingo_core12beta_networkNtB2_5Token6extend
FN:91,_RNvMNtCs6Pl1wmeKPjF_10bingo_core12beta_networkNtB2_5Token6to_key
FN:257,_RNvMs0_NtCs6Pl1wmeKPjF_10bingo_core12beta_networkNtB5_8JoinNode12perform_join
FN:252,_RNvMs0_NtCs6Pl1wmeKPjF_10bingo_core12beta_networkNtB5_8JoinNode13add_join_test
FN:279,_RNvMs0_NtCs6Pl1wmeKPjF_10bingo_core12beta_networkNtB5_8JoinNode19get_alpha_memory_id
FN:284,_RNvMs0_NtCs6Pl1wmeKPjF_10bingo_core12beta_networkNtB5_8JoinNode19get_condition_index
FN:242,_RNvMs0_NtCs6Pl1wmeKPjF_10bingo_core12beta_networkNtB5_8JoinNode3new
FN:304,_RNvMs1_NtCs6Pl1wmeKPjF_10bingo_core12beta_networkNtB5_8JoinTest3new
FN:314,_RNvMs1_NtCs6Pl1wmeKPjF_10bingo_core12beta_networkNtB5_8JoinTest8evaluate
FN:361,_RNvMs2_NtCs6Pl1wmeKPjF_10bingo_core12beta_networkNtB5_12JoinOperator7compare
FN:443,_RNvMs3_NtCs6Pl1wmeKPjF_10bingo_core12beta_networkNtB5_10BetaMemory10get_tokens
FN:459,_RNvMs3_NtCs6Pl1wmeKPjF_10bingo_core12beta_networkNtB5_10BetaMemory11token_count
FN:433,_RNvMs3_NtCs6Pl1wmeKPjF_10bingo_core12beta_networkNtB5_10BetaMemory12remove_token
FN:453,_RNvMs3_NtCs6Pl1wmeKPjF_10bingo_core12beta_networkNtB5_10BetaMemory14contains_token
FN:469,_RNvMs3_NtCs6Pl1wmeKPjF_10bingo_core12beta_networkNtB5_10BetaMemory17record_activation
FN:418,_RNvMs3_NtCs6Pl1wmeKPjF_10bingo_core12beta_networkNtB5_10BetaMemory3new
FN:464,_RNvMs3_NtCs6Pl1wmeKPjF_10bingo_core12beta_networkNtB5_10BetaMemory5clear
FN:423,_RNvMs3_NtCs6Pl1wmeKPjF_10bingo_core12beta_networkNtB5_10BetaMemory9add_token
FN:474,_RNvMs3_NtCs6Pl1wmeKPjF_10bingo_core12beta_networkNtB5_10BetaMemory9get_stats
FN:448,_RNvMs3_NtCs6Pl1wmeKPjF_10bingo_core12beta_networkNtB5_10BetaMemory9get_token
FN:588,_RNvMs5_NtCs6Pl1wmeKPjF_10bingo_core12beta_networkNtB5_18BetaNetworkManager13connect_nodes
FN:606,_RNvMs5_NtCs6Pl1wmeKPjF_10bingo_core12beta_networkNtB5_18BetaNetworkManager13process_token
FN:834,_RNvMs5_NtCs6Pl1wmeKPjF_10bingo_core12beta_networkNtB5_18BetaNetworkManager14get_statistics
FN:856,_RNvMs5_NtCs6Pl1wmeKPjF_10bingo_core12beta_networkNtB5_18BetaNetworkManager16clear_all_tokens
FN:565,_RNvMs5_NtCs6Pl1wmeKPjF_10bingo_core12beta_networkNtB5_18BetaNetworkManager16create_join_node
FN:552,_RNvMs5_NtCs6Pl1wmeKPjF_10bingo_core12beta_networkNtB5_18BetaNetworkManager16create_root_node
FN:823,_RNvMs5_NtCs6Pl1wmeKPjF_10bingo_core12beta_networkNtB5_18BetaNetworkManager17get_network_state
FN:736,_RNvMs5_NtCs6Pl1wmeKPjF_10bingo_core12beta_networkNtB5_18BetaNetworkManager17is_token_complete
FN:577,_RNvMs5_NtCs6Pl1wmeKPjF_10bingo_core12beta_networkNtB5_18BetaNetworkManager20create_terminal_node
FN:871,_RNvMs5_NtCs6Pl1wmeKPjF_10bingo_core12beta_networkNtB5_18BetaNetworkManager21estimate_memory_usage
FN:796,_RNvMs5_NtCs6Pl1wmeKPjF_10bingo_core12beta_networkNtB5_18BetaNetworkManager21process_fact_addition
FN:693,_RNvMs5_NtCs6Pl1wmeKPjF_10bingo_core12beta_networkNtB5_18BetaNetworkManager22find_current_beta_node
FN:537,_RNvMs5_NtCs6Pl1wmeKPjF_10bingo_core12beta_networkNtB5_18BetaNetworkManager27with_high_throughput_config
FN:753,_RNvMs5_NtCs6Pl1wmeKPjF_10bingo_core12beta_networkNtB5_18BetaNetworkManager30retract_tokens_containing_fact
FN:711,_RNvMs5_NtCs6Pl1wmeKPjF_10bingo_core12beta_networkNtB5_18BetaNetworkManager31process_token_through_join_node
FN:522,_RNvMs5_NtCs6Pl1wmeKPjF_10bingo_core12beta_networkNtB5_18BetaNetworkManager3new
FN:159,_RNvMs_NtCs6Pl1wmeKPjF_10bingo_core12beta_networkNtB4_8BetaNode10set_parent
FN:186,_RNvMs_NtCs6Pl1wmeKPjF_10bingo_core12beta_networkNtB4_8BetaNode11token_count
FN:191,_RNvMs_NtCs6Pl1wmeKPjF_10bingo_core12beta_networkNtB4_8BetaNode12clear_tokens
FN:174,_RNvMs_NtCs6Pl1wmeKPjF_10bingo_core12beta_networkNtB4_8BetaNode12remove_token
FN:180,_RNvMs_NtCs6Pl1wmeKPjF_10bingo_core12beta_networkNtB4_8BetaNode14contains_token
FN:137,_RNvMs_NtCs6Pl1wmeKPjF_10bingo_core12beta_networkNtB4_8BetaNode3new
FN:152,_RNvMs_NtCs6Pl1wmeKPjF_10bingo_core12beta_networkNtB4_8BetaNode9add_child
FN:164,_RNvMs_NtCs6Pl1wmeKPjF_10bingo_core12beta_networkNtB4_8BetaNode9add_token
FN:196,_RNvMs_NtCs6Pl1wmeKPjF_10bingo_core12beta_networkNtB4_8BetaNode9get_stats
FN:485,_RNvXs4_NtCs6Pl1wmeKPjF_10bingo_core12beta_networkNtB5_10BetaMemoryNtNtCsd2KPTObkMr_4core7default7Default7default
FN:890,_RNvXs6_NtCs6Pl1wmeKPjF_10bingo_core12beta_networkNtB5_18BetaNetworkManagerNtNtCsd2KPTObkMr_4core7default7Default7default
FN:918,_RNvXs7_NtCs6Pl1wmeKPjF_10bingo_core12beta_networkNtB5_16BetaNetworkStatsNtNtCsd2KPTObkMr_4core3fmt7Display3fmt
FN:836,_RNCNvMs5_NtCscF0MZJB4Qop_10bingo_core12beta_networkNtB7_18BetaNetworkManager14get_statistics0B9_
FN:842,_RNCNvMs5_NtCscF0MZJB4Qop_10bingo_core12beta_networkNtB7_18BetaNetworkManager14get_statisticss0_0B9_
FN:839,_RNCNvMs5_NtCscF0MZJB4Qop_10bingo_core12beta_networkNtB7_18BetaNetworkManager14get_statisticss_0B9_
FN:827,_RNCNvMs5_NtCscF0MZJB4Qop_10bingo_core12beta_networkNtB7_18BetaNetworkManager17get_network_state0B9_
FN:764,_RNCNvMs5_NtCscF0MZJB4Qop_10bingo_core12beta_networkNtB7_18BetaNetworkManager30retract_tokens_containing_fact0B9_
FN:765,_RNCNvMs5_NtCscF0MZJB4Qop_10bingo_core12beta_networkNtB7_18BetaNetworkManager30retract_tokens_containing_facts_0B9_
FN:933,_RNCNvXs7_NtCscF0MZJB4Qop_10bingo_core12beta_networkNtB7_16BetaNetworkStatsNtNtCsd2KPTObkMr_4core3fmt7Display3fmt0B9_
FN:78,_RNvMNtCscF0MZJB4Qop_10bingo_core12beta_networkNtB2_5Token11is_complete
FN:252,_RNvMs0_NtCscF0MZJB4Qop_10bingo_core12beta_networkNtB5_8JoinNode13add_join_test
FN:279,_RNvMs0_NtCscF0MZJB4Qop_10bingo_core12beta_networkNtB5_8JoinNode19get_alpha_memory_id
FN:284,_RNvMs0_NtCscF0MZJB4Qop_10bingo_core12beta_networkNtB5_8JoinNode19get_condition_index
FN:443,_RNvMs3_NtCscF0MZJB4Qop_10bingo_core12beta_networkNtB5_10BetaMemory10get_tokens
FN:469,_RNvMs3_NtCscF0MZJB4Qop_10bingo_core12beta_networkNtB5_10BetaMemory17record_activation
FN:464,_RNvMs3_NtCscF0MZJB4Qop_10bingo_core12beta_networkNtB5_10BetaMemory5clear
FN:474,_RNvMs3_NtCscF0MZJB4Qop_10bingo_core12beta_networkNtB5_10BetaMemory9get_stats
FN:448,_RNvMs3_NtCscF0MZJB4Qop_10bingo_core12beta_networkNtB5_10BetaMemory9get_token
FN:834,_RNvMs5_NtCscF0MZJB4Qop_10bingo_core12beta_networkNtB5_18BetaNetworkManager14get_statistics
FN:856,_RNvMs5_NtCscF0MZJB4Qop_10bingo_core12beta_networkNtB5_18BetaNetworkManager16clear_all_tokens
FN:823,_RNvMs5_NtCscF0MZJB4Qop_10bingo_core12beta_networkNtB5_18BetaNetworkManager17get_network_state
FN:871,_RNvMs5_NtCscF0MZJB4Qop_10bingo_core12beta_networkNtB5_18BetaNetworkManager21estimate_memory_usage
FN:796,_RNvMs5_NtCscF0MZJB4Qop_10bingo_core12beta_networkNtB5_18BetaNetworkManager21process_fact_addition
FN:537,_RNvMs5_NtCscF0MZJB4Qop_10bingo_core12beta_networkNtB5_18BetaNetworkManager27with_high_throughput_config
FN:753,_RNvMs5_NtCscF0MZJB4Qop_10bingo_core12beta_networkNtB5_18BetaNetworkManager30retract_tokens_containing_fact
FN:186,_RNvMs_NtCscF0MZJB4Qop_10bingo_core12beta_networkNtB4_8BetaNode11token_count
FN:191,_RNvMs_NtCscF0MZJB4Qop_10bingo_core12beta_networkNtB4_8BetaNode12clear_tokens
FN:174,_RNvMs_NtCscF0MZJB4Qop_10bingo_core12beta_networkNtB4_8BetaNode12remove_token
FN:180,_RNvMs_NtCscF0MZJB4Qop_10bingo_core12beta_networkNtB4_8BetaNode14contains_token
FN:164,_RNvMs_NtCscF0MZJB4Qop_10bingo_core12beta_networkNtB4_8BetaNode9add_token
FN:196,_RNvMs_NtCscF0MZJB4Qop_10bingo_core12beta_networkNtB4_8BetaNode9get_stats
FN:485,_RNvXs4_NtCscF0MZJB4Qop_10bingo_core12beta_networkNtB5_10BetaMemoryNtNtCsd2KPTObkMr_4core7default7Default7default
FN:890,_RNvXs6_NtCscF0MZJB4Qop_10bingo_core12beta_networkNtB5_18BetaNetworkManagerNtNtCsd2KPTObkMr_4core7default7Default7default
FN:918,_RNvXs7_NtCscF0MZJB4Qop_10bingo_core12beta_networkNtB5_16BetaNetworkStatsNtNtCsd2KPTObkMr_4core3fmt7Display3fmt
FN:956,_RNvNtNtCscF0MZJB4Qop_10bingo_core12beta_network5tests16create_test_fact
FN:1089,_RNvNtNtCscF0MZJB4Qop_10bingo_core12beta_network5testss_19test_join_operators
FN:970,_RNvNtNtCscF0MZJB4Qop_10bingo_core12beta_network5testss_19test_token_creation
FN:979,_RNvNtNtCscF0MZJB4Qop_10bingo_core12beta_network5testss_20test_token_extension
FN:991,_RNvNtNtCscF0MZJB4Qop_10bingo_core12beta_network5testss_23test_beta_node_creation
FN:1000,_RNvNtNtCscF0MZJB4Qop_10bingo_core12beta_network5testss_23test_join_node_creation
FN:1060,_RNvNtNtCscF0MZJB4Qop_10bingo_core12beta_network5testss_25test_beta_network_manager
FN:1009,_RNvNtNtCscF0MZJB4Qop_10bingo_core12beta_network5testss_25test_join_test_evaluation
FN:1038,_RNvNtNtCscF0MZJB4Qop_10bingo_core12beta_network5testss_27test_beta_memory_operations
FN:86,_RNvMNtCscF0MZJB4Qop_10bingo_core12beta_networkNtB2_5Token22get_fact_for_condition
FN:51,_RNvMNtCscF0MZJB4Qop_10bingo_core12beta_networkNtB2_5Token3new
FN:65,_RNvMNtCscF0MZJB4Qop_10bingo_core12beta_networkNtB2_5Token6extend
FN:91,_RNvMNtCscF0MZJB4Qop_10bingo_core12beta_networkNtB2_5Token6to_key
FN:257,_RNvMs0_NtCscF0MZJB4Qop_10bingo_core12beta_networkNtB5_8JoinNode12perform_join
FN:242,_RNvMs0_NtCscF0MZJB4Qop_10bingo_core12beta_networkNtB5_8JoinNode3new
FN:304,_RNvMs1_NtCscF0MZJB4Qop_10bingo_core12beta_networkNtB5_8JoinTest3new
FN:314,_RNvMs1_NtCscF0MZJB4Qop_10bingo_core12beta_networkNtB5_8JoinTest8evaluate
FN:361,_RNvMs2_NtCscF0MZJB4Qop_10bingo_core12beta_networkNtB5_12JoinOperator7compare
FN:459,_RNvMs3_NtCscF0MZJB4Qop_10bingo_core12beta_networkNtB5_10BetaMemory11token_count
FN:433,_RNvMs3_NtCscF0MZJB4Qop_10bingo_core12beta_networkNtB5_10BetaMemory12remove_token
FN:453,_RNvMs3_NtCscF0MZJB4Qop_10bingo_core12beta_networkNtB5_10BetaMemory14contains_token
FN:418,_RNvMs3_NtCscF0MZJB4Qop_10bingo_core12beta_networkNtB5_10BetaMemory3new
FN:423,_RNvMs3_NtCscF0MZJB4Qop_10bingo_core12beta_networkNtB5_10BetaMemory9add_token
FN:588,_RNvMs5_NtCscF0MZJB4Qop_10bingo_core12beta_networkNtB5_18BetaNetworkManager13connect_nodes
FN:606,_RNvMs5_NtCscF0MZJB4Qop_10bingo_core12beta_networkNtB5_18BetaNetworkManager13process_token
FN:565,_RNvMs5_NtCscF0MZJB4Qop_10bingo_core12beta_networkNtB5_18BetaNetworkManager16create_join_node
FN:552,_RNvMs5_NtCscF0MZJB4Qop_10bingo_core12beta_networkNtB5_18BetaNetworkManager16create_root_node
FN:736,_RNvMs5_NtCscF0MZJB4Qop_10bingo_core12beta_networkNtB5_18BetaNetworkManager17is_token_complete
FN:577,_RNvMs5_NtCscF0MZJB4Qop_10bingo_core12beta_networkNtB5_18BetaNetworkManager20create_terminal_node
FN:693,_RNvMs5_NtCscF0MZJB4Qop_10bingo_core12beta_networkNtB5_18BetaNetworkManager22find_current_beta_node
FN:711,_RNvMs5_NtCscF0MZJB4Qop_10bingo_core12beta_networkNtB5_18BetaNetworkManager31process_token_through_join_node
FN:522,_RNvMs5_NtCscF0MZJB4Qop_10bingo_core12beta_networkNtB5_18BetaNetworkManager3new
FN:159,_RNvMs_NtCscF0MZJB4Qop_10bingo_core12beta_networkNtB4_8BetaNode10set_parent
FN:137,_RNvMs_NtCscF0MZJB4Qop_10bingo_core12beta_networkNtB4_8BetaNode3new
FN:152,_RNvMs_NtCscF0MZJB4Qop_10bingo_core12beta_networkNtB4_8BetaNode9add_child
FN:95,_RNCNvMNtCscF0MZJB4Qop_10bingo_core12beta_networkNtB4_5Token6to_key0B6_
FNDA:0,_RNCNvMNtCs6Pl1wmeKPjF_10bingo_core12beta_networkNtB4_5Token6to_key0B6_
FNDA:0,_RNCNvMs5_NtCs6Pl1wmeKPjF_10bingo_core12beta_networkNtB7_18BetaNetworkManager14get_statistics0B9_
FNDA:0,_RNCNvMs5_NtCs6Pl1wmeKPjF_10bingo_core12beta_networkNtB7_18BetaNetworkManager14get_statisticss0_0B9_
FNDA:0,_RNCNvMs5_NtCs6Pl1wmeKPjF_10bingo_core12beta_networkNtB7_18BetaNetworkManager14get_statisticss_0B9_
FNDA:0,_RNCNvMs5_NtCs6Pl1wmeKPjF_10bingo_core12beta_networkNtB7_18BetaNetworkManager17get_network_state0B9_
FNDA:0,_RNCNvMs5_NtCs6Pl1wmeKPjF_10bingo_core12beta_networkNtB7_18BetaNetworkManager30retract_tokens_containing_fact0B9_
FNDA:0,_RNCNvMs5_NtCs6Pl1wmeKPjF_10bingo_core12beta_networkNtB7_18BetaNetworkManager30retract_tokens_containing_facts_0B9_
FNDA:0,_RNCNvXs7_NtCs6Pl1wmeKPjF_10bingo_core12beta_networkNtB7_16BetaNetworkStatsNtNtCsd2KPTObkMr_4core3fmt7Display3fmt0B9_
FNDA:0,_RNvMNtCs6Pl1wmeKPjF_10bingo_core12beta_networkNtB2_5Token11is_complete
FNDA:0,_RNvMNtCs6Pl1wmeKPjF_10bingo_core12beta_networkNtB2_5Token22get_fact_for_condition
FNDA:0,_RNvMNtCs6Pl1wmeKPjF_10bingo_core12beta_networkNtB2_5Token3new
FNDA:0,_RNvMNtCs6Pl1wmeKPjF_10bingo_core12beta_networkNtB2_5Token6extend
FNDA:0,_RNvMNtCs6Pl1wmeKPjF_10bingo_core12beta_networkNtB2_5Token6to_key
FNDA:0,_RNvMs0_NtCs6Pl1wmeKPjF_10bingo_core12beta_networkNtB5_8JoinNode12perform_join
FNDA:0,_RNvMs0_NtCs6Pl1wmeKPjF_10bingo_core12beta_networkNtB5_8JoinNode13add_join_test
FNDA:0,_RNvMs0_NtCs6Pl1wmeKPjF_10bingo_core12beta_networkNtB5_8JoinNode19get_alpha_memory_id
FNDA:0,_RNvMs0_NtCs6Pl1wmeKPjF_10bingo_core12beta_networkNtB5_8JoinNode19get_condition_index
FNDA:0,_RNvMs0_NtCs6Pl1wmeKPjF_10bingo_core12beta_networkNtB5_8JoinNode3new
FNDA:0,_RNvMs1_NtCs6Pl1wmeKPjF_10bingo_core12beta_networkNtB5_8JoinTest3new
FNDA:0,_RNvMs1_NtCs6Pl1wmeKPjF_10bingo_core12beta_networkNtB5_8JoinTest8evaluate
FNDA:0,_RNvMs2_NtCs6Pl1wmeKPjF_10bingo_core12beta_networkNtB5_12JoinOperator7compare
FNDA:0,_RNvMs3_NtCs6Pl1wmeKPjF_10bingo_core12beta_networkNtB5_10BetaMemory10get_tokens
FNDA:0,_RNvMs3_NtCs6Pl1wmeKPjF_10bingo_core12beta_networkNtB5_10BetaMemory11token_count
FNDA:0,_RNvMs3_NtCs6Pl1wmeKPjF_10bingo_core12beta_networkNtB5_10BetaMemory12remove_token
FNDA:0,_RNvMs3_NtCs6Pl1wmeKPjF_10bingo_core12beta_networkNtB5_10BetaMemory14contains_token
FNDA:0,_RNvMs3_NtCs6Pl1wmeKPjF_10bingo_core12beta_networkNtB5_10BetaMemory17record_activation
FNDA:0,_RNvMs3_NtCs6Pl1wmeKPjF_10bingo_core12beta_networkNtB5_10BetaMemory3new
FNDA:0,_RNvMs3_NtCs6Pl1wmeKPjF_10bingo_core12beta_networkNtB5_10BetaMemory5clear
FNDA:0,_RNvMs3_NtCs6Pl1wmeKPjF_10bingo_core12beta_networkNtB5_10BetaMemory9add_token
FNDA:0,_RNvMs3_NtCs6Pl1wmeKPjF_10bingo_core12beta_networkNtB5_10BetaMemory9get_stats
FNDA:0,_RNvMs3_NtCs6Pl1wmeKPjF_10bingo_core12beta_networkNtB5_10BetaMemory9get_token
FNDA:0,_RNvMs5_NtCs6Pl1wmeKPjF_10bingo_core12beta_networkNtB5_18BetaNetworkManager13connect_nodes
FNDA:0,_RNvMs5_NtCs6Pl1wmeKPjF_10bingo_core12beta_networkNtB5_18BetaNetworkManager13process_token
FNDA:0,_RNvMs5_NtCs6Pl1wmeKPjF_10bingo_core12beta_networkNtB5_18BetaNetworkManager14get_statistics
FNDA:0,_RNvMs5_NtCs6Pl1wmeKPjF_10bingo_core12beta_networkNtB5_18BetaNetworkManager16clear_all_tokens
FNDA:0,_RNvMs5_NtCs6Pl1wmeKPjF_10bingo_core12beta_networkNtB5_18BetaNetworkManager16create_join_node
FNDA:0,_RNvMs5_NtCs6Pl1wmeKPjF_10bingo_core12beta_networkNtB5_18BetaNetworkManager16create_root_node
FNDA:0,_RNvMs5_NtCs6Pl1wmeKPjF_10bingo_core12beta_networkNtB5_18BetaNetworkManager17get_network_state
FNDA:0,_RNvMs5_NtCs6Pl1wmeKPjF_10bingo_core12beta_networkNtB5_18BetaNetworkManager17is_token_complete
FNDA:0,_RNvMs5_NtCs6Pl1wmeKPjF_10bingo_core12beta_networkNtB5_18BetaNetworkManager20create_terminal_node
FNDA:0,_RNvMs5_NtCs6Pl1wmeKPjF_10bingo_core12beta_networkNtB5_18BetaNetworkManager21estimate_memory_usage
FNDA:0,_RNvMs5_NtCs6Pl1wmeKPjF_10bingo_core12beta_networkNtB5_18BetaNetworkManager21process_fact_addition
FNDA:0,_RNvMs5_NtCs6Pl1wmeKPjF_10bingo_core12beta_networkNtB5_18BetaNetworkManager22find_current_beta_node
FNDA:0,_RNvMs5_NtCs6Pl1wmeKPjF_10bingo_core12beta_networkNtB5_18BetaNetworkManager27with_high_throughput_config
FNDA:0,_RNvMs5_NtCs6Pl1wmeKPjF_10bingo_core12beta_networkNtB5_18BetaNetworkManager30retract_tokens_containing_fact
FNDA:0,_RNvMs5_NtCs6Pl1wmeKPjF_10bingo_core12beta_networkNtB5_18BetaNetworkManager31process_token_through_join_node
FNDA:0,_RNvMs5_NtCs6Pl1wmeKPjF_10bingo_core12beta_networkNtB5_18BetaNetworkManager3new
FNDA:0,_RNvMs_NtCs6Pl1wmeKPjF_10bingo_core12beta_networkNtB4_8BetaNode10set_parent
FNDA:0,_RNvMs_NtCs6Pl1wmeKPjF_10bingo_core12beta_networkNtB4_8BetaNode11token_count
FNDA:0,_RNvMs_NtCs6Pl1wmeKPjF_10bingo_core12beta_networkNtB4_8BetaNode12clear_tokens
FNDA:0,_RNvMs_NtCs6Pl1wmeKPjF_10bingo_core12beta_networkNtB4_8BetaNode12remove_token
FNDA:0,_RNvMs_NtCs6Pl1wmeKPjF_10bingo_core12beta_networkNtB4_8BetaNode14contains_token
FNDA:0,_RNvMs_NtCs6Pl1wmeKPjF_10bingo_core12beta_networkNtB4_8BetaNode3new
FNDA:0,_RNvMs_NtCs6Pl1wmeKPjF_10bingo_core12beta_networkNtB4_8BetaNode9add_child
FNDA:0,_RNvMs_NtCs6Pl1wmeKPjF_10bingo_core12beta_networkNtB4_8BetaNode9add_token
FNDA:0,_RNvMs_NtCs6Pl1wmeKPjF_10bingo_core12beta_networkNtB4_8BetaNode9get_stats
FNDA:0,_RNvXs4_NtCs6Pl1wmeKPjF_10bingo_core12beta_networkNtB5_10BetaMemoryNtNtCsd2KPTObkMr_4core7default7Default7default
FNDA:0,_RNvXs6_NtCs6Pl1wmeKPjF_10bingo_core12beta_networkNtB5_18BetaNetworkManagerNtNtCsd2KPTObkMr_4core7default7Default7default
FNDA:0,_RNvXs7_NtCs6Pl1wmeKPjF_10bingo_core12beta_networkNtB5_16BetaNetworkStatsNtNtCsd2KPTObkMr_4core3fmt7Display3fmt
FNDA:0,_RNCNvMs5_NtCscF0MZJB4Qop_10bingo_core12beta_networkNtB7_18BetaNetworkManager14get_statistics0B9_
FNDA:0,_RNCNvMs5_NtCscF0MZJB4Qop_10bingo_core12beta_networkNtB7_18BetaNetworkManager14get_statisticss0_0B9_
FNDA:0,_RNCNvMs5_NtCscF0MZJB4Qop_10bingo_core12beta_networkNtB7_18BetaNetworkManager14get_statisticss_0B9_
FNDA:0,_RNCNvMs5_NtCscF0MZJB4Qop_10bingo_core12beta_networkNtB7_18BetaNetworkManager17get_network_state0B9_
FNDA:0,_RNCNvMs5_NtCscF0MZJB4Qop_10bingo_core12beta_networkNtB7_18BetaNetworkManager30retract_tokens_containing_fact0B9_
FNDA:0,_RNCNvMs5_NtCscF0MZJB4Qop_10bingo_core12beta_networkNtB7_18BetaNetworkManager30retract_tokens_containing_facts_0B9_
FNDA:0,_RNCNvXs7_NtCscF0MZJB4Qop_10bingo_core12beta_networkNtB7_16BetaNetworkStatsNtNtCsd2KPTObkMr_4core3fmt7Display3fmt0B9_
FNDA:0,_RNvMNtCscF0MZJB4Qop_10bingo_core12beta_networkNtB2_5Token11is_complete
FNDA:0,_RNvMs0_NtCscF0MZJB4Qop_10bingo_core12beta_networkNtB5_8JoinNode13add_join_test
FNDA:0,_RNvMs0_NtCscF0MZJB4Qop_10bingo_core12beta_networkNtB5_8JoinNode19get_alpha_memory_id
FNDA:0,_RNvMs0_NtCscF0MZJB4Qop_10bingo_core12beta_networkNtB5_8JoinNode19get_condition_index
FNDA:0,_RNvMs3_NtCscF0MZJB4Qop_10bingo_core12beta_networkNtB5_10BetaMemory10get_tokens
FNDA:0,_RNvMs3_NtCscF0MZJB4Qop_10bingo_core12beta_networkNtB5_10BetaMemory17record_activation
FNDA:0,_RNvMs3_NtCscF0MZJB4Qop_10bingo_core12beta_networkNtB5_10BetaMemory5clear
FNDA:0,_RNvMs3_NtCscF0MZJB4Qop_10bingo_core12beta_networkNtB5_10BetaMemory9get_stats
FNDA:0,_RNvMs3_NtCscF0MZJB4Qop_10bingo_core12beta_networkNtB5_10BetaMemory9get_token
FNDA:0,_RNvMs5_NtCscF0MZJB4Qop_10bingo_core12beta_networkNtB5_18BetaNetworkManager14get_statistics
FNDA:0,_RNvMs5_NtCscF0MZJB4Qop_10bingo_core12beta_networkNtB5_18BetaNetworkManager16clear_all_tokens
FNDA:0,_RNvMs5_NtCscF0MZJB4Qop_10bingo_core12beta_networkNtB5_18BetaNetworkManager17get_network_state
FNDA:0,_RNvMs5_NtCscF0MZJB4Qop_10bingo_core12beta_networkNtB5_18BetaNetworkManager21estimate_memory_usage
FNDA:0,_RNvMs5_NtCscF0MZJB4Qop_10bingo_core12beta_networkNtB5_18BetaNetworkManager21process_fact_addition
FNDA:0,_RNvMs5_NtCscF0MZJB4Qop_10bingo_core12beta_networkNtB5_18BetaNetworkManager27with_high_throughput_config
FNDA:0,_RNvMs5_NtCscF0MZJB4Qop_10bingo_core12beta_networkNtB5_18BetaNetworkManager30retract_tokens_containing_fact
FNDA:0,_RNvMs_NtCscF0MZJB4Qop_10bingo_core12beta_networkNtB4_8BetaNode11token_count
FNDA:0,_RNvMs_NtCscF0MZJB4Qop_10bingo_core12beta_networkNtB4_8BetaNode12clear_tokens
FNDA:0,_RNvMs_NtCscF0MZJB4Qop_10bingo_core12beta_networkNtB4_8BetaNode12remove_token
FNDA:0,_RNvMs_NtCscF0MZJB4Qop_10bingo_core12beta_networkNtB4_8BetaNode14contains_token
FNDA:0,_RNvMs_NtCscF0MZJB4Qop_10bingo_core12beta_networkNtB4_8BetaNode9add_token
FNDA:0,_RNvMs_NtCscF0MZJB4Qop_10bingo_core12beta_networkNtB4_8BetaNode9get_stats
FNDA:0,_RNvXs4_NtCscF0MZJB4Qop_10bingo_core12beta_networkNtB5_10BetaMemoryNtNtCsd2KPTObkMr_4core7default7Default7default
FNDA:0,_RNvXs6_NtCscF0MZJB4Qop_10bingo_core12beta_networkNtB5_18BetaNetworkManagerNtNtCsd2KPTObkMr_4core7default7Default7default
FNDA:0,_RNvXs7_NtCscF0MZJB4Qop_10bingo_core12beta_networkNtB5_16BetaNetworkStatsNtNtCsd2KPTObkMr_4core3fmt7Display3fmt
FNDA:3,_RNvNtNtCscF0MZJB4Qop_10bingo_core12beta_network5tests16create_test_fact
FNDA:1,_RNvNtNtCscF0MZJB4Qop_10bingo_core12beta_network5testss_19test_join_operators
FNDA:1,_RNvNtNtCscF0MZJB4Qop_10bingo_core12beta_network5testss_19test_token_creation
FNDA:1,_RNvNtNtCscF0MZJB4Qop_10bingo_core12beta_network5testss_20test_token_extension
FNDA:1,_RNvNtNtCscF0MZJB4Qop_10bingo_core12beta_network5testss_23test_beta_node_creation
FNDA:1,_RNvNtNtCscF0MZJB4Qop_10bingo_core12beta_network5testss_23test_join_node_creation
FNDA:1,_RNvNtNtCscF0MZJB4Qop_10bingo_core12beta_network5testss_25test_beta_network_manager
FNDA:1,_RNvNtNtCscF0MZJB4Qop_10bingo_core12beta_network5testss_25test_join_test_evaluation
FNDA:1,_RNvNtNtCscF0MZJB4Qop_10bingo_core12beta_network5testss_27test_beta_memory_operations
FNDA:2,_RNvMNtCscF0MZJB4Qop_10bingo_core12beta_networkNtB2_5Token22get_fact_for_condition
FNDA:5,_RNvMNtCscF0MZJB4Qop_10bingo_core12beta_networkNtB2_5Token3new
FNDA:1,_RNvMNtCscF0MZJB4Qop_10bingo_core12beta_networkNtB2_5Token6extend
FNDA:7,_RNvMNtCscF0MZJB4Qop_10bingo_core12beta_networkNtB2_5Token6to_key
FNDA:0,_RNvMs0_NtCscF0MZJB4Qop_10bingo_core12beta_networkNtB5_8JoinNode12perform_join
FNDA:8,_RNvMs0_NtCscF0MZJB4Qop_10bingo_core12beta_networkNtB5_8JoinNode3new
FNDA:1,_RNvMs1_NtCscF0MZJB4Qop_10bingo_core12beta_networkNtB5_8JoinTest3new
FNDA:2,_RNvMs1_NtCscF0MZJB4Qop_10bingo_core12beta_networkNtB5_8JoinTest8evaluate
FNDA:8,_RNvMs2_NtCscF0MZJB4Qop_10bingo_core12beta_networkNtB5_12JoinOperator7compare
FNDA:2,_RNvMs3_NtCscF0MZJB4Qop_10bingo_core12beta_networkNtB5_10BetaMemory11token_count
FNDA:2,_RNvMs3_NtCscF0MZJB4Qop_10bingo_core12beta_networkNtB5_10BetaMemory12remove_token
FNDA:2,_RNvMs3_NtCscF0MZJB4Qop_10bingo_core12beta_networkNtB5_10BetaMemory14contains_token
FNDA:12,_RNvMs3_NtCscF0MZJB4Qop_10bingo_core12beta_networkNtB5_10BetaMemory3new
FNDA:3,_RNvMs3_NtCscF0MZJB4Qop_10bingo_core12beta_networkNtB5_10BetaMemory9add_token
FNDA:2,_RNvMs5_NtCscF0MZJB4Qop_10bingo_core12beta_networkNtB5_18BetaNetworkManager13connect_nodes
FNDA:0,_RNvMs5_NtCscF0MZJB4Qop_10bingo_core12beta_networkNtB5_18BetaNetworkManager13process_token
FNDA:7,_RNvMs5_NtCscF0MZJB4Qop_10bingo_core12beta_networkNtB5_18BetaNetworkManager16create_join_node
FNDA:4,_RNvMs5_NtCscF0MZJB4Qop_10bingo_core12beta_networkNtB5_18BetaNetworkManager16create_root_node
FNDA:0,_RNvMs5_NtCscF0MZJB4Qop_10bingo_core12beta_networkNtB5_18BetaNetworkManager17is_token_complete
FNDA:7,_RNvMs5_NtCscF0MZJB4Qop_10bingo_core12beta_networkNtB5_18BetaNetworkManager20create_terminal_node
FNDA:0,_RNvMs5_NtCscF0MZJB4Qop_10bingo_core12beta_networkNtB5_18BetaNetworkManager22find_current_beta_node
FNDA:0,_RNvMs5_NtCscF0MZJB4Qop_10bingo_core12beta_networkNtB5_18BetaNetworkManager31process_token_through_join_node
FNDA:11,_RNvMs5_NtCscF0MZJB4Qop_10bingo_core12beta_networkNtB5_18BetaNetworkManager3new
FNDA:8,_RNvMs_NtCscF0MZJB4Qop_10bingo_core12beta_networkNtB4_8BetaNode10set_parent
FNDA:20,_RNvMs_NtCscF0MZJB4Qop_10bingo_core12beta_networkNtB4_8BetaNode3new
FNDA:8,_RNvMs_NtCscF0MZJB4Qop_10bingo_core12beta_networkNtB4_8BetaNode9add_child
FNDA:0,_RNCNvMNtCscF0MZJB4Qop_10bingo_core12beta_networkNtB4_5Token6to_key0B6_
FNF:68
FNH:30
DA:51,5
DA:52,5
DA:53,5
DA:54,5
DA:55,5
DA:56,5
DA:57,5
DA:58,5
DA:59,5
DA:60,5
DA:61,5
DA:62,5
DA:65,1
DA:66,1
DA:67,1
DA:68,1
DA:69,1
DA:70,1
DA:71,1
DA:72,1
DA:73,1
DA:74,1
DA:75,1
DA:78,0
DA:82,0
DA:83,0
DA:86,2
DA:87,2
DA:88,2
DA:91,7
DA:92,7
DA:93,7
DA:95,7
DA:97,7
DA:137,20
DA:138,20
DA:139,20
DA:140,20
DA:141,20
DA:142,20
DA:143,20
DA:144,20
DA:145,20
DA:146,20
DA:147,20
DA:148,20
DA:149,20
DA:152,8
DA:153,8
DA:154,8
DA:155,8
DA:156,8
DA:159,8
DA:160,8
DA:161,8
DA:164,0
DA:165,0
DA:166,0
DA:167,0
DA:168,0
DA:169,0
DA:170,0
DA:171,0
DA:174,0
DA:175,0
DA:176,0
DA:177,0
DA:180,0
DA:181,0
DA:182,0
DA:183,0
DA:186,0
DA:187,0
DA:188,0
DA:191,0
DA:192,0
DA:193,0
DA:196,0
DA:198,0
DA:199,0
DA:200,0
DA:201,0
DA:202,0
DA:203,0
DA:204,0
DA:205,0
DA:206,0
DA:208,0
DA:211,0
DA:242,8
DA:243,8
DA:244,8
DA:245,8
DA:246,8
DA:247,8
DA:248,8
DA:249,8
DA:252,0
DA:253,0
DA:254,0
DA:257,0
DA:258,0
DA:259,0
DA:260,0
DA:261,0
DA:262,0
DA:263,0
DA:266,0
DA:267,0
DA:268,0
DA:269,0
DA:273,0
DA:274,0
DA:275,0
DA:276,0
DA:279,0
DA:280,0
DA:281,0
DA:284,0
DA:285,0
DA:286,0
DA:304,1
DA:305,1
DA:306,1
DA:307,1
DA:308,1
DA:309,1
DA:310,1
DA:311,1
DA:314,2
DA:316,2
DA:317,2
DA:318,0
DA:322,2
DA:323,2
DA:324,0
DA:327,2
DA:328,2
DA:329,0
DA:333,2
DA:334,2
DA:335,0
DA:338,2
DA:339,2
DA:340,0
DA:344,2
DA:345,2
DA:361,8
DA:362,8
DA:363,4
DA:364,0
DA:366,2
DA:367,2
DA:369,2
DA:371,0
DA:375,2
DA:376,2
DA:378,2
DA:380,0
DA:384,0
DA:385,0
DA:387,0
DA:389,0
DA:393,0
DA:394,0
DA:396,0
DA:398,0
DA:402,8
DA:418,12
DA:419,12
DA:420,12
DA:423,3
DA:424,3
DA:425,3
DA:426,3
DA:427,2
DA:428,2
DA:429,3
DA:430,3
DA:433,2
DA:434,2
DA:435,2
DA:436,2
DA:437,1
DA:438,1
DA:439,2
DA:440,2
DA:443,0
DA:444,0
DA:445,0
DA:448,0
DA:449,0
DA:450,0
DA:453,2
DA:454,2
DA:455,2
DA:456,2
DA:459,2
DA:460,2
DA:461,2
DA:464,0
DA:465,0
DA:466,0
DA:469,0
DA:470,0
DA:471,0
DA:474,0
DA:475,0
DA:476,0
DA:477,0
DA:478,0
DA:479,0
DA:480,0
DA:481,0
DA:485,0
DA:486,0
DA:487,0
DA:522,11
DA:523,11
DA:524,11
DA:525,11
DA:526,11
DA:527,11
DA:528,11
DA:529,11
DA:530,11
DA:531,11
DA:532,11
DA:533,11
DA:534,11
DA:537,0
DA:538,0
DA:539,0
DA:540,0
DA:541,0
DA:542,0
DA:543,0
DA:544,0
DA:545,0
DA:546,0
DA:547,0
DA:548,0
DA:549,0
DA:552,4
DA:553,4
DA:554,4
DA:556,4
DA:557,4
DA:558,4
DA:560,4
DA:561,4
DA:562,4
DA:565,7
DA:566,7
DA:567,7
DA:569,7
DA:570,7
DA:571,7
DA:573,7
DA:574,7
DA:577,7
DA:578,7
DA:579,7
DA:581,7
DA:582,7
DA:584,7
DA:585,7
DA:588,2
DA:590,2
DA:591,1
DA:592,1
DA:593,1
DA:594,1
DA:597,2
DA:598,1
DA:599,1
DA:600,1
DA:601,1
DA:602,2
DA:606,0
DA:607,0
DA:608,0
DA:609,0
DA:610,0
DA:612,0
DA:614,0
DA:615,0
DA:616,0
DA:617,0
DA:622,0
DA:624,0
DA:626,0
DA:627,0
DA:630,0
DA:631,0
DA:632,0
DA:634,0
DA:635,0
DA:636,0
DA:637,0
DA:638,0
DA:639,0
DA:641,0
DA:644,0
DA:646,0
DA:647,0
DA:648,0
DA:649,0
DA:650,0
DA:651,0
DA:652,0
DA:655,0
DA:658,0
DA:660,0
DA:661,0
DA:662,0
DA:665,0
DA:666,0
DA:667,0
DA:668,0
DA:669,0
DA:670,0
DA:671,0
DA:672,0
DA:674,0
DA:675,0
DA:678,0
DA:679,0
DA:680,0
DA:684,0
DA:687,0
DA:688,0
DA:689,0
DA:690,0
DA:693,0
DA:696,0
DA:697,0
DA:700,0
DA:701,0
DA:702,0
DA:703,0
DA:704,0
DA:706,0
DA:708,0
DA:711,0
DA:712,0
DA:713,0
DA:714,0
DA:715,0
DA:716,0
DA:717,0
DA:725,0
DA:726,0
DA:727,0
DA:728,0
DA:729,0
DA:732,0
DA:733,0
DA:736,0
DA:739,0
DA:740,0
DA:741,0
DA:744,0
DA:748,0
DA:750,0
DA:753,0
DA:754,0
DA:757,0
DA:758,0
DA:761,0
DA:762,0
DA:763,0
DA:764,0
DA:765,0
DA:766,0
DA:769,0
DA:770,0
DA:771,0
DA:772,0
DA:774,0
DA:778,0
DA:779,0
DA:780,0
DA:781,0
DA:782,0
DA:784,0
DA:785,0
DA:786,0
DA:788,0
DA:789,0
DA:792,0
DA:793,0
DA:796,0
DA:797,0
DA:798,0
DA:799,0
DA:800,0
DA:801,0
DA:802,0
DA:805,0
DA:806,0
DA:807,0
DA:808,0
DA:809,0
DA:810,0
DA:811,0
DA:812,0
DA:814,0
DA:815,0
DA:816,0
DA:819,0
DA:820,0
DA:823,0
DA:825,0
DA:826,0
DA:827,0
DA:828,0
DA:829,0
DA:831,0
DA:834,0
DA:835,0
DA:836,0
DA:838,0
DA:839,0
DA:841,0
DA:842,0
DA:844,0
DA:845,0
DA:846,0
DA:847,0
DA:848,0
DA:849,0
DA:850,0
DA:851,0
DA:852,0
DA:853,0
DA:856,0
DA:857,0
DA:858,0
DA:859,0
DA:861,0
DA:862,0
DA:863,0
DA:865,0
DA:866,0
DA:867,0
DA:868,0
DA:871,0
DA:872,0
DA:875,0
DA:878,0
DA:881,0
DA:882,0
DA:883,0
DA:885,0
DA:886,0
DA:890,0
DA:891,0
DA:892,0
DA:918,0
DA:919,0
DA:920,0
DA:921,0
DA:922,0
DA:923,0
DA:925,0
DA:926,0
DA:927,0
DA:928,0
DA:929,0
DA:931,0
DA:932,0
DA:933,0
DA:935,0
DA:936,0
DA:937,0
DA:938,0
DA:939,0
DA:943,0
DA:946,0
DA:947,0
DA:956,3
DA:957,3
DA:958,3
DA:959,3
DA:961,3
DA:962,3
DA:963,3
DA:964,3
DA:965,3
DA:966,3
DA:967,3
DA:970,1
DA:971,1
DA:972,1
DA:973,1
DA:974,1
DA:975,1
DA:976,1
DA:979,1
DA:980,1
DA:981,1
DA:983,1
DA:984,1
DA:985,1
DA:986,1
DA:987,1
DA:988,1
DA:991,1
DA:992,1
DA:993,1
DA:994,1
DA:995,1
DA:996,1
DA:997,1
DA:1000,1
DA:1001,1
DA:1002,1
DA:1003,1
DA:1004,1
DA:1005,1
DA:1006,1
DA:1009,1
DA:1010,1
DA:1011,1
DA:1012,1
DA:1013,1
DA:1014,1
DA:1016,1
DA:1017,1
DA:1019,1
DA:1020,1
DA:1021,1
DA:1023,1
DA:1027,1
DA:1030,1
DA:1031,1
DA:1034,1
DA:1035,1
DA:1038,1
DA:1039,1
DA:1040,1
DA:1041,1
DA:1044,1
DA:1045,1
DA:1046,1
DA:1047,1
DA:1050,1
DA:1051,1
DA:1052,1
DA:1055,1
DA:1056,1
DA:1057,1
DA:1060,1
DA:1061,1
DA:1064,1
DA:1065,1
DA:1068,1
DA:1069,1
DA:1072,1
DA:1073,1
DA:1076,1
DA:1077,1
DA:1080,1
DA:1081,1
DA:1083,1
DA:1084,1
DA:1085,1
DA:1086,1
DA:1089,1
DA:1090,1
DA:1091,1
DA:1092,1
DA:1094,1
DA:1095,1
DA:1097,1
DA:1098,1
DA:1100,1
DA:1101,1
DA:1102,1
BRF:0
BRH:0
LF:588
LH:265
end_of_record
SF:/Users/hl/Projects/private/bingo/crates/bingo-core/src/cache.rs
FN:76,_RNvMNtCs6Pl1wmeKPjF_10bingo_core5cacheINtB2_8LruCacheppE3lenB4_
FN:81,_RNvMNtCs6Pl1wmeKPjF_10bingo_core5cacheINtB2_8LruCacheppE8is_emptyB4_
FN:71,_RNvMNtCs6Pl1wmeKPjF_10bingo_core5cacheINtB2_8LruCacheyNtNtB4_5types4FactE12contains_keyB4_
FN:37,_RNvMNtCs6Pl1wmeKPjF_10bingo_core5cacheINtB2_8LruCacheyNtNtB4_5types4FactE3getB4_
FN:27,_RNvMNtCs6Pl1wmeKPjF_10bingo_core5cacheINtB2_8LruCacheyNtNtB4_5types4FactE3newB4_
FN:50,_RNvMNtCs6Pl1wmeKPjF_10bingo_core5cacheINtB2_8LruCacheyNtNtB4_5types4FactE3putB4_
FN:86,_RNvMNtCs6Pl1wmeKPjF_10bingo_core5cacheINtB2_8LruCacheyNtNtB4_5types4FactE5clearB4_
FN:93,_RNvMNtCs6Pl1wmeKPjF_10bingo_core5cacheINtB2_8LruCacheyNtNtB4_5types4FactE5statsB4_
FN:66,_RNvMNtCs6Pl1wmeKPjF_10bingo_core5cacheINtB2_8LruCacheyNtNtB4_5types4FactE6removeB4_
FN:102,_RNvMNtCs6Pl1wmeKPjF_10bingo_core5cacheINtB2_8LruCacheyNtNtB4_5types4FactE9evict_lruB4_
FN:135,_RNvMs_NtCs6Pl1wmeKPjF_10bingo_core5cacheNtB4_10CacheStats11utilization
FN:144,_RNvMs_NtCs6Pl1wmeKPjF_10bingo_core5cacheNtB4_10CacheStats18memory_usage_bytes
FN:144,_RNvMs_NtCscF0MZJB4Qop_10bingo_core5cacheNtB4_10CacheStats18memory_usage_bytes
FN:71,_RNvMNtCscF0MZJB4Qop_10bingo_core5cacheINtB2_8LruCacheRelE12contains_keyB4_
FN:37,_RNvMNtCscF0MZJB4Qop_10bingo_core5cacheINtB2_8LruCacheRelE3getB4_
FN:76,_RNvMNtCscF0MZJB4Qop_10bingo_core5cacheINtB2_8LruCacheRelE3lenB4_
FN:27,_RNvMNtCscF0MZJB4Qop_10bingo_core5cacheINtB2_8LruCacheRelE3newB4_
FN:50,_RNvMNtCscF0MZJB4Qop_10bingo_core5cacheINtB2_8LruCacheRelE3putB4_
FN:86,_RNvMNtCscF0MZJB4Qop_10bingo_core5cacheINtB2_8LruCacheRelE5clearB4_
FN:93,_RNvMNtCscF0MZJB4Qop_10bingo_core5cacheINtB2_8LruCacheRelE5statsB4_
FN:81,_RNvMNtCscF0MZJB4Qop_10bingo_core5cacheINtB2_8LruCacheRelE8is_emptyB4_
FN:102,_RNvMNtCscF0MZJB4Qop_10bingo_core5cacheINtB2_8LruCacheRelE9evict_lruB4_
FN:37,_RNvMNtCscF0MZJB4Qop_10bingo_core5cacheINtB2_8LruCachelReE3getB4_
FN:27,_RNvMNtCscF0MZJB4Qop_10bingo_core5cacheINtB2_8LruCachelReE3newB4_
FN:50,_RNvMNtCscF0MZJB4Qop_10bingo_core5cacheINtB2_8LruCachelReE3putB4_
FN:102,_RNvMNtCscF0MZJB4Qop_10bingo_core5cacheINtB2_8LruCachelReE9evict_lruB4_
FN:71,_RNvMNtCscF0MZJB4Qop_10bingo_core5cacheINtB2_8LruCacheyNtNtB4_5types4FactE12contains_keyB4_
FN:37,_RNvMNtCscF0MZJB4Qop_10bingo_core5cacheINtB2_8LruCacheyNtNtB4_5types4FactE3getB4_
FN:27,_RNvMNtCscF0MZJB4Qop_10bingo_core5cacheINtB2_8LruCacheyNtNtB4_5types4FactE3newB4_
FN:50,_RNvMNtCscF0MZJB4Qop_10bingo_core5cacheINtB2_8LruCacheyNtNtB4_5types4FactE3putB4_
FN:86,_RNvMNtCscF0MZJB4Qop_10bingo_core5cacheINtB2_8LruCacheyNtNtB4_5types4FactE5clearB4_
FN:93,_RNvMNtCscF0MZJB4Qop_10bingo_core5cacheINtB2_8LruCacheyNtNtB4_5types4FactE5statsB4_
FN:66,_RNvMNtCscF0MZJB4Qop_10bingo_core5cacheINtB2_8LruCacheyNtNtB4_5types4FactE6removeB4_
FN:102,_RNvMNtCscF0MZJB4Qop_10bingo_core5cacheINtB2_8LruCacheyNtNtB4_5types4FactE9evict_lruB4_
FN:135,_RNvMs_NtCscF0MZJB4Qop_10bingo_core5cacheNtB4_10CacheStats11utilization
FN:235,_RNvNtNtCscF0MZJB4Qop_10bingo_core5cache5testss_16test_cache_stats
FN:221,_RNvNtNtCscF0MZJB4Qop_10bingo_core5cache5testss_20test_lru_cache_clear
FN:261,_RNvNtNtCscF0MZJB4Qop_10bingo_core5cache5testss_23test_lru_access_pattern
FN:171,_RNvNtNtCscF0MZJB4Qop_10bingo_core5cache5testss_23test_lru_cache_eviction
FN:282,_RNvNtNtCscF0MZJB4Qop_10bingo_core5cache5testss_24test_zero_capacity_cache
FN:205,_RNvNtNtCscF0MZJB4Qop_10bingo_core5cache5testss_27test_lru_cache_contains_key
FN:191,_RNvNtNtCscF0MZJB4Qop_10bingo_core5cache5testss_30test_lru_cache_update_existing
FN:155,_RNvNtNtCscF0MZJB4Qop_10bingo_core5cache5testss_31test_lru_cache_basic_operations
FNDA:0,_RNvMNtCs6Pl1wmeKPjF_10bingo_core5cacheINtB2_8LruCacheppE3lenB4_
FNDA:0,_RNvMNtCs6Pl1wmeKPjF_10bingo_core5cacheINtB2_8LruCacheppE8is_emptyB4_
FNDA:0,_RNvMNtCs6Pl1wmeKPjF_10bingo_core5cacheINtB2_8LruCacheyNtNtB4_5types4FactE12contains_keyB4_
FNDA:0,_RNvMNtCs6Pl1wmeKPjF_10bingo_core5cacheINtB2_8LruCacheyNtNtB4_5types4FactE3getB4_
FNDA:0,_RNvMNtCs6Pl1wmeKPjF_10bingo_core5cacheINtB2_8LruCacheyNtNtB4_5types4FactE3newB4_
FNDA:0,_RNvMNtCs6Pl1wmeKPjF_10bingo_core5cacheINtB2_8LruCacheyNtNtB4_5types4FactE3putB4_
FNDA:0,_RNvMNtCs6Pl1wmeKPjF_10bingo_core5cacheINtB2_8LruCacheyNtNtB4_5types4FactE5clearB4_
FNDA:0,_RNvMNtCs6Pl1wmeKPjF_10bingo_core5cacheINtB2_8LruCacheyNtNtB4_5types4FactE5statsB4_
FNDA:0,_RNvMNtCs6Pl1wmeKPjF_10bingo_core5cacheINtB2_8LruCacheyNtNtB4_5types4FactE6removeB4_
FNDA:0,_RNvMNtCs6Pl1wmeKPjF_10bingo_core5cacheINtB2_8LruCacheyNtNtB4_5types4FactE9evict_lruB4_
FNDA:0,_RNvMs_NtCs6Pl1wmeKPjF_10bingo_core5cacheNtB4_10CacheStats11utilization
FNDA:0,_RNvMs_NtCs6Pl1wmeKPjF_10bingo_core5cacheNtB4_10CacheStats18memory_usage_bytes
FNDA:0,_RNvMs_NtCscF0MZJB4Qop_10bingo_core5cacheNtB4_10CacheStats18memory_usage_bytes
FNDA:5,_RNvMNtCscF0MZJB4Qop_10bingo_core5cacheINtB2_8LruCacheRelE12contains_keyB4_
FNDA:12,_RNvMNtCscF0MZJB4Qop_10bingo_core5cacheINtB2_8LruCacheRelE3getB4_
FNDA:7,_RNvMNtCscF0MZJB4Qop_10bingo_core5cacheINtB2_8LruCacheRelE3lenB4_
FNDA:7,_RNvMNtCscF0MZJB4Qop_10bingo_core5cacheINtB2_8LruCacheRelE3newB4_
FNDA:19,_RNvMNtCscF0MZJB4Qop_10bingo_core5cacheINtB2_8LruCacheRelE3putB4_
FNDA:1,_RNvMNtCscF0MZJB4Qop_10bingo_core5cacheINtB2_8LruCacheRelE5clearB4_
FNDA:4,_RNvMNtCscF0MZJB4Qop_10bingo_core5cacheINtB2_8LruCacheRelE5statsB4_
FNDA:1,_RNvMNtCscF0MZJB4Qop_10bingo_core5cacheINtB2_8LruCacheRelE8is_emptyB4_
FNDA:2,_RNvMNtCscF0MZJB4Qop_10bingo_core5cacheINtB2_8LruCacheRelE9evict_lruB4_
FNDA:5,_RNvMNtCscF0MZJB4Qop_10bingo_core5cacheINtB2_8LruCachelReE3getB4_
FNDA:1,_RNvMNtCscF0MZJB4Qop_10bingo_core5cacheINtB2_8LruCachelReE3newB4_
FNDA:4,_RNvMNtCscF0MZJB4Qop_10bingo_core5cacheINtB2_8LruCachelReE3putB4_
FNDA:1,_RNvMNtCscF0MZJB4Qop_10bingo_core5cacheINtB2_8LruCachelReE9evict_lruB4_
FNDA:119,_RNvMNtCscF0MZJB4Qop_10bingo_core5cacheINtB2_8LruCacheyNtNtB4_5types4FactE12contains_keyB4_
FNDA:27,_RNvMNtCscF0MZJB4Qop_10bingo_core5cacheINtB2_8LruCacheyNtNtB4_5types4FactE3getB4_
FNDA:5,_RNvMNtCscF0MZJB4Qop_10bingo_core5cacheINtB2_8LruCacheyNtNtB4_5types4FactE3newB4_
FNDA:17,_RNvMNtCscF0MZJB4Qop_10bingo_core5cacheINtB2_8LruCacheyNtNtB4_5types4FactE3putB4_
FNDA:1,_RNvMNtCscF0MZJB4Qop_10bingo_core5cacheINtB2_8LruCacheyNtNtB4_5types4FactE5clearB4_
FNDA:3,_RNvMNtCscF0MZJB4Qop_10bingo_core5cacheINtB2_8LruCacheyNtNtB4_5types4FactE5statsB4_
FNDA:1,_RNvMNtCscF0MZJB4Qop_10bingo_core5cacheINtB2_8LruCacheyNtNtB4_5types4FactE6removeB4_
FNDA:0,_RNvMNtCscF0MZJB4Qop_10bingo_core5cacheINtB2_8LruCacheyNtNtB4_5types4FactE9evict_lruB4_
FNDA:4,_RNvMs_NtCscF0MZJB4Qop_10bingo_core5cacheNtB4_10CacheStats11utilization
FNDA:1,_RNvNtNtCscF0MZJB4Qop_10bingo_core5cache5testss_16test_cache_stats
FNDA:1,_RNvNtNtCscF0MZJB4Qop_10bingo_core5cache5testss_20test_lru_cache_clear
FNDA:1,_RNvNtNtCscF0MZJB4Qop_10bingo_core5cache5testss_23test_lru_access_pattern
FNDA:1,_RNvNtNtCscF0MZJB4Qop_10bingo_core5cache5testss_23test_lru_cache_eviction
FNDA:1,_RNvNtNtCscF0MZJB4Qop_10bingo_core5cache5testss_24test_zero_capacity_cache
FNDA:1,_RNvNtNtCscF0MZJB4Qop_10bingo_core5cache5testss_27test_lru_cache_contains_key
FNDA:1,_RNvNtNtCscF0MZJB4Qop_10bingo_core5cache5testss_30test_lru_cache_update_existing
FNDA:1,_RNvNtNtCscF0MZJB4Qop_10bingo_core5cache5testss_31test_lru_cache_basic_operations
FNF:20
FNH:19
DA:27,13
DA:28,13
DA:29,13
DA:30,13
DA:31,13
DA:32,13
DA:33,13
DA:34,13
DA:37,44
DA:38,44
DA:39,20
DA:40,20
DA:41,20
DA:43,24
DA:45,44
DA:50,40
DA:52,40
DA:53,1
DA:54,39
DA:56,39
DA:58,39
DA:59,3
DA:60,36
DA:62,39
DA:63,40
DA:66,1
DA:67,1
DA:68,1
DA:71,124
DA:72,124
DA:73,124
DA:76,7
DA:77,7
DA:78,7
DA:81,1
DA:82,1
DA:83,1
DA:86,2
DA:87,2
DA:88,2
DA:89,2
DA:90,2
DA:93,7
DA:94,7
DA:95,7
DA:96,7
DA:97,7
DA:98,7
DA:99,7
DA:102,3
DA:103,3
DA:104,0
DA:105,3
DA:108,3
DA:109,3
DA:111,10
DA:112,7
DA:113,5
DA:114,5
DA:115,5
DA:118,3
DA:119,3
DA:120,3
DA:121,3
DA:122,3
DA:135,4
DA:136,4
DA:137,1
DA:139,3
DA:141,4
DA:144,0
DA:146,0
DA:147,0
DA:155,1
DA:156,1
DA:159,1
DA:160,1
DA:161,1
DA:163,1
DA:164,1
DA:165,1
DA:166,1
DA:167,1
DA:168,1
DA:171,1
DA:172,1
DA:175,1
DA:176,1
DA:177,1
DA:180,1
DA:183,1
DA:184,1
DA:185,1
DA:186,1
DA:187,1
DA:188,1
DA:191,1
DA:192,1
DA:194,1
DA:195,1
DA:198,1
DA:199,1
DA:200,1
DA:201,1
DA:202,1
DA:205,1
DA:206,1
DA:208,1
DA:209,1
DA:210,1
DA:212,1
DA:213,1
DA:215,1
DA:216,1
DA:217,1
DA:218,1
DA:221,1
DA:222,1
DA:224,1
DA:225,1
DA:226,1
DA:228,1
DA:229,1
DA:230,1
DA:231,1
DA:232,1
DA:235,1
DA:236,1
DA:238,1
DA:239,1
DA:240,1
DA:241,1
DA:243,1
DA:244,1
DA:246,1
DA:247,1
DA:248,1
DA:249,1
DA:251,1
DA:252,1
DA:254,1
DA:255,1
DA:256,1
DA:257,1
DA:258,1
DA:261,1
DA:262,1
DA:265,1
DA:266,1
DA:267,1
DA:270,1
DA:273,1
DA:275,1
DA:276,1
DA:277,1
DA:278,1
DA:279,1
DA:282,1
DA:283,1
DA:285,1
DA:286,1
DA:287,1
DA:289,1
DA:290,1
DA:291,1
DA:292,1
BRF:0
BRH:0
LF:166
LH:162
end_of_record
SF:/Users/hl/Projects/private/bingo/crates/bingo-core/src/conflict_resolution.rs
FN:401,_RNvMs0_NtCs6Pl1wmeKPjF_10bingo_core19conflict_resolutionNtB5_25ConflictResolutionManager10get_config
FN:390,_RNvMs0_NtCs6Pl1wmeKPjF_10bingo_core19conflict_resolutionNtB5_25ConflictResolutionManager11reset_stats
FN:356,_RNvMs0_NtCs6Pl1wmeKPjF_10bingo_core19conflict_resolutionNtB5_25ConflictResolutionManager12update_stats
FN:172,_RNvMs0_NtCs6Pl1wmeKPjF_10bingo_core19conflict_resolutionNtB5_25ConflictResolutionManager13register_rule
FN:395,_RNvMs0_NtCs6Pl1wmeKPjF_10bingo_core19conflict_resolutionNtB5_25ConflictResolutionManager13update_config
FN:337,_RNvMs0_NtCs6Pl1wmeKPjF_10bingo_core19conflict_resolutionNtB5_25ConflictResolutionManager15get_primary_key
FN:282,_RNvMs0_NtCs6Pl1wmeKPjF_10bingo_core19conflict_resolutionNtB5_25ConflictResolutionManager17apply_tie_breaker
FN:406,_RNvMs0_NtCs6Pl1wmeKPjF_10bingo_core19conflict_resolutionNtB5_25ConflictResolutionManager17get_rule_priority
FN:422,_RNvMs0_NtCs6Pl1wmeKPjF_10bingo_core19conflict_resolutionNtB5_25ConflictResolutionManager17get_rule_salience
FN:194,_RNvMs0_NtCs6Pl1wmeKPjF_10bingo_core19conflict_resolutionNtB5_25ConflictResolutionManager17resolve_conflicts
FN:411,_RNvMs0_NtCs6Pl1wmeKPjF_10bingo_core19conflict_resolutionNtB5_25ConflictResolutionManager17set_rule_priority
FN:427,_RNvMs0_NtCs6Pl1wmeKPjF_10bingo_core19conflict_resolutionNtB5_25ConflictResolutionManager17set_rule_salience
FN:369,_RNvMs0_NtCs6Pl1wmeKPjF_10bingo_core19conflict_resolutionNtB5_25ConflictResolutionManager21log_resolution_result
FN:250,_RNvMs0_NtCs6Pl1wmeKPjF_10bingo_core19conflict_resolutionNtB5_25ConflictResolutionManager23compare_rule_executions
FN:324,_RNvMs0_NtCs6Pl1wmeKPjF_10bingo_core19conflict_resolutionNtB5_25ConflictResolutionManager26apply_tie_breaker_to_group
FN:161,_RNvMs0_NtCs6Pl1wmeKPjF_10bingo_core19conflict_resolutionNtB5_25ConflictResolutionManager3new
FN:385,_RNvMs0_NtCs6Pl1wmeKPjF_10bingo_core19conflict_resolutionNtB5_25ConflictResolutionManager9get_stats
FN:100,_RNvMs_NtCs6Pl1wmeKPjF_10bingo_core19conflict_resolutionNtB4_13RuleExecution3new
FN:120,_RNvMs_NtCs6Pl1wmeKPjF_10bingo_core19conflict_resolutionNtB4_13RuleExecution7rule_id
FN:125,_RNvMs_NtCs6Pl1wmeKPjF_10bingo_core19conflict_resolutionNtB4_13RuleExecution9rule_name
FN:69,_RNvXNtCs6Pl1wmeKPjF_10bingo_core19conflict_resolutionNtB2_24ConflictResolutionConfigNtNtCsd2KPTObkMr_4core7default7Default7default
FN:439,_RNvXs1_NtCs6Pl1wmeKPjF_10bingo_core19conflict_resolutionNtB5_25ConflictResolutionManagerNtNtCsd2KPTObkMr_4core7default7Default7default
FN:225,_RNCNvMs0_NtCs6Pl1wmeKPjF_10bingo_core19conflict_resolutionNtB7_25ConflictResolutionManager17resolve_conflicts0B9_
FN:333,_RNCNvMs0_NtCs6Pl1wmeKPjF_10bingo_core19conflict_resolutionNtB7_25ConflictResolutionManager26apply_tie_breaker_to_group0B9_
FN:225,_RNCNvMs0_NtCscF0MZJB4Qop_10bingo_core19conflict_resolutionNtB7_25ConflictResolutionManager17resolve_conflicts0B9_
FN:333,_RNCNvMs0_NtCscF0MZJB4Qop_10bingo_core19conflict_resolutionNtB7_25ConflictResolutionManager26apply_tie_breaker_to_group0B9_
FN:401,_RNvMs0_NtCscF0MZJB4Qop_10bingo_core19conflict_resolutionNtB5_25ConflictResolutionManager10get_config
FN:390,_RNvMs0_NtCscF0MZJB4Qop_10bingo_core19conflict_resolutionNtB5_25ConflictResolutionManager11reset_stats
FN:395,_RNvMs0_NtCscF0MZJB4Qop_10bingo_core19conflict_resolutionNtB5_25ConflictResolutionManager13update_config
FN:356,_RNvMs0_NtCscF0MZJB4Qop_10bingo_core19conflict_resolutionNtB5_25ConflictResolutionManager12update_stats
FN:172,_RNvMs0_NtCscF0MZJB4Qop_10bingo_core19conflict_resolutionNtB5_25ConflictResolutionManager13register_rule
FN:337,_RNvMs0_NtCscF0MZJB4Qop_10bingo_core19conflict_resolutionNtB5_25ConflictResolutionManager15get_primary_key
FN:282,_RNvMs0_NtCscF0MZJB4Qop_10bingo_core19conflict_resolutionNtB5_25ConflictResolutionManager17apply_tie_breaker
FN:406,_RNvMs0_NtCscF0MZJB4Qop_10bingo_core19conflict_resolutionNtB5_25ConflictResolutionManager17get_rule_priority
FN:422,_RNvMs0_NtCscF0MZJB4Qop_10bingo_core19conflict_resolutionNtB5_25ConflictResolutionManager17get_rule_salience
FN:194,_RNvMs0_NtCscF0MZJB4Qop_10bingo_core19conflict_resolutionNtB5_25ConflictResolutionManager17resolve_conflicts
FN:411,_RNvMs0_NtCscF0MZJB4Qop_10bingo_core19conflict_resolutionNtB5_25ConflictResolutionManager17set_rule_priority
FN:427,_RNvMs0_NtCscF0MZJB4Qop_10bingo_core19conflict_resolutionNtB5_25ConflictResolutionManager17set_rule_salience
FN:369,_RNvMs0_NtCscF0MZJB4Qop_10bingo_core19conflict_resolutionNtB5_25ConflictResolutionManager21log_resolution_result
FN:250,_RNvMs0_NtCscF0MZJB4Qop_10bingo_core19conflict_resolutionNtB5_25ConflictResolutionManager23compare_rule_executions
FN:324,_RNvMs0_NtCscF0MZJB4Qop_10bingo_core19conflict_resolutionNtB5_25ConflictResolutionManager26apply_tie_breaker_to_group
FN:161,_RNvMs0_NtCscF0MZJB4Qop_10bingo_core19conflict_resolutionNtB5_25ConflictResolutionManager3new
FN:385,_RNvMs0_NtCscF0MZJB4Qop_10bingo_core19conflict_resolutionNtB5_25ConflictResolutionManager9get_stats
FN:100,_RNvMs_NtCscF0MZJB4Qop_10bingo_core19conflict_resolutionNtB4_13RuleExecution3new
FN:120,_RNvMs_NtCscF0MZJB4Qop_10bingo_core19conflict_resolutionNtB4_13RuleExecution7rule_id
FN:125,_RNvMs_NtCscF0MZJB4Qop_10bingo_core19conflict_resolutionNtB4_13RuleExecution9rule_name
FN:69,_RNvXNtCscF0MZJB4Qop_10bingo_core19conflict_resolutionNtB2_24ConflictResolutionConfigNtNtCsd2KPTObkMr_4core7default7Default7default
FN:439,_RNvXs1_NtCscF0MZJB4Qop_10bingo_core19conflict_resolutionNtB5_25ConflictResolutionManagerNtNtCsd2KPTObkMr_4core7default7Default7default
FN:453,_RNCNvNtNtCscF0MZJB4Qop_10bingo_core19conflict_resolution5tests16create_test_rule0B7_
FN:469,_RNvNtNtCscF0MZJB4Qop_10bingo_core19conflict_resolution5tests16create_test_fact
FN:450,_RNvNtNtCscF0MZJB4Qop_10bingo_core19conflict_resolution5tests16create_test_rule
FN:481,_RNvNtNtCscF0MZJB4Qop_10bingo_core19conflict_resolution5tests26create_test_rule_execution
FN:503,_RNvNtNtCscF0MZJB4Qop_10bingo_core19conflict_resolution5testss_22test_rule_registration
FN:629,_RNvNtNtCscF0MZJB4Qop_10bingo_core19conflict_resolution5testss_23test_empty_conflict_set
FN:651,_RNvNtNtCscF0MZJB4Qop_10bingo_core19conflict_resolution5testss_24test_statistics_tracking
FN:669,_RNvNtNtCscF0MZJB4Qop_10bingo_core19conflict_resolution5testss_26test_rule_priority_updates
FN:680,_RNvNtNtCscF0MZJB4Qop_10bingo_core19conflict_resolution5testss_26test_rule_salience_updates
FN:604,_RNvNtNtCscF0MZJB4Qop_10bingo_core19conflict_resolution5testss_27test_tie_breaker_resolution
FN:636,_RNvNtNtCscF0MZJB4Qop_10bingo_core19conflict_resolution5testss_28test_conflict_set_size_limit
FN:580,_RNvNtNtCscF0MZJB4Qop_10bingo_core19conflict_resolution5testss_29test_lexicographic_resolution
FN:514,_RNvNtNtCscF0MZJB4Qop_10bingo_core19conflict_resolution5testss_30test_priority_based_resolution
FN:532,_RNvNtNtCscF0MZJB4Qop_10bingo_core19conflict_resolution5testss_30test_salience_based_resolution
FN:556,_RNvNtNtCscF0MZJB4Qop_10bingo_core19conflict_resolution5testss_33test_specificity_based_resolution
FN:494,_RNvNtNtCscF0MZJB4Qop_10bingo_core19conflict_resolution5testss_41test_conflict_resolution_manager_creation
FNDA:0,_RNvMs0_NtCs6Pl1wmeKPjF_10bingo_core19conflict_resolutionNtB5_25ConflictResolutionManager10get_config
FNDA:0,_RNvMs0_NtCs6Pl1wmeKPjF_10bingo_core19conflict_resolutionNtB5_25ConflictResolutionManager11reset_stats
FNDA:0,_RNvMs0_NtCs6Pl1wmeKPjF_10bingo_core19conflict_resolutionNtB5_25ConflictResolutionManager12update_stats
FNDA:0,_RNvMs0_NtCs6Pl1wmeKPjF_10bingo_core19conflict_resolutionNtB5_25ConflictResolutionManager13register_rule
FNDA:0,_RNvMs0_NtCs6Pl1wmeKPjF_10bingo_core19conflict_resolutionNtB5_25ConflictResolutionManager13update_config
FNDA:0,_RNvMs0_NtCs6Pl1wmeKPjF_10bingo_core19conflict_resolutionNtB5_25ConflictResolutionManager15get_primary_key
FNDA:0,_RNvMs0_NtCs6Pl1wmeKPjF_10bingo_core19conflict_resolutionNtB5_25ConflictResolutionManager17apply_tie_breaker
FNDA:0,_RNvMs0_NtCs6Pl1wmeKPjF_10bingo_core19conflict_resolutionNtB5_25ConflictResolutionManager17get_rule_priority
FNDA:0,_RNvMs0_NtCs6Pl1wmeKPjF_10bingo_core19conflict_resolutionNtB5_25ConflictResolutionManager17get_rule_salience
FNDA:0,_RNvMs0_NtCs6Pl1wmeKPjF_10bingo_core19conflict_resolutionNtB5_25ConflictResolutionManager17resolve_conflicts
FNDA:0,_RNvMs0_NtCs6Pl1wmeKPjF_10bingo_core19conflict_resolutionNtB5_25ConflictResolutionManager17set_rule_priority
FNDA:0,_RNvMs0_NtCs6Pl1wmeKPjF_10bingo_core19conflict_resolutionNtB5_25ConflictResolutionManager17set_rule_salience
FNDA:0,_RNvMs0_NtCs6Pl1wmeKPjF_10bingo_core19conflict_resolutionNtB5_25ConflictResolutionManager21log_resolution_result
FNDA:0,_RNvMs0_NtCs6Pl1wmeKPjF_10bingo_core19conflict_resolutionNtB5_25ConflictResolutionManager23compare_rule_executions
FNDA:0,_RNvMs0_NtCs6Pl1wmeKPjF_10bingo_core19conflict_resolutionNtB5_25ConflictResolutionManager26apply_tie_breaker_to_group
FNDA:0,_RNvMs0_NtCs6Pl1wmeKPjF_10bingo_core19conflict_resolutionNtB5_25ConflictResolutionManager3new
FNDA:0,_RNvMs0_NtCs6Pl1wmeKPjF_10bingo_core19conflict_resolutionNtB5_25ConflictResolutionManager9get_stats
FNDA:0,_RNvMs_NtCs6Pl1wmeKPjF_10bingo_core19conflict_resolutionNtB4_13RuleExecution3new
FNDA:0,_RNvMs_NtCs6Pl1wmeKPjF_10bingo_core19conflict_resolutionNtB4_13RuleExecution7rule_id
FNDA:0,_RNvMs_NtCs6Pl1wmeKPjF_10bingo_core19conflict_resolutionNtB4_13RuleExecution9rule_name
FNDA:0,_RNvXNtCs6Pl1wmeKPjF_10bingo_core19conflict_resolutionNtB2_24ConflictResolutionConfigNtNtCsd2KPTObkMr_4core7default7Default7default
FNDA:0,_RNvXs1_NtCs6Pl1wmeKPjF_10bingo_core19conflict_resolutionNtB5_25ConflictResolutionManagerNtNtCsd2KPTObkMr_4core7default7Default7default
FNDA:0,_RNCNvMs0_NtCs6Pl1wmeKPjF_10bingo_core19conflict_resolutionNtB7_25ConflictResolutionManager17resolve_conflicts0B9_
FNDA:0,_RNCNvMs0_NtCs6Pl1wmeKPjF_10bingo_core19conflict_resolutionNtB7_25ConflictResolutionManager26apply_tie_breaker_to_group0B9_
FNDA:16,_RNCNvMs0_NtCscF0MZJB4Qop_10bingo_core19conflict_resolutionNtB7_25ConflictResolutionManager17resolve_conflicts0B9_
FNDA:1,_RNCNvMs0_NtCscF0MZJB4Qop_10bingo_core19conflict_resolutionNtB7_25ConflictResolutionManager26apply_tie_breaker_to_group0B9_
FNDA:0,_RNvMs0_NtCscF0MZJB4Qop_10bingo_core19conflict_resolutionNtB5_25ConflictResolutionManager10get_config
FNDA:0,_RNvMs0_NtCscF0MZJB4Qop_10bingo_core19conflict_resolutionNtB5_25ConflictResolutionManager11reset_stats
FNDA:0,_RNvMs0_NtCscF0MZJB4Qop_10bingo_core19conflict_resolutionNtB5_25ConflictResolutionManager13update_config
FNDA:7,_RNvMs0_NtCscF0MZJB4Qop_10bingo_core19conflict_resolutionNtB5_25ConflictResolutionManager12update_stats
FNDA:1,_RNvMs0_NtCscF0MZJB4Qop_10bingo_core19conflict_resolutionNtB5_25ConflictResolutionManager13register_rule
FNDA:10,_RNvMs0_NtCscF0MZJB4Qop_10bingo_core19conflict_resolutionNtB5_25ConflictResolutionManager15get_primary_key
FNDA:4,_RNvMs0_NtCscF0MZJB4Qop_10bingo_core19conflict_resolutionNtB5_25ConflictResolutionManager17apply_tie_breaker
FNDA:3,_RNvMs0_NtCscF0MZJB4Qop_10bingo_core19conflict_resolutionNtB5_25ConflictResolutionManager17get_rule_priority
FNDA:3,_RNvMs0_NtCscF0MZJB4Qop_10bingo_core19conflict_resolutionNtB5_25ConflictResolutionManager17get_rule_salience
FNDA:8,_RNvMs0_NtCscF0MZJB4Qop_10bingo_core19conflict_resolutionNtB5_25ConflictResolutionManager17resolve_conflicts
FNDA:2,_RNvMs0_NtCscF0MZJB4Qop_10bingo_core19conflict_resolutionNtB5_25ConflictResolutionManager17set_rule_priority
FNDA:2,_RNvMs0_NtCscF0MZJB4Qop_10bingo_core19conflict_resolutionNtB5_25ConflictResolutionManager17set_rule_salience
FNDA:0,_RNvMs0_NtCscF0MZJB4Qop_10bingo_core19conflict_resolutionNtB5_25ConflictResolutionManager21log_resolution_result
FNDA:17,_RNvMs0_NtCscF0MZJB4Qop_10bingo_core19conflict_resolutionNtB5_25ConflictResolutionManager23compare_rule_executions
FNDA:9,_RNvMs0_NtCscF0MZJB4Qop_10bingo_core19conflict_resolutionNtB5_25ConflictResolutionManager26apply_tie_breaker_to_group
FNDA:12,_RNvMs0_NtCscF0MZJB4Qop_10bingo_core19conflict_resolutionNtB5_25ConflictResolutionManager3new
FNDA:3,_RNvMs0_NtCscF0MZJB4Qop_10bingo_core19conflict_resolutionNtB5_25ConflictResolutionManager9get_stats
FNDA:20,_RNvMs_NtCscF0MZJB4Qop_10bingo_core19conflict_resolutionNtB4_13RuleExecution3new
FNDA:9,_RNvMs_NtCscF0MZJB4Qop_10bingo_core19conflict_resolutionNtB4_13RuleExecution7rule_id
FNDA:14,_RNvMs_NtCscF0MZJB4Qop_10bingo_core19conflict_resolutionNtB4_13RuleExecution9rule_name
FNDA:8,_RNvXNtCscF0MZJB4Qop_10bingo_core19conflict_resolutionNtB2_24ConflictResolutionConfigNtNtCsd2KPTObkMr_4core7default7Default7default
FNDA:6,_RNvXs1_NtCscF0MZJB4Qop_10bingo_core19conflict_resolutionNtB5_25ConflictResolutionManagerNtNtCsd2KPTObkMr_4core7default7Default7default
FNDA:23,_RNCNvNtNtCscF0MZJB4Qop_10bingo_core19conflict_resolution5tests16create_test_rule0B7_
FNDA:20,_RNvNtNtCscF0MZJB4Qop_10bingo_core19conflict_resolution5tests16create_test_fact
FNDA:20,_RNvNtNtCscF0MZJB4Qop_10bingo_core19conflict_resolution5tests16create_test_rule
FNDA:20,_RNvNtNtCscF0MZJB4Qop_10bingo_core19conflict_resolution5tests26create_test_rule_execution
FNDA:1,_RNvNtNtCscF0MZJB4Qop_10bingo_core19conflict_resolution5testss_22test_rule_registration
FNDA:1,_RNvNtNtCscF0MZJB4Qop_10bingo_core19conflict_resolution5testss_23test_empty_conflict_set
FNDA:1,_RNvNtNtCscF0MZJB4Qop_10bingo_core19conflict_resolution5testss_24test_statistics_tracking
FNDA:1,_RNvNtNtCscF0MZJB4Qop_10bingo_core19conflict_resolution5testss_26test_rule_priority_updates
FNDA:1,_RNvNtNtCscF0MZJB4Qop_10bingo_core19conflict_resolution5testss_26test_rule_salience_updates
FNDA:1,_RNvNtNtCscF0MZJB4Qop_10bingo_core19conflict_resolution5testss_27test_tie_breaker_resolution
FNDA:1,_RNvNtNtCscF0MZJB4Qop_10bingo_core19conflict_resolution5testss_28test_conflict_set_size_limit
FNDA:1,_RNvNtNtCscF0MZJB4Qop_10bingo_core19conflict_resolution5testss_29test_lexicographic_resolution
FNDA:1,_RNvNtNtCscF0MZJB4Qop_10bingo_core19conflict_resolution5testss_30test_priority_based_resolution
FNDA:1,_RNvNtNtCscF0MZJB4Qop_10bingo_core19conflict_resolution5testss_30test_salience_based_resolution
FNDA:1,_RNvNtNtCscF0MZJB4Qop_10bingo_core19conflict_resolution5testss_33test_specificity_based_resolution
FNDA:1,_RNvNtNtCscF0MZJB4Qop_10bingo_core19conflict_resolution5testss_41test_conflict_resolution_manager_creation
FNF:40
FNH:36
DA:69,8
DA:70,8
DA:71,8
DA:72,8
DA:73,8
DA:74,8
DA:75,8
DA:76,8
DA:100,20
DA:101,20
DA:102,20
DA:103,20
DA:104,20
DA:105,20
DA:106,20
DA:107,20
DA:108,20
DA:109,20
DA:110,20
DA:111,20
DA:112,20
DA:113,20
DA:114,20
DA:115,20
DA:116,20
DA:117,20
DA:120,9
DA:121,9
DA:122,9
DA:125,14
DA:126,14
DA:127,14
DA:161,12
DA:162,12
DA:163,12
DA:164,12
DA:165,12
DA:166,12
DA:167,12
DA:168,12
DA:169,12
DA:172,1
DA:173,1
DA:174,1
DA:175,1
DA:176,1
DA:177,1
DA:178,1
DA:179,1
DA:180,1
DA:182,1
DA:186,0
DA:189,1
DA:190,1
DA:194,8
DA:195,8
DA:196,8
DA:197,8
DA:198,8
DA:199,8
DA:201,8
DA:202,1
DA:203,7
DA:206,7
DA:207,1
DA:208,0
DA:210,0
DA:212,1
DA:213,6
DA:215,7
DA:216,0
DA:217,0
DA:219,0
DA:221,7
DA:224,7
DA:225,16
DA:228,7
DA:229,4
DA:230,3
DA:233,7
DA:234,7
DA:236,7
DA:237,0
DA:238,7
DA:240,7
DA:241,0
DA:242,0
DA:243,0
DA:246,7
DA:247,8
DA:250,17
DA:251,17
DA:252,17
DA:253,17
DA:254,17
DA:255,17
DA:256,17
DA:259,7
DA:263,3
DA:267,0
DA:271,3
DA:275,4
DA:277,0
DA:279,17
DA:282,4
DA:283,4
DA:284,4
DA:285,4
DA:286,4
DA:288,4
DA:289,4
DA:290,4
DA:292,14
DA:293,10
DA:295,10
DA:296,1
DA:297,1
DA:299,9
DA:300,5
DA:301,5
DA:302,5
DA:303,5
DA:304,5
DA:305,9
DA:306,9
DA:311,4
DA:312,4
DA:313,4
DA:314,4
DA:315,4
DA:316,0
DA:317,4
DA:318,0
DA:320,4
DA:321,4
DA:324,9
DA:325,9
DA:326,9
DA:327,9
DA:328,9
DA:329,9
DA:330,8
DA:331,1
DA:333,1
DA:334,9
DA:337,10
DA:338,10
DA:339,10
DA:340,10
DA:341,10
DA:342,10
DA:343,10
DA:344,0
DA:345,0
DA:346,0
DA:347,0
DA:350,0
DA:353,10
DA:356,7
DA:357,7
DA:358,7
DA:359,7
DA:360,7
DA:363,7
DA:364,7
DA:365,7
DA:366,7
DA:369,0
DA:370,0
DA:371,0
DA:372,0
DA:373,0
DA:374,0
DA:375,0
DA:379,0
DA:382,0
DA:385,3
DA:386,3
DA:387,3
DA:390,0
DA:391,0
DA:392,0
DA:395,0
DA:396,0
DA:397,0
DA:398,0
DA:401,0
DA:402,0
DA:403,0
DA:406,3
DA:407,3
DA:408,3
DA:411,2
DA:412,2
DA:413,2
DA:416,0
DA:418,2
DA:419,2
DA:422,3
DA:423,3
DA:424,3
DA:427,2
DA:428,2
DA:429,2
DA:432,0
DA:434,2
DA:435,2
DA:439,6
DA:440,6
DA:441,6
DA:450,20
DA:451,20
DA:452,20
DA:453,23
DA:454,23
DA:455,23
DA:456,23
DA:457,20
DA:459,20
DA:460,20
DA:461,20
DA:462,20
DA:463,20
DA:464,20
DA:465,20
DA:466,20
DA:467,20
DA:469,20
DA:470,20
DA:471,20
DA:473,20
DA:474,20
DA:475,20
DA:476,20
DA:477,20
DA:478,20
DA:479,20
DA:481,20
DA:482,20
DA:483,20
DA:484,20
DA:485,20
DA:486,20
DA:487,20
DA:488,20
DA:489,20
DA:490,20
DA:491,20
DA:494,1
DA:495,1
DA:496,1
DA:498,1
DA:499,1
DA:500,1
DA:503,1
DA:504,1
DA:506,1
DA:507,1
DA:509,1
DA:510,1
DA:511,1
DA:514,1
DA:515,1
DA:517,1
DA:518,1
DA:519,1
DA:520,1
DA:523,1
DA:526,1
DA:527,1
DA:528,1
DA:529,1
DA:532,1
DA:533,1
DA:534,1
DA:535,1
DA:536,1
DA:537,1
DA:538,1
DA:539,1
DA:541,1
DA:542,1
DA:543,1
DA:544,1
DA:547,1
DA:550,1
DA:551,1
DA:552,1
DA:553,1
DA:556,1
DA:557,1
DA:558,1
DA:559,1
DA:560,1
DA:561,1
DA:562,1
DA:563,1
DA:565,1
DA:566,1
DA:567,1
DA:568,1
DA:571,1
DA:574,1
DA:575,1
DA:576,1
DA:577,1
DA:580,1
DA:581,1
DA:582,1
DA:583,1
DA:584,1
DA:585,1
DA:586,1
DA:587,1
DA:589,1
DA:590,1
DA:591,1
DA:592,1
DA:595,1
DA:598,1
DA:599,1
DA:600,1
DA:601,1
DA:604,1
DA:605,1
DA:606,1
DA:607,1
DA:608,1
DA:609,1
DA:610,1
DA:611,1
DA:613,1
DA:614,1
DA:615,1
DA:616,1
DA:619,1
DA:623,1
DA:624,1
DA:625,1
DA:626,1
DA:629,1
DA:630,1
DA:631,1
DA:632,1
DA:633,1
DA:636,1
DA:637,1
DA:638,1
DA:640,1
DA:641,1
DA:642,1
DA:643,1
DA:646,1
DA:647,1
DA:648,1
DA:651,1
DA:652,1
DA:654,1
DA:655,1
DA:656,1
DA:659,1
DA:661,1
DA:662,1
DA:663,1
DA:664,1
DA:665,1
DA:666,1
DA:669,1
DA:670,1
DA:672,1
DA:673,1
DA:675,1
DA:676,1
DA:677,1
DA:680,1
DA:681,1
DA:683,1
DA:684,1
DA:686,1
DA:687,1
DA:688,1
BRF:0
BRH:0
LF:383
LH:343
end_of_record
SF:/Users/hl/Projects/private/bingo/crates/bingo-core/src/debugging.rs
FN:556,_RNvMs_NtCs6Pl1wmeKPjF_10bingo_core9debuggingNtB4_12DebugManager11start_trace
FN:723,_RNvMs_NtCs6Pl1wmeKPjF_10bingo_core9debuggingNtB4_12DebugManager12should_break
FN:591,_RNvMs_NtCs6Pl1wmeKPjF_10bingo_core9debuggingNtB4_12DebugManager14complete_trace
FN:527,_RNvMs_NtCs6Pl1wmeKPjF_10bingo_core9debuggingNtB4_12DebugManager14create_session
FN:700,_RNvMs_NtCs6Pl1wmeKPjF_10bingo_core9debuggingNtB4_12DebugManager14set_breakpoint
FN:771,_RNvMs_NtCs6Pl1wmeKPjF_10bingo_core9debuggingNtB4_12DebugManager16get_rule_profile
FN:875,_RNvMs_NtCs6Pl1wmeKPjF_10bingo_core9debuggingNtB4_12DebugManager18cleanup_old_traces
FN:776,_RNvMs_NtCs6Pl1wmeKPjF_10bingo_core9debuggingNtB4_12DebugManager18get_session_traces
FN:785,_RNvMs_NtCs6Pl1wmeKPjF_10bingo_core9debuggingNtB4_12DebugManager19analyze_bottlenecks
FN:647,_RNvMs_NtCs6Pl1wmeKPjF_10bingo_core9debuggingNtB4_12DebugManager19update_rule_profile
FN:584,_RNvMs_NtCs6Pl1wmeKPjF_10bingo_core9debuggingNtB4_12DebugManager21record_node_execution
FN:834,_RNvMs_NtCs6Pl1wmeKPjF_10bingo_core9debuggingNtB4_12DebugManager22generate_optimizations
FN:610,_RNvMs_NtCs6Pl1wmeKPjF_10bingo_core9debuggingNtB4_12DebugManager27calculate_trace_performance
FN:516,_RNvMs_NtCs6Pl1wmeKPjF_10bingo_core9debuggingNtB4_12DebugManager3new
FN:882,_RNvMs_NtCs6Pl1wmeKPjF_10bingo_core9debuggingNtB4_12DebugManager9get_stats
FN:918,_RNvNtCs6Pl1wmeKPjF_10bingo_core9debugging17current_timestamp
FN:509,_RNvXNtCs6Pl1wmeKPjF_10bingo_core9debuggingNtB2_12DebugManagerNtNtCsd2KPTObkMr_4core7default7Default7default
FN:888,_RNvXs0_NtCs6Pl1wmeKPjF_10bingo_core9debuggingNtB5_11DebugConfigNtNtCsd2KPTObkMr_4core7default7Default7default
FN:903,_RNvXs1_NtCs6Pl1wmeKPjF_10bingo_core9debuggingNtB5_16TracePerformanceNtNtCsd2KPTObkMr_4core7default7Default7default
FN:537,_RNCNvMs_NtCs6Pl1wmeKPjF_10bingo_core9debuggingNtB6_12DebugManager14create_session0B8_
FN:878,_RNCNvMs_NtCs6Pl1wmeKPjF_10bingo_core9debuggingNtB6_12DebugManager18cleanup_old_traces0B8_
FN:778,_RNCNvMs_NtCs6Pl1wmeKPjF_10bingo_core9debuggingNtB6_12DebugManager18get_session_traces0B8_
FN:796,_RNCNvMs_NtCs6Pl1wmeKPjF_10bingo_core9debuggingNtB6_12DebugManager19analyze_bottlenecks0B8_
FN:648,_RNCNvMs_NtCs6Pl1wmeKPjF_10bingo_core9debuggingNtB6_12DebugManager19update_rule_profile0B8_
FN:537,_RNCNvMs_NtCscF0MZJB4Qop_10bingo_core9debuggingNtB6_12DebugManager14create_session0B8_
FN:878,_RNCNvMs_NtCscF0MZJB4Qop_10bingo_core9debuggingNtB6_12DebugManager18cleanup_old_traces0B8_
FN:778,_RNCNvMs_NtCscF0MZJB4Qop_10bingo_core9debuggingNtB6_12DebugManager18get_session_traces0B8_
FN:796,_RNCNvMs_NtCscF0MZJB4Qop_10bingo_core9debuggingNtB6_12DebugManager19analyze_bottlenecks0B8_
FN:648,_RNCNvMs_NtCscF0MZJB4Qop_10bingo_core9debuggingNtB6_12DebugManager19update_rule_profile0B8_
FN:556,_RNvMs_NtCscF0MZJB4Qop_10bingo_core9debuggingNtB4_12DebugManager11start_trace
FN:723,_RNvMs_NtCscF0MZJB4Qop_10bingo_core9debuggingNtB4_12DebugManager12should_break
FN:591,_RNvMs_NtCscF0MZJB4Qop_10bingo_core9debuggingNtB4_12DebugManager14complete_trace
FN:527,_RNvMs_NtCscF0MZJB4Qop_10bingo_core9debuggingNtB4_12DebugManager14create_session
FN:700,_RNvMs_NtCscF0MZJB4Qop_10bingo_core9debuggingNtB4_12DebugManager14set_breakpoint
FN:771,_RNvMs_NtCscF0MZJB4Qop_10bingo_core9debuggingNtB4_12DebugManager16get_rule_profile
FN:875,_RNvMs_NtCscF0MZJB4Qop_10bingo_core9debuggingNtB4_12DebugManager18cleanup_old_traces
FN:776,_RNvMs_NtCscF0MZJB4Qop_10bingo_core9debuggingNtB4_12DebugManager18get_session_traces
FN:785,_RNvMs_NtCscF0MZJB4Qop_10bingo_core9debuggingNtB4_12DebugManager19analyze_bottlenecks
FN:647,_RNvMs_NtCscF0MZJB4Qop_10bingo_core9debuggingNtB4_12DebugManager19update_rule_profile
FN:584,_RNvMs_NtCscF0MZJB4Qop_10bingo_core9debuggingNtB4_12DebugManager21record_node_execution
FN:834,_RNvMs_NtCscF0MZJB4Qop_10bingo_core9debuggingNtB4_12DebugManager22generate_optimizations
FN:610,_RNvMs_NtCscF0MZJB4Qop_10bingo_core9debuggingNtB4_12DebugManager27calculate_trace_performance
FN:516,_RNvMs_NtCscF0MZJB4Qop_10bingo_core9debuggingNtB4_12DebugManager3new
FN:882,_RNvMs_NtCscF0MZJB4Qop_10bingo_core9debuggingNtB4_12DebugManager9get_stats
FN:918,_RNvNtCscF0MZJB4Qop_10bingo_core9debugging17current_timestamp
FN:509,_RNvXNtCscF0MZJB4Qop_10bingo_core9debuggingNtB2_12DebugManagerNtNtCsd2KPTObkMr_4core7default7Default7default
FN:888,_RNvXs0_NtCscF0MZJB4Qop_10bingo_core9debuggingNtB5_11DebugConfigNtNtCsd2KPTObkMr_4core7default7Default7default
FN:903,_RNvXs1_NtCscF0MZJB4Qop_10bingo_core9debuggingNtB5_16TracePerformanceNtNtCsd2KPTObkMr_4core7default7Default7default
FNDA:0,_RNvMs_NtCs6Pl1wmeKPjF_10bingo_core9debuggingNtB4_12DebugManager11start_trace
FNDA:0,_RNvMs_NtCs6Pl1wmeKPjF_10bingo_core9debuggingNtB4_12DebugManager12should_break
FNDA:0,_RNvMs_NtCs6Pl1wmeKPjF_10bingo_core9debuggingNtB4_12DebugManager14complete_trace
FNDA:0,_RNvMs_NtCs6Pl1wmeKPjF_10bingo_core9debuggingNtB4_12DebugManager14create_session
FNDA:0,_RNvMs_NtCs6Pl1wmeKPjF_10bingo_core9debuggingNtB4_12DebugManager14set_breakpoint
FNDA:0,_RNvMs_NtCs6Pl1wmeKPjF_10bingo_core9debuggingNtB4_12DebugManager16get_rule_profile
FNDA:0,_RNvMs_NtCs6Pl1wmeKPjF_10bingo_core9debuggingNtB4_12DebugManager18cleanup_old_traces
FNDA:0,_RNvMs_NtCs6Pl1wmeKPjF_10bingo_core9debuggingNtB4_12DebugManager18get_session_traces
FNDA:0,_RNvMs_NtCs6Pl1wmeKPjF_10bingo_core9debuggingNtB4_12DebugManager19analyze_bottlenecks
FNDA:0,_RNvMs_NtCs6Pl1wmeKPjF_10bingo_core9debuggingNtB4_12DebugManager19update_rule_profile
FNDA:0,_RNvMs_NtCs6Pl1wmeKPjF_10bingo_core9debuggingNtB4_12DebugManager21record_node_execution
FNDA:0,_RNvMs_NtCs6Pl1wmeKPjF_10bingo_core9debuggingNtB4_12DebugManager22generate_optimizations
FNDA:0,_RNvMs_NtCs6Pl1wmeKPjF_10bingo_core9debuggingNtB4_12DebugManager27calculate_trace_performance
FNDA:0,_RNvMs_NtCs6Pl1wmeKPjF_10bingo_core9debuggingNtB4_12DebugManager3new
FNDA:0,_RNvMs_NtCs6Pl1wmeKPjF_10bingo_core9debuggingNtB4_12DebugManager9get_stats
FNDA:0,_RNvNtCs6Pl1wmeKPjF_10bingo_core9debugging17current_timestamp
FNDA:0,_RNvXNtCs6Pl1wmeKPjF_10bingo_core9debuggingNtB2_12DebugManagerNtNtCsd2KPTObkMr_4core7default7Default7default
FNDA:0,_RNvXs0_NtCs6Pl1wmeKPjF_10bingo_core9debuggingNtB5_11DebugConfigNtNtCsd2KPTObkMr_4core7default7Default7default
FNDA:0,_RNvXs1_NtCs6Pl1wmeKPjF_10bingo_core9debuggingNtB5_16TracePerformanceNtNtCsd2KPTObkMr_4core7default7Default7default
FNDA:0,_RNCNvMs_NtCs6Pl1wmeKPjF_10bingo_core9debuggingNtB6_12DebugManager14create_session0B8_
FNDA:0,_RNCNvMs_NtCs6Pl1wmeKPjF_10bingo_core9debuggingNtB6_12DebugManager18cleanup_old_traces0B8_
FNDA:0,_RNCNvMs_NtCs6Pl1wmeKPjF_10bingo_core9debuggingNtB6_12DebugManager18get_session_traces0B8_
FNDA:0,_RNCNvMs_NtCs6Pl1wmeKPjF_10bingo_core9debuggingNtB6_12DebugManager19analyze_bottlenecks0B8_
FNDA:0,_RNCNvMs_NtCs6Pl1wmeKPjF_10bingo_core9debuggingNtB6_12DebugManager19update_rule_profile0B8_
FNDA:0,_RNCNvMs_NtCscF0MZJB4Qop_10bingo_core9debuggingNtB6_12DebugManager14create_session0B8_
FNDA:0,_RNCNvMs_NtCscF0MZJB4Qop_10bingo_core9debuggingNtB6_12DebugManager18cleanup_old_traces0B8_
FNDA:0,_RNCNvMs_NtCscF0MZJB4Qop_10bingo_core9debuggingNtB6_12DebugManager18get_session_traces0B8_
FNDA:0,_RNCNvMs_NtCscF0MZJB4Qop_10bingo_core9debuggingNtB6_12DebugManager19analyze_bottlenecks0B8_
FNDA:0,_RNCNvMs_NtCscF0MZJB4Qop_10bingo_core9debuggingNtB6_12DebugManager19update_rule_profile0B8_
FNDA:0,_RNvMs_NtCscF0MZJB4Qop_10bingo_core9debuggingNtB4_12DebugManager11start_trace
FNDA:0,_RNvMs_NtCscF0MZJB4Qop_10bingo_core9debuggingNtB4_12DebugManager12should_break
FNDA:0,_RNvMs_NtCscF0MZJB4Qop_10bingo_core9debuggingNtB4_12DebugManager14complete_trace
FNDA:0,_RNvMs_NtCscF0MZJB4Qop_10bingo_core9debuggingNtB4_12DebugManager14create_session
FNDA:0,_RNvMs_NtCscF0MZJB4Qop_10bingo_core9debuggingNtB4_12DebugManager14set_breakpoint
FNDA:0,_RNvMs_NtCscF0MZJB4Qop_10bingo_core9debuggingNtB4_12DebugManager16get_rule_profile
FNDA:0,_RNvMs_NtCscF0MZJB4Qop_10bingo_core9debuggingNtB4_12DebugManager18cleanup_old_traces
FNDA:0,_RNvMs_NtCscF0MZJB4Qop_10bingo_core9debuggingNtB4_12DebugManager18get_session_traces
FNDA:0,_RNvMs_NtCscF0MZJB4Qop_10bingo_core9debuggingNtB4_12DebugManager19analyze_bottlenecks
FNDA:0,_RNvMs_NtCscF0MZJB4Qop_10bingo_core9debuggingNtB4_12DebugManager19update_rule_profile
FNDA:0,_RNvMs_NtCscF0MZJB4Qop_10bingo_core9debuggingNtB4_12DebugManager21record_node_execution
FNDA:0,_RNvMs_NtCscF0MZJB4Qop_10bingo_core9debuggingNtB4_12DebugManager22generate_optimizations
FNDA:0,_RNvMs_NtCscF0MZJB4Qop_10bingo_core9debuggingNtB4_12DebugManager27calculate_trace_performance
FNDA:0,_RNvMs_NtCscF0MZJB4Qop_10bingo_core9debuggingNtB4_12DebugManager3new
FNDA:0,_RNvMs_NtCscF0MZJB4Qop_10bingo_core9debuggingNtB4_12DebugManager9get_stats
FNDA:0,_RNvNtCscF0MZJB4Qop_10bingo_core9debugging17current_timestamp
FNDA:0,_RNvXNtCscF0MZJB4Qop_10bingo_core9debuggingNtB2_12DebugManagerNtNtCsd2KPTObkMr_4core7default7Default7default
FNDA:0,_RNvXs0_NtCscF0MZJB4Qop_10bingo_core9debuggingNtB5_11DebugConfigNtNtCsd2KPTObkMr_4core7default7Default7default
FNDA:0,_RNvXs1_NtCscF0MZJB4Qop_10bingo_core9debuggingNtB5_16TracePerformanceNtNtCsd2KPTObkMr_4core7default7Default7default
FNF:24
FNH:0
DA:509,0
DA:510,0
DA:511,0
DA:516,0
DA:517,0
DA:518,0
DA:519,0
DA:520,0
DA:521,0
DA:522,0
DA:523,0
DA:524,0
DA:527,0
DA:528,0
DA:529,0
DA:530,0
DA:531,0
DA:532,0
DA:533,0
DA:534,0
DA:535,0
DA:536,0
DA:537,0
DA:538,0
DA:539,0
DA:540,0
DA:541,0
DA:544,0
DA:545,0
DA:547,0
DA:549,0
DA:552,0
DA:553,0
DA:556,0
DA:557,0
DA:558,0
DA:559,0
DA:560,0
DA:561,0
DA:562,0
DA:563,0
DA:564,0
DA:565,0
DA:566,0
DA:567,0
DA:568,0
DA:569,0
DA:571,0
DA:572,0
DA:574,0
DA:577,0
DA:580,0
DA:581,0
DA:584,0
DA:585,0
DA:586,0
DA:587,0
DA:588,0
DA:591,0
DA:592,0
DA:593,0
DA:594,0
DA:595,0
DA:597,0
DA:601,0
DA:604,0
DA:605,0
DA:606,0
DA:607,0
DA:610,0
DA:611,0
DA:612,0
DA:613,0
DA:614,0
DA:615,0
DA:616,0
DA:617,0
DA:618,0
DA:619,0
DA:620,0
DA:622,0
DA:623,0
DA:624,0
DA:625,0
DA:626,0
DA:627,0
DA:630,0
DA:631,0
DA:632,0
DA:634,0
DA:635,0
DA:636,0
DA:638,0
DA:639,0
DA:642,0
DA:643,0
DA:644,0
DA:647,0
DA:648,0
DA:649,0
DA:650,0
DA:651,0
DA:652,0
DA:653,0
DA:654,0
DA:655,0
DA:656,0
DA:657,0
DA:658,0
DA:659,0
DA:660,0
DA:661,0
DA:662,0
DA:663,0
DA:665,0
DA:667,0
DA:668,0
DA:669,0
DA:671,0
DA:672,0
DA:673,0
DA:674,0
DA:676,0
DA:677,0
DA:678,0
DA:679,0
DA:680,0
DA:681,0
DA:683,0
DA:686,0
DA:687,0
DA:688,0
DA:689,0
DA:690,0
DA:691,0
DA:694,0
DA:695,0
DA:696,0
DA:697,0
DA:700,0
DA:701,0
DA:702,0
DA:703,0
DA:704,0
DA:705,0
DA:706,0
DA:707,0
DA:708,0
DA:710,0
DA:713,0
DA:716,0
DA:718,0
DA:720,0
DA:723,0
DA:724,0
DA:725,0
DA:726,0
DA:727,0
DA:728,0
DA:729,0
DA:730,0
DA:731,0
DA:732,0
DA:733,0
DA:735,0
DA:736,0
DA:737,0
DA:738,0
DA:740,0
DA:742,0
DA:743,0
DA:745,0
DA:747,0
DA:751,0
DA:752,0
DA:753,0
DA:757,0
DA:759,0
DA:761,0
DA:763,0
DA:766,0
DA:768,0
DA:771,0
DA:772,0
DA:773,0
DA:776,0
DA:777,0
DA:778,0
DA:780,0
DA:782,0
DA:785,0
DA:786,0
DA:787,0
DA:790,0
DA:791,0
DA:792,0
DA:793,0
DA:794,0
DA:795,0
DA:796,0
DA:797,0
DA:799,0
DA:800,0
DA:802,0
DA:803,0
DA:804,0
DA:805,0
DA:806,0
DA:807,0
DA:808,0
DA:809,0
DA:810,0
DA:811,0
DA:814,0
DA:815,0
DA:816,0
DA:817,0
DA:818,0
DA:819,0
DA:820,0
DA:821,0
DA:822,0
DA:823,0
DA:824,0
DA:826,0
DA:827,0
DA:829,0
DA:831,0
DA:834,0
DA:835,0
DA:837,0
DA:839,0
DA:840,0
DA:841,0
DA:842,0
DA:843,0
DA:844,0
DA:845,0
DA:846,0
DA:847,0
DA:848,0
DA:849,0
DA:850,0
DA:851,0
DA:852,0
DA:855,0
DA:856,0
DA:857,0
DA:858,0
DA:859,0
DA:860,0
DA:861,0
DA:862,0
DA:863,0
DA:864,0
DA:865,0
DA:866,0
DA:867,0
DA:868,0
DA:871,0
DA:872,0
DA:875,0
DA:876,0
DA:878,0
DA:879,0
DA:882,0
DA:883,0
DA:884,0
DA:888,0
DA:889,0
DA:890,0
DA:891,0
DA:892,0
DA:893,0
DA:894,0
DA:895,0
DA:896,0
DA:897,0
DA:898,0
DA:899,0
DA:903,0
DA:904,0
DA:905,0
DA:906,0
DA:907,0
DA:908,0
DA:909,0
DA:910,0
DA:911,0
DA:912,0
DA:913,0
DA:914,0
DA:918,0
DA:919,0
DA:920,0
BRF:0
BRH:0
LF:300
LH:0
end_of_record
SF:/Users/hl/Projects/private/bingo/crates/bingo-core/src/engine.rs
FN:1860,_RINvMs3_NtCs6Pl1wmeKPjF_10bingo_core6engineNtB6_11BingoEngine14parallel_countppEB8_
FN:1870,_RNCINvMs3_NtCs6Pl1wmeKPjF_10bingo_core6engineNtB8_11BingoEngine14parallel_countppE0Ba_
FN:162,_RNvMNtCs6Pl1wmeKPjF_10bingo_core6engineNtB2_11BingoEngine11remove_rule
FN:133,_RNvMNtCs6Pl1wmeKPjF_10bingo_core6engineNtB2_11BingoEngine11update_rule
FN:96,_RNvMNtCs6Pl1wmeKPjF_10bingo_core6engineNtB2_11BingoEngine18add_rule_optimized
FN:55,_RNvMNtCs6Pl1wmeKPjF_10bingo_core6engineNtB2_11BingoEngine8add_rule
FN:191,_RNvMNtCs6Pl1wmeKPjF_10bingo_core6engineNtB2_11BingoEngine9add_rules
FN:591,_RNvMs0_NtCs6Pl1wmeKPjF_10bingo_core6engineNtB5_11BingoEngine10fact_count
FN:438,_RNvMs0_NtCs6Pl1wmeKPjF_10bingo_core6engineNtB5_11BingoEngine13process_facts
FN:567,_RNvMs0_NtCs6Pl1wmeKPjF_10bingo_core6engineNtB5_11BingoEngine15get_field_by_id
FN:577,_RNvMs0_NtCs6Pl1wmeKPjF_10bingo_core6engineNtB5_11BingoEngine17get_created_facts
FN:558,_RNvMs0_NtCs6Pl1wmeKPjF_10bingo_core6engineNtB5_11BingoEngine17lookup_fact_by_id
FN:586,_RNvMs0_NtCs6Pl1wmeKPjF_10bingo_core6engineNtB5_11BingoEngine19clear_created_facts
FN:494,_RNvMs0_NtCs6Pl1wmeKPjF_10bingo_core6engineNtB5_11BingoEngine8evaluate
FN:767,_RNvMs1_NtCs6Pl1wmeKPjF_10bingo_core6engineNtB5_11BingoEngine17evaluate_parallel
FN:1306,_RNvMs1_NtCs6Pl1wmeKPjF_10bingo_core6engineNtB5_11BingoEngine17set_rule_priority
FN:1317,_RNvMs1_NtCs6Pl1wmeKPjF_10bingo_core6engineNtB5_11BingoEngine17set_rule_salience
FN:819,_RNvMs1_NtCs6Pl1wmeKPjF_10bingo_core6engineNtB5_11BingoEngine18add_rules_parallel
FN:643,_RNvMs1_NtCs6Pl1wmeKPjF_10bingo_core6engineNtB5_11BingoEngine22process_facts_parallel
FN:1277,_RNvMs1_NtCs6Pl1wmeKPjF_10bingo_core6engineNtB5_11BingoEngine22register_rule_priority
FN:1413,_RNvMs1_NtCs6Pl1wmeKPjF_10bingo_core6engineNtB5_11BingoEngine22resolve_rule_conflicts
FN:1224,_RNvMs1_NtCs6Pl1wmeKPjF_10bingo_core6engineNtB5_11BingoEngine23configure_parallel_rete
FN:875,_RNvMs1_NtCs6Pl1wmeKPjF_10bingo_core6engineNtB5_11BingoEngine23evaluate_rules_parallel
FN:1203,_RNvMs1_NtCs6Pl1wmeKPjF_10bingo_core6engineNtB5_11BingoEngine23get_parallel_rete_stats
FN:1236,_RNvMs1_NtCs6Pl1wmeKPjF_10bingo_core6engineNtB5_11BingoEngine25reset_parallel_rete_stats
FN:1170,_RNvMs1_NtCs6Pl1wmeKPjF_10bingo_core6engineNtB5_11BingoEngine26add_rules_to_parallel_rete
FN:1021,_RNvMs1_NtCs6Pl1wmeKPjF_10bingo_core6engineNtB5_11BingoEngine27get_optimal_parallel_config
FN:704,_RNvMs1_NtCs6Pl1wmeKPjF_10bingo_core6engineNtB5_11BingoEngine27process_fact_parallel_rules
FN:1351,_RNvMs1_NtCs6Pl1wmeKPjF_10bingo_core6engineNtB5_11BingoEngine29configure_conflict_resolution
FN:1375,_RNvMs1_NtCs6Pl1wmeKPjF_10bingo_core6engineNtB5_11BingoEngine29get_conflict_resolution_stats
FN:1322,_RNvMs1_NtCs6Pl1wmeKPjF_10bingo_core6engineNtB5_11BingoEngine30get_conflict_resolution_config
FN:1053,_RNvMs1_NtCs6Pl1wmeKPjF_10bingo_core6engineNtB5_11BingoEngine31process_facts_advanced_parallel
FN:1107,_RNvMs1_NtCs6Pl1wmeKPjF_10bingo_core6engineNtB5_11BingoEngine31process_facts_parallel_threaded
FN:1388,_RNvMs1_NtCs6Pl1wmeKPjF_10bingo_core6engineNtB5_11BingoEngine31reset_conflict_resolution_stats
FN:997,_RNvMs1_NtCs6Pl1wmeKPjF_10bingo_core6engineNtB5_11BingoEngine32get_concurrent_memory_pool_stats
FN:952,_RNvMs1_NtCs6Pl1wmeKPjF_10bingo_core6engineNtB5_11BingoEngine33configure_concurrent_memory_pools
FN:1535,_RNvMs2_NtCs6Pl1wmeKPjF_10bingo_core6engineNtB5_11BingoEngine21get_rule_dependencies
FN:1592,_RNvMs2_NtCs6Pl1wmeKPjF_10bingo_core6engineNtB5_11BingoEngine22get_execution_clusters
FN:1458,_RNvMs2_NtCs6Pl1wmeKPjF_10bingo_core6engineNtB5_11BingoEngine25analyze_rule_dependencies
FN:1562,_RNvMs2_NtCs6Pl1wmeKPjF_10bingo_core6engineNtB5_11BingoEngine25get_circular_dependencies
FN:1496,_RNvMs2_NtCs6Pl1wmeKPjF_10bingo_core6engineNtB5_11BingoEngine29get_dependency_analysis_stats
FN:1642,_RNvMs2_NtCs6Pl1wmeKPjF_10bingo_core6engineNtB5_11BingoEngine30get_dependency_analysis_config
FN:1509,_RNvMs2_NtCs6Pl1wmeKPjF_10bingo_core6engineNtB5_11BingoEngine31reset_dependency_analysis_stats
FN:1622,_RNvMs2_NtCs6Pl1wmeKPjF_10bingo_core6engineNtB5_11BingoEngine33update_dependency_analysis_config
FN:1770,_RNvMs3_NtCs6Pl1wmeKPjF_10bingo_core6engineNtB5_11BingoEngine10rule_count
FN:1837,_RNvMs3_NtCs6Pl1wmeKPjF_10bingo_core6engineNtB5_11BingoEngine12parallel_sum
FN:1780,_RNvMs3_NtCs6Pl1wmeKPjF_10bingo_core6engineNtB5_11BingoEngine12profiler_mut
FN:1807,_RNvMs3_NtCs6Pl1wmeKPjF_10bingo_core6engineNtB5_11BingoEngine15reset_profiling
FN:1887,_RNvMs3_NtCs6Pl1wmeKPjF_10bingo_core6engineNtB5_11BingoEngine16parallel_average
FN:1910,_RNvMs3_NtCs6Pl1wmeKPjF_10bingo_core6engineNtB5_11BingoEngine16parallel_min_max
FN:1938,_RNvMs3_NtCs6Pl1wmeKPjF_10bingo_core6engineNtB5_11BingoEngine17parallel_variance
FN:1699,_RNvMs3_NtCs6Pl1wmeKPjF_10bingo_core6engineNtB5_11BingoEngine21get_memory_pool_stats
FN:1802,_RNvMs3_NtCs6Pl1wmeKPjF_10bingo_core6engineNtB5_11BingoEngine21set_profiling_enabled
FN:1732,_RNvMs3_NtCs6Pl1wmeKPjF_10bingo_core6engineNtB5_11BingoEngine23get_serialization_stats
FN:1722,_RNvMs3_NtCs6Pl1wmeKPjF_10bingo_core6engineNtB5_11BingoEngine24get_optimization_metrics
FN:1765,_RNvMs3_NtCs6Pl1wmeKPjF_10bingo_core6engineNtB5_11BingoEngine25cleanup_lazy_aggregations
FN:1743,_RNvMs3_NtCs6Pl1wmeKPjF_10bingo_core6engineNtB5_11BingoEngine26get_lazy_aggregation_stats
FN:1709,_RNvMs3_NtCs6Pl1wmeKPjF_10bingo_core6engineNtB5_11BingoEngine26get_memory_pool_efficiency
FN:1785,_RNvMs3_NtCs6Pl1wmeKPjF_10bingo_core6engineNtB5_11BingoEngine27generate_performance_report
FN:1687,_RNvMs3_NtCs6Pl1wmeKPjF_10bingo_core6engineNtB5_11BingoEngine28get_action_result_pool_stats
FN:1755,_RNvMs3_NtCs6Pl1wmeKPjF_10bingo_core6engineNtB5_11BingoEngine34invalidate_lazy_aggregation_caches
FN:1775,_RNvMs3_NtCs6Pl1wmeKPjF_10bingo_core6engineNtB5_11BingoEngine8profiler
FN:1670,_RNvMs3_NtCs6Pl1wmeKPjF_10bingo_core6engineNtB5_11BingoEngine9get_stats
FN:2255,_RNvMs4_NtCs6Pl1wmeKPjF_10bingo_core6engineNtB5_11BingoEngine10calculator
FN:2250,_RNvMs4_NtCs6Pl1wmeKPjF_10bingo_core6engineNtB5_11BingoEngine10fact_store
FN:2245,_RNvMs4_NtCs6Pl1wmeKPjF_10bingo_core6engineNtB5_11BingoEngine12rete_network
FN:2199,_RNvMs4_NtCs6Pl1wmeKPjF_10bingo_core6engineNtB5_11BingoEngine21add_monitoring_sample
FN:2286,_RNvMs4_NtCs6Pl1wmeKPjF_10bingo_core6engineNtB5_11BingoEngine21get_alpha_memory_info
FN:2291,_RNvMs4_NtCs6Pl1wmeKPjF_10bingo_core6engineNtB5_11BingoEngine22get_alpha_memory_stats
FN:2218,_RNvMs4_NtCs6Pl1wmeKPjF_10bingo_core6engineNtB5_11BingoEngine22get_cpu_usage_estimate
FN:2136,_RNvMs4_NtCs6Pl1wmeKPjF_10bingo_core6engineNtB5_11BingoEngine23get_system_health_score
FN:2156,_RNvMs4_NtCs6Pl1wmeKPjF_10bingo_core6engineNtB5_11BingoEngine23record_business_metrics
FN:2281,_RNvMs4_NtCs6Pl1wmeKPjF_10bingo_core6engineNtB5_11BingoEngine24get_working_memory_stats
FN:1986,_RNvMs4_NtCs6Pl1wmeKPjF_10bingo_core6engineNtB5_11BingoEngine24with_enhanced_monitoring
FN:2210,_RNvMs4_NtCs6Pl1wmeKPjF_10bingo_core6engineNtB5_11BingoEngine25get_memory_usage_estimate
FN:2260,_RNvMs4_NtCs6Pl1wmeKPjF_10bingo_core6engineNtB5_11BingoEngine26add_fact_to_working_memory
FN:2107,_RNvMs4_NtCs6Pl1wmeKPjF_10bingo_core6engineNtB5_11BingoEngine26generate_monitoring_report
FN:2028,_RNvMs4_NtCs6Pl1wmeKPjF_10bingo_core6engineNtB5_11BingoEngine26record_performance_metrics
FN:2230,_RNvMs4_NtCs6Pl1wmeKPjF_10bingo_core6engineNtB5_11BingoEngine30get_average_processing_latency
FN:2272,_RNvMs4_NtCs6Pl1wmeKPjF_10bingo_core6engineNtB5_11BingoEngine31remove_fact_from_working_memory
FN:343,_RNvMs_NtCs6Pl1wmeKPjF_10bingo_core6engineNtB4_11BingoEngine13with_capacity
FN:293,_RNvMs_NtCs6Pl1wmeKPjF_10bingo_core6engineNtB4_11BingoEngine3new
FN:394,_RNvMs_NtCs6Pl1wmeKPjF_10bingo_core6engineNtB4_11BingoEngine5clear
FN:2297,_RNvXs5_NtCs6Pl1wmeKPjF_10bingo_core6engineNtB5_11BingoEngineNtNtCsd2KPTObkMr_4core7default7Default7default
FN:62,_RNCNCNvMNtCs6Pl1wmeKPjF_10bingo_core6engineNtB6_11BingoEngine8add_rule00B8_
FN:667,_RNCNCNvMs1_NtCs6Pl1wmeKPjF_10bingo_core6engineNtB9_11BingoEngine22process_facts_parallel00Bb_
FN:725,_RNCNCNvMs1_NtCs6Pl1wmeKPjF_10bingo_core6engineNtB9_11BingoEngine27process_fact_parallel_rules00Bb_
FN:169,_RNCNvMNtCs6Pl1wmeKPjF_10bingo_core6engineNtB4_11BingoEngine11remove_rule0B6_
FN:170,_RNCNvMNtCs6Pl1wmeKPjF_10bingo_core6engineNtB4_11BingoEngine11remove_rules_0B6_
FN:139,_RNCNvMNtCs6Pl1wmeKPjF_10bingo_core6engineNtB4_11BingoEngine11update_rule0B6_
FN:140,_RNCNvMNtCs6Pl1wmeKPjF_10bingo_core6engineNtB4_11BingoEngine11update_rules_0B6_
FN:102,_RNCNvMNtCs6Pl1wmeKPjF_10bingo_core6engineNtB4_11BingoEngine18add_rule_optimized0B6_
FN:58,_RNCNvMNtCs6Pl1wmeKPjF_10bingo_core6engineNtB4_11BingoEngine8add_rule0B6_
FN:449,_RNCNvMs0_NtCs6Pl1wmeKPjF_10bingo_core6engineNtB7_11BingoEngine13process_facts0B9_
FN:568,_RNCNvMs0_NtCs6Pl1wmeKPjF_10bingo_core6engineNtB7_11BingoEngine15get_field_by_id0B9_
FN:835,_RNCNvMs1_NtCs6Pl1wmeKPjF_10bingo_core6engineNtB7_11BingoEngine18add_rules_parallel0B9_
FN:664,_RNCNvMs1_NtCs6Pl1wmeKPjF_10bingo_core6engineNtB7_11BingoEngine22process_facts_parallel0B9_
FN:913,_RNCNvMs1_NtCs6Pl1wmeKPjF_10bingo_core6engineNtB7_11BingoEngine23evaluate_rules_parallel0B9_
FN:722,_RNCNvMs1_NtCs6Pl1wmeKPjF_10bingo_core6engineNtB7_11BingoEngine27process_fact_parallel_rules0B9_
FN:1071,_RNCNvMs1_NtCs6Pl1wmeKPjF_10bingo_core6engineNtB7_11BingoEngine31process_facts_advanced_parallel0B9_
FN:1129,_RNCNvMs1_NtCs6Pl1wmeKPjF_10bingo_core6engineNtB7_11BingoEngine31process_facts_parallel_threaded0B9_
FN:1139,_RNCNvMs1_NtCs6Pl1wmeKPjF_10bingo_core6engineNtB7_11BingoEngine31process_facts_parallel_threadeds_0B9_
FN:965,_RNCNvMs1_NtCs6Pl1wmeKPjF_10bingo_core6engineNtB7_11BingoEngine33configure_concurrent_memory_pools0B9_
FN:1470,_RNCNvMs2_NtCs6Pl1wmeKPjF_10bingo_core6engineNtB7_11BingoEngine25analyze_rule_dependencies0B9_
FN:1843,_RNCNvMs3_NtCs6Pl1wmeKPjF_10bingo_core6engineNtB7_11BingoEngine12parallel_sum0B9_
FN:1893,_RNCNvMs3_NtCs6Pl1wmeKPjF_10bingo_core6engineNtB7_11BingoEngine16parallel_average0B9_
FN:1916,_RNCNvMs3_NtCs6Pl1wmeKPjF_10bingo_core6engineNtB7_11BingoEngine16parallel_min_max0B9_
FN:1944,_RNCNvMs3_NtCs6Pl1wmeKPjF_10bingo_core6engineNtB7_11BingoEngine17parallel_variance0B9_
FN:2202,_RNCNvMs4_NtCs6Pl1wmeKPjF_10bingo_core6engineNtB7_11BingoEngine21add_monitoring_sample0B9_
FN:2174,_RNCNvMs4_NtCs6Pl1wmeKPjF_10bingo_core6engineNtB7_11BingoEngine23record_business_metrics0B9_
FN:2267,_RNCNvMs4_NtCs6Pl1wmeKPjF_10bingo_core6engineNtB7_11BingoEngine26add_fact_to_working_memory0B9_
FN:2112,_RNCNvMs4_NtCs6Pl1wmeKPjF_10bingo_core6engineNtB7_11BingoEngine26generate_monitoring_report0B9_
FN:2070,_RNCNvMs4_NtCs6Pl1wmeKPjF_10bingo_core6engineNtB7_11BingoEngine26record_performance_metrics0B9_
FN:2274,_RNCNvMs4_NtCs6Pl1wmeKPjF_10bingo_core6engineNtB7_11BingoEngine31remove_fact_from_working_memory0B9_
FN:2298,_RNCNvXs5_NtCs6Pl1wmeKPjF_10bingo_core6engineNtB7_11BingoEngineNtNtCsd2KPTObkMr_4core7default7Default7default0B9_
FN:1860,_RINvMs3_NtCscF0MZJB4Qop_10bingo_core6engineNtB6_11BingoEngine14parallel_countppEB8_
FN:1870,_RNCINvMs3_NtCscF0MZJB4Qop_10bingo_core6engineNtB8_11BingoEngine14parallel_countppE0Ba_
FN:62,_RNCNCNvMNtCscF0MZJB4Qop_10bingo_core6engineNtB6_11BingoEngine8add_rule00B8_
FN:667,_RNCNCNvMs1_NtCscF0MZJB4Qop_10bingo_core6engineNtB9_11BingoEngine22process_facts_parallel00Bb_
FN:725,_RNCNCNvMs1_NtCscF0MZJB4Qop_10bingo_core6engineNtB9_11BingoEngine27process_fact_parallel_rules00Bb_
FN:169,_RNCNvMNtCscF0MZJB4Qop_10bingo_core6engineNtB4_11BingoEngine11remove_rule0B6_
FN:170,_RNCNvMNtCscF0MZJB4Qop_10bingo_core6engineNtB4_11BingoEngine11remove_rules_0B6_
FN:139,_RNCNvMNtCscF0MZJB4Qop_10bingo_core6engineNtB4_11BingoEngine11update_rule0B6_
FN:140,_RNCNvMNtCscF0MZJB4Qop_10bingo_core6engineNtB4_11BingoEngine11update_rules_0B6_
FN:102,_RNCNvMNtCscF0MZJB4Qop_10bingo_core6engineNtB4_11BingoEngine18add_rule_optimized0B6_
FN:58,_RNCNvMNtCscF0MZJB4Qop_10bingo_core6engineNtB4_11BingoEngine8add_rule0B6_
FN:449,_RNCNvMs0_NtCscF0MZJB4Qop_10bingo_core6engineNtB7_11BingoEngine13process_facts0B9_
FN:568,_RNCNvMs0_NtCscF0MZJB4Qop_10bingo_core6engineNtB7_11BingoEngine15get_field_by_id0B9_
FN:835,_RNCNvMs1_NtCscF0MZJB4Qop_10bingo_core6engineNtB7_11BingoEngine18add_rules_parallel0B9_
FN:664,_RNCNvMs1_NtCscF0MZJB4Qop_10bingo_core6engineNtB7_11BingoEngine22process_facts_parallel0B9_
FN:913,_RNCNvMs1_NtCscF0MZJB4Qop_10bingo_core6engineNtB7_11BingoEngine23evaluate_rules_parallel0B9_
FN:722,_RNCNvMs1_NtCscF0MZJB4Qop_10bingo_core6engineNtB7_11BingoEngine27process_fact_parallel_rules0B9_
FN:1071,_RNCNvMs1_NtCscF0MZJB4Qop_10bingo_core6engineNtB7_11BingoEngine31process_facts_advanced_parallel0B9_
FN:1129,_RNCNvMs1_NtCscF0MZJB4Qop_10bingo_core6engineNtB7_11BingoEngine31process_facts_parallel_threaded0B9_
FN:1139,_RNCNvMs1_NtCscF0MZJB4Qop_10bingo_core6engineNtB7_11BingoEngine31process_facts_parallel_threadeds_0B9_
FN:965,_RNCNvMs1_NtCscF0MZJB4Qop_10bingo_core6engineNtB7_11BingoEngine33configure_concurrent_memory_pools0B9_
FN:1470,_RNCNvMs2_NtCscF0MZJB4Qop_10bingo_core6engineNtB7_11BingoEngine25analyze_rule_dependencies0B9_
FN:1843,_RNCNvMs3_NtCscF0MZJB4Qop_10bingo_core6engineNtB7_11BingoEngine12parallel_sum0B9_
FN:1893,_RNCNvMs3_NtCscF0MZJB4Qop_10bingo_core6engineNtB7_11BingoEngine16parallel_average0B9_
FN:1916,_RNCNvMs3_NtCscF0MZJB4Qop_10bingo_core6engineNtB7_11BingoEngine16parallel_min_max0B9_
FN:1944,_RNCNvMs3_NtCscF0MZJB4Qop_10bingo_core6engineNtB7_11BingoEngine17parallel_variance0B9_
FN:2202,_RNCNvMs4_NtCscF0MZJB4Qop_10bingo_core6engineNtB7_11BingoEngine21add_monitoring_sample0B9_
FN:2174,_RNCNvMs4_NtCscF0MZJB4Qop_10bingo_core6engineNtB7_11BingoEngine23record_business_metrics0B9_
FN:2267,_RNCNvMs4_NtCscF0MZJB4Qop_10bingo_core6engineNtB7_11BingoEngine26add_fact_to_working_memory0B9_
FN:2112,_RNCNvMs4_NtCscF0MZJB4Qop_10bingo_core6engineNtB7_11BingoEngine26generate_monitoring_report0B9_
FN:2070,_RNCNvMs4_NtCscF0MZJB4Qop_10bingo_core6engineNtB7_11BingoEngine26record_performance_metrics0B9_
FN:2274,_RNCNvMs4_NtCscF0MZJB4Qop_10bingo_core6engineNtB7_11BingoEngine31remove_fact_from_working_memory0B9_
FN:2298,_RNCNvXs5_NtCscF0MZJB4Qop_10bingo_core6engineNtB7_11BingoEngineNtNtCsd2KPTObkMr_4core7default7Default7default0B9_
FN:162,_RNvMNtCscF0MZJB4Qop_10bingo_core6engineNtB2_11BingoEngine11remove_rule
FN:133,_RNvMNtCscF0MZJB4Qop_10bingo_core6engineNtB2_11BingoEngine11update_rule
FN:96,_RNvMNtCscF0MZJB4Qop_10bingo_core6engineNtB2_11BingoEngine18add_rule_optimized
FN:55,_RNvMNtCscF0MZJB4Qop_10bingo_core6engineNtB2_11BingoEngine8add_rule
FN:191,_RNvMNtCscF0MZJB4Qop_10bingo_core6engineNtB2_11BingoEngine9add_rules
FN:591,_RNvMs0_NtCscF0MZJB4Qop_10bingo_core6engineNtB5_11BingoEngine10fact_count
FN:438,_RNvMs0_NtCscF0MZJB4Qop_10bingo_core6engineNtB5_11BingoEngine13process_facts
FN:567,_RNvMs0_NtCscF0MZJB4Qop_10bingo_core6engineNtB5_11BingoEngine15get_field_by_id
FN:577,_RNvMs0_NtCscF0MZJB4Qop_10bingo_core6engineNtB5_11BingoEngine17get_created_facts
FN:558,_RNvMs0_NtCscF0MZJB4Qop_10bingo_core6engineNtB5_11BingoEngine17lookup_fact_by_id
FN:586,_RNvMs0_NtCscF0MZJB4Qop_10bingo_core6engineNtB5_11BingoEngine19clear_created_facts
FN:494,_RNvMs0_NtCscF0MZJB4Qop_10bingo_core6engineNtB5_11BingoEngine8evaluate
FN:767,_RNvMs1_NtCscF0MZJB4Qop_10bingo_core6engineNtB5_11BingoEngine17evaluate_parallel
FN:1306,_RNvMs1_NtCscF0MZJB4Qop_10bingo_core6engineNtB5_11BingoEngine17set_rule_priority
FN:1317,_RNvMs1_NtCscF0MZJB4Qop_10bingo_core6engineNtB5_11BingoEngine17set_rule_salience
FN:819,_RNvMs1_NtCscF0MZJB4Qop_10bingo_core6engineNtB5_11BingoEngine18add_rules_parallel
FN:643,_RNvMs1_NtCscF0MZJB4Qop_10bingo_core6engineNtB5_11BingoEngine22process_facts_parallel
FN:1277,_RNvMs1_NtCscF0MZJB4Qop_10bingo_core6engineNtB5_11BingoEngine22register_rule_priority
FN:1413,_RNvMs1_NtCscF0MZJB4Qop_10bingo_core6engineNtB5_11BingoEngine22resolve_rule_conflicts
FN:1224,_RNvMs1_NtCscF0MZJB4Qop_10bingo_core6engineNtB5_11BingoEngine23configure_parallel_rete
FN:875,_RNvMs1_NtCscF0MZJB4Qop_10bingo_core6engineNtB5_11BingoEngine23evaluate_rules_parallel
FN:1203,_RNvMs1_NtCscF0MZJB4Qop_10bingo_core6engineNtB5_11BingoEngine23get_parallel_rete_stats
FN:1236,_RNvMs1_NtCscF0MZJB4Qop_10bingo_core6engineNtB5_11BingoEngine25reset_parallel_rete_stats
FN:1170,_RNvMs1_NtCscF0MZJB4Qop_10bingo_core6engineNtB5_11BingoEngine26add_rules_to_parallel_rete
FN:1021,_RNvMs1_NtCscF0MZJB4Qop_10bingo_core6engineNtB5_11BingoEngine27get_optimal_parallel_config
FN:704,_RNvMs1_NtCscF0MZJB4Qop_10bingo_core6engineNtB5_11BingoEngine27process_fact_parallel_rules
FN:1351,_RNvMs1_NtCscF0MZJB4Qop_10bingo_core6engineNtB5_11BingoEngine29configure_conflict_resolution
FN:1375,_RNvMs1_NtCscF0MZJB4Qop_10bingo_core6engineNtB5_11BingoEngine29get_conflict_resolution_stats
FN:1322,_RNvMs1_NtCscF0MZJB4Qop_10bingo_core6engineNtB5_11BingoEngine30get_conflict_resolution_config
FN:1053,_RNvMs1_NtCscF0MZJB4Qop_10bingo_core6engineNtB5_11BingoEngine31process_facts_advanced_parallel
FN:1107,_RNvMs1_NtCscF0MZJB4Qop_10bingo_core6engineNtB5_11BingoEngine31process_facts_parallel_threaded
FN:1388,_RNvMs1_NtCscF0MZJB4Qop_10bingo_core6engineNtB5_11BingoEngine31reset_conflict_resolution_stats
FN:997,_RNvMs1_NtCscF0MZJB4Qop_10bingo_core6engineNtB5_11BingoEngine32get_concurrent_memory_pool_stats
FN:952,_RNvMs1_NtCscF0MZJB4Qop_10bingo_core6engineNtB5_11BingoEngine33configure_concurrent_memory_pools
FN:1535,_RNvMs2_NtCscF0MZJB4Qop_10bingo_core6engineNtB5_11BingoEngine21get_rule_dependencies
FN:1592,_RNvMs2_NtCscF0MZJB4Qop_10bingo_core6engineNtB5_11BingoEngine22get_execution_clusters
FN:1458,_RNvMs2_NtCscF0MZJB4Qop_10bingo_core6engineNtB5_11BingoEngine25analyze_rule_dependencies
FN:1562,_RNvMs2_NtCscF0MZJB4Qop_10bingo_core6engineNtB5_11BingoEngine25get_circular_dependencies
FN:1496,_RNvMs2_NtCscF0MZJB4Qop_10bingo_core6engineNtB5_11BingoEngine29get_dependency_analysis_stats
FN:1642,_RNvMs2_NtCscF0MZJB4Qop_10bingo_core6engineNtB5_11BingoEngine30get_dependency_analysis_config
FN:1509,_RNvMs2_NtCscF0MZJB4Qop_10bingo_core6engineNtB5_11BingoEngine31reset_dependency_analysis_stats
FN:1622,_RNvMs2_NtCscF0MZJB4Qop_10bingo_core6engineNtB5_11BingoEngine33update_dependency_analysis_config
FN:1770,_RNvMs3_NtCscF0MZJB4Qop_10bingo_core6engineNtB5_11BingoEngine10rule_count
FN:1837,_RNvMs3_NtCscF0MZJB4Qop_10bingo_core6engineNtB5_11BingoEngine12parallel_sum
FN:1780,_RNvMs3_NtCscF0MZJB4Qop_10bingo_core6engineNtB5_11BingoEngine12profiler_mut
FN:1807,_RNvMs3_NtCscF0MZJB4Qop_10bingo_core6engineNtB5_11BingoEngine15reset_profiling
FN:1887,_RNvMs3_NtCscF0MZJB4Qop_10bingo_core6engineNtB5_11BingoEngine16parallel_average
FN:1910,_RNvMs3_NtCscF0MZJB4Qop_10bingo_core6engineNtB5_11BingoEngine16parallel_min_max
FN:1938,_RNvMs3_NtCscF0MZJB4Qop_10bingo_core6engineNtB5_11BingoEngine17parallel_variance
FN:1699,_RNvMs3_NtCscF0MZJB4Qop_10bingo_core6engineNtB5_11BingoEngine21get_memory_pool_stats
FN:1802,_RNvMs3_NtCscF0MZJB4Qop_10bingo_core6engineNtB5_11BingoEngine21set_profiling_enabled
FN:1732,_RNvMs3_NtCscF0MZJB4Qop_10bingo_core6engineNtB5_11BingoEngine23get_serialization_stats
FN:1722,_RNvMs3_NtCscF0MZJB4Qop_10bingo_core6engineNtB5_11BingoEngine24get_optimization_metrics
FN:1765,_RNvMs3_NtCscF0MZJB4Qop_10bingo_core6engineNtB5_11BingoEngine25cleanup_lazy_aggregations
FN:1743,_RNvMs3_NtCscF0MZJB4Qop_10bingo_core6engineNtB5_11BingoEngine26get_lazy_aggregation_stats
FN:1709,_RNvMs3_NtCscF0MZJB4Qop_10bingo_core6engineNtB5_11BingoEngine26get_memory_pool_efficiency
FN:1785,_RNvMs3_NtCscF0MZJB4Qop_10bingo_core6engineNtB5_11BingoEngine27generate_performance_report
FN:1687,_RNvMs3_NtCscF0MZJB4Qop_10bingo_core6engineNtB5_11BingoEngine28get_action_result_pool_stats
FN:1755,_RNvMs3_NtCscF0MZJB4Qop_10bingo_core6engineNtB5_11BingoEngine34invalidate_lazy_aggregation_caches
FN:1775,_RNvMs3_NtCscF0MZJB4Qop_10bingo_core6engineNtB5_11BingoEngine8profiler
FN:1670,_RNvMs3_NtCscF0MZJB4Qop_10bingo_core6engineNtB5_11BingoEngine9get_stats
FN:2255,_RNvMs4_NtCscF0MZJB4Qop_10bingo_core6engineNtB5_11BingoEngine10calculator
FN:2250,_RNvMs4_NtCscF0MZJB4Qop_10bingo_core6engineNtB5_11BingoEngine10fact_store
FN:2245,_RNvMs4_NtCscF0MZJB4Qop_10bingo_core6engineNtB5_11BingoEngine12rete_network
FN:2199,_RNvMs4_NtCscF0MZJB4Qop_10bingo_core6engineNtB5_11BingoEngine21add_monitoring_sample
FN:2286,_RNvMs4_NtCscF0MZJB4Qop_10bingo_core6engineNtB5_11BingoEngine21get_alpha_memory_info
FN:2291,_RNvMs4_NtCscF0MZJB4Qop_10bingo_core6engineNtB5_11BingoEngine22get_alpha_memory_stats
FN:2218,_RNvMs4_NtCscF0MZJB4Qop_10bingo_core6engineNtB5_11BingoEngine22get_cpu_usage_estimate
FN:2136,_RNvMs4_NtCscF0MZJB4Qop_10bingo_core6engineNtB5_11BingoEngine23get_system_health_score
FN:2156,_RNvMs4_NtCscF0MZJB4Qop_10bingo_core6engineNtB5_11BingoEngine23record_business_metrics
FN:2281,_RNvMs4_NtCscF0MZJB4Qop_10bingo_core6engineNtB5_11BingoEngine24get_working_memory_stats
FN:1986,_RNvMs4_NtCscF0MZJB4Qop_10bingo_core6engineNtB5_11BingoEngine24with_enhanced_monitoring
FN:2210,_RNvMs4_NtCscF0MZJB4Qop_10bingo_core6engineNtB5_11BingoEngine25get_memory_usage_estimate
FN:2260,_RNvMs4_NtCscF0MZJB4Qop_10bingo_core6engineNtB5_11BingoEngine26add_fact_to_working_memory
FN:2107,_RNvMs4_NtCscF0MZJB4Qop_10bingo_core6engineNtB5_11BingoEngine26generate_monitoring_report
FN:2028,_RNvMs4_NtCscF0MZJB4Qop_10bingo_core6engineNtB5_11BingoEngine26record_performance_metrics
FN:2230,_RNvMs4_NtCscF0MZJB4Qop_10bingo_core6engineNtB5_11BingoEngine30get_average_processing_latency
FN:2272,_RNvMs4_NtCscF0MZJB4Qop_10bingo_core6engineNtB5_11BingoEngine31remove_fact_from_working_memory
FN:343,_RNvMs_NtCscF0MZJB4Qop_10bingo_core6engineNtB4_11BingoEngine13with_capacity
FN:293,_RNvMs_NtCscF0MZJB4Qop_10bingo_core6engineNtB4_11BingoEngine3new
FN:394,_RNvMs_NtCscF0MZJB4Qop_10bingo_core6engineNtB4_11BingoEngine5clear
FN:2297,_RNvXs5_NtCscF0MZJB4Qop_10bingo_core6engineNtB5_11BingoEngineNtNtCsd2KPTObkMr_4core7default7Default7default
FNDA:0,_RINvMs3_NtCs6Pl1wmeKPjF_10bingo_core6engineNtB6_11BingoEngine14parallel_countppEB8_
FNDA:0,_RNCINvMs3_NtCs6Pl1wmeKPjF_10bingo_core6engineNtB8_11BingoEngine14parallel_countppE0Ba_
FNDA:0,_RNvMNtCs6Pl1wmeKPjF_10bingo_core6engineNtB2_11BingoEngine11remove_rule
FNDA:0,_RNvMNtCs6Pl1wmeKPjF_10bingo_core6engineNtB2_11BingoEngine11update_rule
FNDA:0,_RNvMNtCs6Pl1wmeKPjF_10bingo_core6engineNtB2_11BingoEngine18add_rule_optimized
FNDA:0,_RNvMNtCs6Pl1wmeKPjF_10bingo_core6engineNtB2_11BingoEngine8add_rule
FNDA:0,_RNvMNtCs6Pl1wmeKPjF_10bingo_core6engineNtB2_11BingoEngine9add_rules
FNDA:0,_RNvMs0_NtCs6Pl1wmeKPjF_10bingo_core6engineNtB5_11BingoEngine10fact_count
FNDA:0,_RNvMs0_NtCs6Pl1wmeKPjF_10bingo_core6engineNtB5_11BingoEngine13process_facts
FNDA:0,_RNvMs0_NtCs6Pl1wmeKPjF_10bingo_core6engineNtB5_11BingoEngine15get_field_by_id
FNDA:0,_RNvMs0_NtCs6Pl1wmeKPjF_10bingo_core6engineNtB5_11BingoEngine17get_created_facts
FNDA:0,_RNvMs0_NtCs6Pl1wmeKPjF_10bingo_core6engineNtB5_11BingoEngine17lookup_fact_by_id
FNDA:0,_RNvMs0_NtCs6Pl1wmeKPjF_10bingo_core6engineNtB5_11BingoEngine19clear_created_facts
FNDA:0,_RNvMs0_NtCs6Pl1wmeKPjF_10bingo_core6engineNtB5_11BingoEngine8evaluate
FNDA:0,_RNvMs1_NtCs6Pl1wmeKPjF_10bingo_core6engineNtB5_11BingoEngine17evaluate_parallel
FNDA:0,_RNvMs1_NtCs6Pl1wmeKPjF_10bingo_core6engineNtB5_11BingoEngine17set_rule_priority
FNDA:0,_RNvMs1_NtCs6Pl1wmeKPjF_10bingo_core6engineNtB5_11BingoEngine17set_rule_salience
FNDA:0,_RNvMs1_NtCs6Pl1wmeKPjF_10bingo_core6engineNtB5_11BingoEngine18add_rules_parallel
FNDA:0,_RNvMs1_NtCs6Pl1wmeKPjF_10bingo_core6engineNtB5_11BingoEngine22process_facts_parallel
FNDA:0,_RNvMs1_NtCs6Pl1wmeKPjF_10bingo_core6engineNtB5_11BingoEngine22register_rule_priority
FNDA:0,_RNvMs1_NtCs6Pl1wmeKPjF_10bingo_core6engineNtB5_11BingoEngine22resolve_rule_conflicts
FNDA:0,_RNvMs1_NtCs6Pl1wmeKPjF_10bingo_core6engineNtB5_11BingoEngine23configure_parallel_rete
FNDA:0,_RNvMs1_NtCs6Pl1wmeKPjF_10bingo_core6engineNtB5_11BingoEngine23evaluate_rules_parallel
FNDA:0,_RNvMs1_NtCs6Pl1wmeKPjF_10bingo_core6engineNtB5_11BingoEngine23get_parallel_rete_stats
FNDA:0,_RNvMs1_NtCs6Pl1wmeKPjF_10bingo_core6engineNtB5_11BingoEngine25reset_parallel_rete_stats
FNDA:0,_RNvMs1_NtCs6Pl1wmeKPjF_10bingo_core6engineNtB5_11BingoEngine26add_rules_to_parallel_rete
FNDA:0,_RNvMs1_NtCs6Pl1wmeKPjF_10bingo_core6engineNtB5_11BingoEngine27get_optimal_parallel_config
FNDA:0,_RNvMs1_NtCs6Pl1wmeKPjF_10bingo_core6engineNtB5_11BingoEngine27process_fact_parallel_rules
FNDA:0,_RNvMs1_NtCs6Pl1wmeKPjF_10bingo_core6engineNtB5_11BingoEngine29configure_conflict_resolution
FNDA:0,_RNvMs1_NtCs6Pl1wmeKPjF_10bingo_core6engineNtB5_11BingoEngine29get_conflict_resolution_stats
FNDA:0,_RNvMs1_NtCs6Pl1wmeKPjF_10bingo_core6engineNtB5_11BingoEngine30get_conflict_resolution_config
FNDA:0,_RNvMs1_NtCs6Pl1wmeKPjF_10bingo_core6engineNtB5_11BingoEngine31process_facts_advanced_parallel
FNDA:0,_RNvMs1_NtCs6Pl1wmeKPjF_10bingo_core6engineNtB5_11BingoEngine31process_facts_parallel_threaded
FNDA:0,_RNvMs1_NtCs6Pl1wmeKPjF_10bingo_core6engineNtB5_11BingoEngine31reset_conflict_resolution_stats
FNDA:0,_RNvMs1_NtCs6Pl1wmeKPjF_10bingo_core6engineNtB5_11BingoEngine32get_concurrent_memory_pool_stats
FNDA:0,_RNvMs1_NtCs6Pl1wmeKPjF_10bingo_core6engineNtB5_11BingoEngine33configure_concurrent_memory_pools
FNDA:0,_RNvMs2_NtCs6Pl1wmeKPjF_10bingo_core6engineNtB5_11BingoEngine21get_rule_dependencies
FNDA:0,_RNvMs2_NtCs6Pl1wmeKPjF_10bingo_core6engineNtB5_11BingoEngine22get_execution_clusters
FNDA:0,_RNvMs2_NtCs6Pl1wmeKPjF_10bingo_core6engineNtB5_11BingoEngine25analyze_rule_dependencies
FNDA:0,_RNvMs2_NtCs6Pl1wmeKPjF_10bingo_core6engineNtB5_11BingoEngine25get_circular_dependencies
FNDA:0,_RNvMs2_NtCs6Pl1wmeKPjF_10bingo_core6engineNtB5_11BingoEngine29get_dependency_analysis_stats
FNDA:0,_RNvMs2_NtCs6Pl1wmeKPjF_10bingo_core6engineNtB5_11BingoEngine30get_dependency_analysis_config
FNDA:0,_RNvMs2_NtCs6Pl1wmeKPjF_10bingo_core6engineNtB5_11BingoEngine31reset_dependency_analysis_stats
FNDA:0,_RNvMs2_NtCs6Pl1wmeKPjF_10bingo_core6engineNtB5_11BingoEngine33update_dependency_analysis_config
FNDA:0,_RNvMs3_NtCs6Pl1wmeKPjF_10bingo_core6engineNtB5_11BingoEngine10rule_count
FNDA:0,_RNvMs3_NtCs6Pl1wmeKPjF_10bingo_core6engineNtB5_11BingoEngine12parallel_sum
FNDA:0,_RNvMs3_NtCs6Pl1wmeKPjF_10bingo_core6engineNtB5_11BingoEngine12profiler_mut
FNDA:0,_RNvMs3_NtCs6Pl1wmeKPjF_10bingo_core6engineNtB5_11BingoEngine15reset_profiling
FNDA:0,_RNvMs3_NtCs6Pl1wmeKPjF_10bingo_core6engineNtB5_11BingoEngine16parallel_average
FNDA:0,_RNvMs3_NtCs6Pl1wmeKPjF_10bingo_core6engineNtB5_11BingoEngine16parallel_min_max
FNDA:0,_RNvMs3_NtCs6Pl1wmeKPjF_10bingo_core6engineNtB5_11BingoEngine17parallel_variance
FNDA:0,_RNvMs3_NtCs6Pl1wmeKPjF_10bingo_core6engineNtB5_11BingoEngine21get_memory_pool_stats
FNDA:0,_RNvMs3_NtCs6Pl1wmeKPjF_10bingo_core6engineNtB5_11BingoEngine21set_profiling_enabled
FNDA:0,_RNvMs3_NtCs6Pl1wmeKPjF_10bingo_core6engineNtB5_11BingoEngine23get_serialization_stats
FNDA:0,_RNvMs3_NtCs6Pl1wmeKPjF_10bingo_core6engineNtB5_11BingoEngine24get_optimization_metrics
FNDA:0,_RNvMs3_NtCs6Pl1wmeKPjF_10bingo_core6engineNtB5_11BingoEngine25cleanup_lazy_aggregations
FNDA:0,_RNvMs3_NtCs6Pl1wmeKPjF_10bingo_core6engineNtB5_11BingoEngine26get_lazy_aggregation_stats
FNDA:0,_RNvMs3_NtCs6Pl1wmeKPjF_10bingo_core6engineNtB5_11BingoEngine26get_memory_pool_efficiency
FNDA:0,_RNvMs3_NtCs6Pl1wmeKPjF_10bingo_core6engineNtB5_11BingoEngine27generate_performance_report
FNDA:0,_RNvMs3_NtCs6Pl1wmeKPjF_10bingo_core6engineNtB5_11BingoEngine28get_action_result_pool_stats
FNDA:0,_RNvMs3_NtCs6Pl1wmeKPjF_10bingo_core6engineNtB5_11BingoEngine34invalidate_lazy_aggregation_caches
FNDA:0,_RNvMs3_NtCs6Pl1wmeKPjF_10bingo_core6engineNtB5_11BingoEngine8profiler
FNDA:0,_RNvMs3_NtCs6Pl1wmeKPjF_10bingo_core6engineNtB5_11BingoEngine9get_stats
FNDA:0,_RNvMs4_NtCs6Pl1wmeKPjF_10bingo_core6engineNtB5_11BingoEngine10calculator
FNDA:0,_RNvMs4_NtCs6Pl1wmeKPjF_10bingo_core6engineNtB5_11BingoEngine10fact_store
FNDA:0,_RNvMs4_NtCs6Pl1wmeKPjF_10bingo_core6engineNtB5_11BingoEngine12rete_network
FNDA:0,_RNvMs4_NtCs6Pl1wmeKPjF_10bingo_core6engineNtB5_11BingoEngine21add_monitoring_sample
FNDA:0,_RNvMs4_NtCs6Pl1wmeKPjF_10bingo_core6engineNtB5_11BingoEngine21get_alpha_memory_info
FNDA:0,_RNvMs4_NtCs6Pl1wmeKPjF_10bingo_core6engineNtB5_11BingoEngine22get_alpha_memory_stats
FNDA:0,_RNvMs4_NtCs6Pl1wmeKPjF_10bingo_core6engineNtB5_11BingoEngine22get_cpu_usage_estimate
FNDA:0,_RNvMs4_NtCs6Pl1wmeKPjF_10bingo_core6engineNtB5_11BingoEngine23get_system_health_score
FNDA:0,_RNvMs4_NtCs6Pl1wmeKPjF_10bingo_core6engineNtB5_11BingoEngine23record_business_metrics
FNDA:0,_RNvMs4_NtCs6Pl1wmeKPjF_10bingo_core6engineNtB5_11BingoEngine24get_working_memory_stats
FNDA:0,_RNvMs4_NtCs6Pl1wmeKPjF_10bingo_core6engineNtB5_11BingoEngine24with_enhanced_monitoring
FNDA:0,_RNvMs4_NtCs6Pl1wmeKPjF_10bingo_core6engineNtB5_11BingoEngine25get_memory_usage_estimate
FNDA:0,_RNvMs4_NtCs6Pl1wmeKPjF_10bingo_core6engineNtB5_11BingoEngine26add_fact_to_working_memory
FNDA:0,_RNvMs4_NtCs6Pl1wmeKPjF_10bingo_core6engineNtB5_11BingoEngine26generate_monitoring_report
FNDA:0,_RNvMs4_NtCs6Pl1wmeKPjF_10bingo_core6engineNtB5_11BingoEngine26record_performance_metrics
FNDA:0,_RNvMs4_NtCs6Pl1wmeKPjF_10bingo_core6engineNtB5_11BingoEngine30get_average_processing_latency
FNDA:0,_RNvMs4_NtCs6Pl1wmeKPjF_10bingo_core6engineNtB5_11BingoEngine31remove_fact_from_working_memory
FNDA:0,_RNvMs_NtCs6Pl1wmeKPjF_10bingo_core6engineNtB4_11BingoEngine13with_capacity
FNDA:0,_RNvMs_NtCs6Pl1wmeKPjF_10bingo_core6engineNtB4_11BingoEngine3new
FNDA:0,_RNvMs_NtCs6Pl1wmeKPjF_10bingo_core6engineNtB4_11BingoEngine5clear
FNDA:0,_RNvXs5_NtCs6Pl1wmeKPjF_10bingo_core6engineNtB5_11BingoEngineNtNtCsd2KPTObkMr_4core7default7Default7default
FNDA:0,_RNCNCNvMNtCs6Pl1wmeKPjF_10bingo_core6engineNtB6_11BingoEngine8add_rule00B8_
FNDA:0,_RNCNCNvMs1_NtCs6Pl1wmeKPjF_10bingo_core6engineNtB9_11BingoEngine22process_facts_parallel00Bb_
FNDA:0,_RNCNCNvMs1_NtCs6Pl1wmeKPjF_10bingo_core6engineNtB9_11BingoEngine27process_fact_parallel_rules00Bb_
FNDA:0,_RNCNvMNtCs6Pl1wmeKPjF_10bingo_core6engineNtB4_11BingoEngine11remove_rule0B6_
FNDA:0,_RNCNvMNtCs6Pl1wmeKPjF_10bingo_core6engineNtB4_11BingoEngine11remove_rules_0B6_
FNDA:0,_RNCNvMNtCs6Pl1wmeKPjF_10bingo_core6engineNtB4_11BingoEngine11update_rule0B6_
FNDA:0,_RNCNvMNtCs6Pl1wmeKPjF_10bingo_core6engineNtB4_11BingoEngine11update_rules_0B6_
FNDA:0,_RNCNvMNtCs6Pl1wmeKPjF_10bingo_core6engineNtB4_11BingoEngine18add_rule_optimized0B6_
FNDA:0,_RNCNvMNtCs6Pl1wmeKPjF_10bingo_core6engineNtB4_11BingoEngine8add_rule0B6_
FNDA:0,_RNCNvMs0_NtCs6Pl1wmeKPjF_10bingo_core6engineNtB7_11BingoEngine13process_facts0B9_
FNDA:0,_RNCNvMs0_NtCs6Pl1wmeKPjF_10bingo_core6engineNtB7_11BingoEngine15get_field_by_id0B9_
FNDA:0,_RNCNvMs1_NtCs6Pl1wmeKPjF_10bingo_core6engineNtB7_11BingoEngine18add_rules_parallel0B9_
FNDA:0,_RNCNvMs1_NtCs6Pl1wmeKPjF_10bingo_core6engineNtB7_11BingoEngine22process_facts_parallel0B9_
FNDA:0,_RNCNvMs1_NtCs6Pl1wmeKPjF_10bingo_core6engineNtB7_11BingoEngine23evaluate_rules_parallel0B9_
FNDA:0,_RNCNvMs1_NtCs6Pl1wmeKPjF_10bingo_core6engineNtB7_11BingoEngine27process_fact_parallel_rules0B9_
FNDA:0,_RNCNvMs1_NtCs6Pl1wmeKPjF_10bingo_core6engineNtB7_11BingoEngine31process_facts_advanced_parallel0B9_
FNDA:0,_RNCNvMs1_NtCs6Pl1wmeKPjF_10bingo_core6engineNtB7_11BingoEngine31process_facts_parallel_threaded0B9_
FNDA:0,_RNCNvMs1_NtCs6Pl1wmeKPjF_10bingo_core6engineNtB7_11BingoEngine31process_facts_parallel_threadeds_0B9_
FNDA:0,_RNCNvMs1_NtCs6Pl1wmeKPjF_10bingo_core6engineNtB7_11BingoEngine33configure_concurrent_memory_pools0B9_
FNDA:0,_RNCNvMs2_NtCs6Pl1wmeKPjF_10bingo_core6engineNtB7_11BingoEngine25analyze_rule_dependencies0B9_
FNDA:0,_RNCNvMs3_NtCs6Pl1wmeKPjF_10bingo_core6engineNtB7_11BingoEngine12parallel_sum0B9_
FNDA:0,_RNCNvMs3_NtCs6Pl1wmeKPjF_10bingo_core6engineNtB7_11BingoEngine16parallel_average0B9_
FNDA:0,_RNCNvMs3_NtCs6Pl1wmeKPjF_10bingo_core6engineNtB7_11BingoEngine16parallel_min_max0B9_
FNDA:0,_RNCNvMs3_NtCs6Pl1wmeKPjF_10bingo_core6engineNtB7_11BingoEngine17parallel_variance0B9_
FNDA:0,_RNCNvMs4_NtCs6Pl1wmeKPjF_10bingo_core6engineNtB7_11BingoEngine21add_monitoring_sample0B9_
FNDA:0,_RNCNvMs4_NtCs6Pl1wmeKPjF_10bingo_core6engineNtB7_11BingoEngine23record_business_metrics0B9_
FNDA:0,_RNCNvMs4_NtCs6Pl1wmeKPjF_10bingo_core6engineNtB7_11BingoEngine26add_fact_to_working_memory0B9_
FNDA:0,_RNCNvMs4_NtCs6Pl1wmeKPjF_10bingo_core6engineNtB7_11BingoEngine26generate_monitoring_report0B9_
FNDA:0,_RNCNvMs4_NtCs6Pl1wmeKPjF_10bingo_core6engineNtB7_11BingoEngine26record_performance_metrics0B9_
FNDA:0,_RNCNvMs4_NtCs6Pl1wmeKPjF_10bingo_core6engineNtB7_11BingoEngine31remove_fact_from_working_memory0B9_
FNDA:0,_RNCNvXs5_NtCs6Pl1wmeKPjF_10bingo_core6engineNtB7_11BingoEngineNtNtCsd2KPTObkMr_4core7default7Default7default0B9_
FNDA:0,_RINvMs3_NtCscF0MZJB4Qop_10bingo_core6engineNtB6_11BingoEngine14parallel_countppEB8_
FNDA:0,_RNCINvMs3_NtCscF0MZJB4Qop_10bingo_core6engineNtB8_11BingoEngine14parallel_countppE0Ba_
FNDA:0,_RNCNCNvMNtCscF0MZJB4Qop_10bingo_core6engineNtB6_11BingoEngine8add_rule00B8_
FNDA:0,_RNCNCNvMs1_NtCscF0MZJB4Qop_10bingo_core6engineNtB9_11BingoEngine22process_facts_parallel00Bb_
FNDA:0,_RNCNCNvMs1_NtCscF0MZJB4Qop_10bingo_core6engineNtB9_11BingoEngine27process_fact_parallel_rules00Bb_
FNDA:0,_RNCNvMNtCscF0MZJB4Qop_10bingo_core6engineNtB4_11BingoEngine11remove_rule0B6_
FNDA:0,_RNCNvMNtCscF0MZJB4Qop_10bingo_core6engineNtB4_11BingoEngine11remove_rules_0B6_
FNDA:0,_RNCNvMNtCscF0MZJB4Qop_10bingo_core6engineNtB4_11BingoEngine11update_rule0B6_
FNDA:0,_RNCNvMNtCscF0MZJB4Qop_10bingo_core6engineNtB4_11BingoEngine11update_rules_0B6_
FNDA:0,_RNCNvMNtCscF0MZJB4Qop_10bingo_core6engineNtB4_11BingoEngine18add_rule_optimized0B6_
FNDA:0,_RNCNvMNtCscF0MZJB4Qop_10bingo_core6engineNtB4_11BingoEngine8add_rule0B6_
FNDA:0,_RNCNvMs0_NtCscF0MZJB4Qop_10bingo_core6engineNtB7_11BingoEngine13process_facts0B9_
FNDA:0,_RNCNvMs0_NtCscF0MZJB4Qop_10bingo_core6engineNtB7_11BingoEngine15get_field_by_id0B9_
FNDA:0,_RNCNvMs1_NtCscF0MZJB4Qop_10bingo_core6engineNtB7_11BingoEngine18add_rules_parallel0B9_
FNDA:0,_RNCNvMs1_NtCscF0MZJB4Qop_10bingo_core6engineNtB7_11BingoEngine22process_facts_parallel0B9_
FNDA:0,_RNCNvMs1_NtCscF0MZJB4Qop_10bingo_core6engineNtB7_11BingoEngine23evaluate_rules_parallel0B9_
FNDA:0,_RNCNvMs1_NtCscF0MZJB4Qop_10bingo_core6engineNtB7_11BingoEngine27process_fact_parallel_rules0B9_
FNDA:0,_RNCNvMs1_NtCscF0MZJB4Qop_10bingo_core6engineNtB7_11BingoEngine31process_facts_advanced_parallel0B9_
FNDA:0,_RNCNvMs1_NtCscF0MZJB4Qop_10bingo_core6engineNtB7_11BingoEngine31process_facts_parallel_threaded0B9_
FNDA:0,_RNCNvMs1_NtCscF0MZJB4Qop_10bingo_core6engineNtB7_11BingoEngine31process_facts_parallel_threadeds_0B9_
FNDA:0,_RNCNvMs1_NtCscF0MZJB4Qop_10bingo_core6engineNtB7_11BingoEngine33configure_concurrent_memory_pools0B9_
FNDA:0,_RNCNvMs2_NtCscF0MZJB4Qop_10bingo_core6engineNtB7_11BingoEngine25analyze_rule_dependencies0B9_
FNDA:0,_RNCNvMs3_NtCscF0MZJB4Qop_10bingo_core6engineNtB7_11BingoEngine12parallel_sum0B9_
FNDA:0,_RNCNvMs3_NtCscF0MZJB4Qop_10bingo_core6engineNtB7_11BingoEngine16parallel_average0B9_
FNDA:0,_RNCNvMs3_NtCscF0MZJB4Qop_10bingo_core6engineNtB7_11BingoEngine16parallel_min_max0B9_
FNDA:0,_RNCNvMs3_NtCscF0MZJB4Qop_10bingo_core6engineNtB7_11BingoEngine17parallel_variance0B9_
FNDA:0,_RNCNvMs4_NtCscF0MZJB4Qop_10bingo_core6engineNtB7_11BingoEngine21add_monitoring_sample0B9_
FNDA:0,_RNCNvMs4_NtCscF0MZJB4Qop_10bingo_core6engineNtB7_11BingoEngine23record_business_metrics0B9_
FNDA:0,_RNCNvMs4_NtCscF0MZJB4Qop_10bingo_core6engineNtB7_11BingoEngine26add_fact_to_working_memory0B9_
FNDA:0,_RNCNvMs4_NtCscF0MZJB4Qop_10bingo_core6engineNtB7_11BingoEngine26generate_monitoring_report0B9_
FNDA:0,_RNCNvMs4_NtCscF0MZJB4Qop_10bingo_core6engineNtB7_11BingoEngine26record_performance_metrics0B9_
FNDA:0,_RNCNvMs4_NtCscF0MZJB4Qop_10bingo_core6engineNtB7_11BingoEngine31remove_fact_from_working_memory0B9_
FNDA:0,_RNCNvXs5_NtCscF0MZJB4Qop_10bingo_core6engineNtB7_11BingoEngineNtNtCsd2KPTObkMr_4core7default7Default7default0B9_
FNDA:0,_RNvMNtCscF0MZJB4Qop_10bingo_core6engineNtB2_11BingoEngine11remove_rule
FNDA:0,_RNvMNtCscF0MZJB4Qop_10bingo_core6engineNtB2_11BingoEngine11update_rule
FNDA:0,_RNvMNtCscF0MZJB4Qop_10bingo_core6engineNtB2_11BingoEngine18add_rule_optimized
FNDA:0,_RNvMNtCscF0MZJB4Qop_10bingo_core6engineNtB2_11BingoEngine8add_rule
FNDA:0,_RNvMNtCscF0MZJB4Qop_10bingo_core6engineNtB2_11BingoEngine9add_rules
FNDA:0,_RNvMs0_NtCscF0MZJB4Qop_10bingo_core6engineNtB5_11BingoEngine10fact_count
FNDA:0,_RNvMs0_NtCscF0MZJB4Qop_10bingo_core6engineNtB5_11BingoEngine13process_facts
FNDA:0,_RNvMs0_NtCscF0MZJB4Qop_10bingo_core6engineNtB5_11BingoEngine15get_field_by_id
FNDA:0,_RNvMs0_NtCscF0MZJB4Qop_10bingo_core6engineNtB5_11BingoEngine17get_created_facts
FNDA:0,_RNvMs0_NtCscF0MZJB4Qop_10bingo_core6engineNtB5_11BingoEngine17lookup_fact_by_id
FNDA:0,_RNvMs0_NtCscF0MZJB4Qop_10bingo_core6engineNtB5_11BingoEngine19clear_created_facts
FNDA:0,_RNvMs0_NtCscF0MZJB4Qop_10bingo_core6engineNtB5_11BingoEngine8evaluate
FNDA:0,_RNvMs1_NtCscF0MZJB4Qop_10bingo_core6engineNtB5_11BingoEngine17evaluate_parallel
FNDA:0,_RNvMs1_NtCscF0MZJB4Qop_10bingo_core6engineNtB5_11BingoEngine17set_rule_priority
FNDA:0,_RNvMs1_NtCscF0MZJB4Qop_10bingo_core6engineNtB5_11BingoEngine17set_rule_salience
FNDA:0,_RNvMs1_NtCscF0MZJB4Qop_10bingo_core6engineNtB5_11BingoEngine18add_rules_parallel
FNDA:0,_RNvMs1_NtCscF0MZJB4Qop_10bingo_core6engineNtB5_11BingoEngine22process_facts_parallel
FNDA:0,_RNvMs1_NtCscF0MZJB4Qop_10bingo_core6engineNtB5_11BingoEngine22register_rule_priority
FNDA:0,_RNvMs1_NtCscF0MZJB4Qop_10bingo_core6engineNtB5_11BingoEngine22resolve_rule_conflicts
FNDA:0,_RNvMs1_NtCscF0MZJB4Qop_10bingo_core6engineNtB5_11BingoEngine23configure_parallel_rete
FNDA:0,_RNvMs1_NtCscF0MZJB4Qop_10bingo_core6engineNtB5_11BingoEngine23evaluate_rules_parallel
FNDA:0,_RNvMs1_NtCscF0MZJB4Qop_10bingo_core6engineNtB5_11BingoEngine23get_parallel_rete_stats
FNDA:0,_RNvMs1_NtCscF0MZJB4Qop_10bingo_core6engineNtB5_11BingoEngine25reset_parallel_rete_stats
FNDA:0,_RNvMs1_NtCscF0MZJB4Qop_10bingo_core6engineNtB5_11BingoEngine26add_rules_to_parallel_rete
FNDA:0,_RNvMs1_NtCscF0MZJB4Qop_10bingo_core6engineNtB5_11BingoEngine27get_optimal_parallel_config
FNDA:0,_RNvMs1_NtCscF0MZJB4Qop_10bingo_core6engineNtB5_11BingoEngine27process_fact_parallel_rules
FNDA:0,_RNvMs1_NtCscF0MZJB4Qop_10bingo_core6engineNtB5_11BingoEngine29configure_conflict_resolution
FNDA:0,_RNvMs1_NtCscF0MZJB4Qop_10bingo_core6engineNtB5_11BingoEngine29get_conflict_resolution_stats
FNDA:0,_RNvMs1_NtCscF0MZJB4Qop_10bingo_core6engineNtB5_11BingoEngine30get_conflict_resolution_config
FNDA:0,_RNvMs1_NtCscF0MZJB4Qop_10bingo_core6engineNtB5_11BingoEngine31process_facts_advanced_parallel
FNDA:0,_RNvMs1_NtCscF0MZJB4Qop_10bingo_core6engineNtB5_11BingoEngine31process_facts_parallel_threaded
FNDA:0,_RNvMs1_NtCscF0MZJB4Qop_10bingo_core6engineNtB5_11BingoEngine31reset_conflict_resolution_stats
FNDA:0,_RNvMs1_NtCscF0MZJB4Qop_10bingo_core6engineNtB5_11BingoEngine32get_concurrent_memory_pool_stats
FNDA:0,_RNvMs1_NtCscF0MZJB4Qop_10bingo_core6engineNtB5_11BingoEngine33configure_concurrent_memory_pools
FNDA:0,_RNvMs2_NtCscF0MZJB4Qop_10bingo_core6engineNtB5_11BingoEngine21get_rule_dependencies
FNDA:0,_RNvMs2_NtCscF0MZJB4Qop_10bingo_core6engineNtB5_11BingoEngine22get_execution_clusters
FNDA:0,_RNvMs2_NtCscF0MZJB4Qop_10bingo_core6engineNtB5_11BingoEngine25analyze_rule_dependencies
FNDA:0,_RNvMs2_NtCscF0MZJB4Qop_10bingo_core6engineNtB5_11BingoEngine25get_circular_dependencies
FNDA:0,_RNvMs2_NtCscF0MZJB4Qop_10bingo_core6engineNtB5_11BingoEngine29get_dependency_analysis_stats
FNDA:0,_RNvMs2_NtCscF0MZJB4Qop_10bingo_core6engineNtB5_11BingoEngine30get_dependency_analysis_config
FNDA:0,_RNvMs2_NtCscF0MZJB4Qop_10bingo_core6engineNtB5_11BingoEngine31reset_dependency_analysis_stats
FNDA:0,_RNvMs2_NtCscF0MZJB4Qop_10bingo_core6engineNtB5_11BingoEngine33update_dependency_analysis_config
FNDA:0,_RNvMs3_NtCscF0MZJB4Qop_10bingo_core6engineNtB5_11BingoEngine10rule_count
FNDA:0,_RNvMs3_NtCscF0MZJB4Qop_10bingo_core6engineNtB5_11BingoEngine12parallel_sum
FNDA:0,_RNvMs3_NtCscF0MZJB4Qop_10bingo_core6engineNtB5_11BingoEngine12profiler_mut
FNDA:0,_RNvMs3_NtCscF0MZJB4Qop_10bingo_core6engineNtB5_11BingoEngine15reset_profiling
FNDA:0,_RNvMs3_NtCscF0MZJB4Qop_10bingo_core6engineNtB5_11BingoEngine16parallel_average
FNDA:0,_RNvMs3_NtCscF0MZJB4Qop_10bingo_core6engineNtB5_11BingoEngine16parallel_min_max
FNDA:0,_RNvMs3_NtCscF0MZJB4Qop_10bingo_core6engineNtB5_11BingoEngine17parallel_variance
FNDA:0,_RNvMs3_NtCscF0MZJB4Qop_10bingo_core6engineNtB5_11BingoEngine21get_memory_pool_stats
FNDA:0,_RNvMs3_NtCscF0MZJB4Qop_10bingo_core6engineNtB5_11BingoEngine21set_profiling_enabled
FNDA:0,_RNvMs3_NtCscF0MZJB4Qop_10bingo_core6engineNtB5_11BingoEngine23get_serialization_stats
FNDA:0,_RNvMs3_NtCscF0MZJB4Qop_10bingo_core6engineNtB5_11BingoEngine24get_optimization_metrics
FNDA:0,_RNvMs3_NtCscF0MZJB4Qop_10bingo_core6engineNtB5_11BingoEngine25cleanup_lazy_aggregations
FNDA:0,_RNvMs3_NtCscF0MZJB4Qop_10bingo_core6engineNtB5_11BingoEngine26get_lazy_aggregation_stats
FNDA:0,_RNvMs3_NtCscF0MZJB4Qop_10bingo_core6engineNtB5_11BingoEngine26get_memory_pool_efficiency
FNDA:0,_RNvMs3_NtCscF0MZJB4Qop_10bingo_core6engineNtB5_11BingoEngine27generate_performance_report
FNDA:0,_RNvMs3_NtCscF0MZJB4Qop_10bingo_core6engineNtB5_11BingoEngine28get_action_result_pool_stats
FNDA:0,_RNvMs3_NtCscF0MZJB4Qop_10bingo_core6engineNtB5_11BingoEngine34invalidate_lazy_aggregation_caches
FNDA:0,_RNvMs3_NtCscF0MZJB4Qop_10bingo_core6engineNtB5_11BingoEngine8profiler
FNDA:0,_RNvMs3_NtCscF0MZJB4Qop_10bingo_core6engineNtB5_11BingoEngine9get_stats
FNDA:0,_RNvMs4_NtCscF0MZJB4Qop_10bingo_core6engineNtB5_11BingoEngine10calculator
FNDA:0,_RNvMs4_NtCscF0MZJB4Qop_10bingo_core6engineNtB5_11BingoEngine10fact_store
FNDA:0,_RNvMs4_NtCscF0MZJB4Qop_10bingo_core6engineNtB5_11BingoEngine12rete_network
FNDA:0,_RNvMs4_NtCscF0MZJB4Qop_10bingo_core6engineNtB5_11BingoEngine21add_monitoring_sample
FNDA:0,_RNvMs4_NtCscF0MZJB4Qop_10bingo_core6engineNtB5_11BingoEngine21get_alpha_memory_info
FNDA:0,_RNvMs4_NtCscF0MZJB4Qop_10bingo_core6engineNtB5_11BingoEngine22get_alpha_memory_stats
FNDA:0,_RNvMs4_NtCscF0MZJB4Qop_10bingo_core6engineNtB5_11BingoEngine22get_cpu_usage_estimate
FNDA:0,_RNvMs4_NtCscF0MZJB4Qop_10bingo_core6engineNtB5_11BingoEngine23get_system_health_score
FNDA:0,_RNvMs4_NtCscF0MZJB4Qop_10bingo_core6engineNtB5_11BingoEngine23record_business_metrics
FNDA:0,_RNvMs4_NtCscF0MZJB4Qop_10bingo_core6engineNtB5_11BingoEngine24get_working_memory_stats
FNDA:0,_RNvMs4_NtCscF0MZJB4Qop_10bingo_core6engineNtB5_11BingoEngine24with_enhanced_monitoring
FNDA:0,_RNvMs4_NtCscF0MZJB4Qop_10bingo_core6engineNtB5_11BingoEngine25get_memory_usage_estimate
FNDA:0,_RNvMs4_NtCscF0MZJB4Qop_10bingo_core6engineNtB5_11BingoEngine26add_fact_to_working_memory
FNDA:0,_RNvMs4_NtCscF0MZJB4Qop_10bingo_core6engineNtB5_11BingoEngine26generate_monitoring_report
FNDA:0,_RNvMs4_NtCscF0MZJB4Qop_10bingo_core6engineNtB5_11BingoEngine26record_performance_metrics
FNDA:0,_RNvMs4_NtCscF0MZJB4Qop_10bingo_core6engineNtB5_11BingoEngine30get_average_processing_latency
FNDA:0,_RNvMs4_NtCscF0MZJB4Qop_10bingo_core6engineNtB5_11BingoEngine31remove_fact_from_working_memory
FNDA:0,_RNvMs_NtCscF0MZJB4Qop_10bingo_core6engineNtB4_11BingoEngine13with_capacity
FNDA:0,_RNvMs_NtCscF0MZJB4Qop_10bingo_core6engineNtB4_11BingoEngine3new
FNDA:0,_RNvMs_NtCscF0MZJB4Qop_10bingo_core6engineNtB4_11BingoEngine5clear
FNDA:0,_RNvXs5_NtCscF0MZJB4Qop_10bingo_core6engineNtB5_11BingoEngineNtNtCsd2KPTObkMr_4core7default7Default7default
FNF:115
FNH:0
DA:55,0
DA:56,0
DA:58,0
DA:60,0
DA:61,0
DA:62,0
DA:65,0
DA:67,0
DA:68,0
DA:69,0
DA:96,0
DA:97,0
DA:98,0
DA:99,0
DA:100,0
DA:102,0
DA:103,0
DA:104,0
DA:107,0
DA:109,0
DA:112,0
DA:113,0
DA:116,0
DA:117,0
DA:133,0
DA:134,0
DA:137,0
DA:138,0
DA:139,0
DA:140,0
DA:141,0
DA:142,0
DA:145,0
DA:146,0
DA:162,0
DA:163,0
DA:167,0
DA:168,0
DA:169,0
DA:170,0
DA:171,0
DA:172,0
DA:174,0
DA:175,0
DA:191,0
DA:192,0
DA:194,0
DA:195,0
DA:198,0
DA:199,0
DA:293,0
DA:294,0
DA:296,0
DA:297,0
DA:298,0
DA:299,0
DA:300,0
DA:302,0
DA:303,0
DA:304,0
DA:305,0
DA:306,0
DA:307,0
DA:308,0
DA:309,0
DA:310,0
DA:311,0
DA:312,0
DA:313,0
DA:314,0
DA:315,0
DA:316,0
DA:317,0
DA:318,0
DA:343,0
DA:344,0
DA:346,0
DA:349,0
DA:350,0
DA:351,0
DA:352,0
DA:353,0
DA:355,0
DA:356,0
DA:357,0
DA:358,0
DA:359,0
DA:360,0
DA:361,0
DA:362,0
DA:363,0
DA:364,0
DA:365,0
DA:366,0
DA:367,0
DA:368,0
DA:369,0
DA:370,0
DA:371,0
DA:394,0
DA:395,0
DA:397,0
DA:398,0
DA:400,0
DA:401,0
DA:402,0
DA:438,0
DA:439,0
DA:440,0
DA:443,0
DA:446,0
DA:447,0
DA:448,0
DA:449,0
DA:452,0
DA:453,0
DA:454,0
DA:455,0
DA:457,0
DA:458,0
DA:459,0
DA:460,0
DA:464,0
DA:477,0
DA:478,0
DA:494,0
DA:495,0
DA:496,0
DA:497,0
DA:498,0
DA:499,0
DA:500,0
DA:501,0
DA:502,0
DA:506,0
DA:507,0
DA:508,0
DA:512,0
DA:513,0
DA:514,0
DA:516,0
DA:517,0
DA:519,0
DA:521,0
DA:522,0
DA:526,0
DA:530,0
DA:531,0
DA:532,0
DA:533,0
DA:534,0
DA:535,0
DA:536,0
DA:537,0
DA:538,0
DA:539,0
DA:540,0
DA:542,0
DA:545,0
DA:546,0
DA:548,0
DA:550,0
DA:558,0
DA:559,0
DA:560,0
DA:567,0
DA:568,0
DA:569,0
DA:577,0
DA:578,0
DA:579,0
DA:586,0
DA:587,0
DA:588,0
DA:591,0
DA:592,0
DA:593,0
DA:643,0
DA:644,0
DA:645,0
DA:646,0
DA:647,0
DA:650,0
DA:651,0
DA:655,0
DA:659,0
DA:660,0
DA:661,0
DA:664,0
DA:665,0
DA:666,0
DA:667,0
DA:668,0
DA:671,0
DA:672,0
DA:673,0
DA:674,0
DA:676,0
DA:677,0
DA:678,0
DA:679,0
DA:682,0
DA:683,0
DA:704,0
DA:705,0
DA:706,0
DA:707,0
DA:708,0
DA:711,0
DA:713,0
DA:715,0
DA:719,0
DA:722,0
DA:723,0
DA:724,0
DA:725,0
DA:726,0
DA:729,0
DA:730,0
DA:731,0
DA:732,0
DA:734,0
DA:735,0
DA:736,0
DA:737,0
DA:740,0
DA:741,0
DA:767,0
DA:768,0
DA:769,0
DA:770,0
DA:771,0
DA:772,0
DA:773,0
DA:774,0
DA:775,0
DA:776,0
DA:780,0
DA:781,0
DA:782,0
DA:785,0
DA:788,0
DA:789,0
DA:819,0
DA:820,0
DA:821,0
DA:822,0
DA:823,0
DA:826,0
DA:827,0
DA:829,0
DA:833,0
DA:834,0
DA:835,0
DA:837,0
DA:839,0
DA:840,0
DA:875,0
DA:876,0
DA:877,0
DA:878,0
DA:879,0
DA:880,0
DA:883,0
DA:884,0
DA:885,0
DA:887,0
DA:891,0
DA:892,0
DA:893,0
DA:896,0
DA:899,0
DA:900,0
DA:901,0
DA:904,0
DA:905,0
DA:906,0
DA:907,0
DA:908,0
DA:909,0
DA:910,0
DA:911,0
DA:913,0
DA:915,0
DA:916,0
DA:917,0
DA:920,0
DA:921,0
DA:952,0
DA:953,0
DA:954,0
DA:955,0
DA:958,0
DA:961,0
DA:965,0
DA:966,0
DA:967,0
DA:969,0
DA:971,0
DA:972,0
DA:997,0
DA:998,0
DA:999,0
DA:1001,0
DA:1002,0
DA:1021,0
DA:1022,0
DA:1023,0
DA:1053,0
DA:1054,0
DA:1055,0
DA:1056,0
DA:1057,0
DA:1058,0
DA:1059,0
DA:1062,0
DA:1066,0
DA:1067,0
DA:1068,0
DA:1071,0
DA:1072,0
DA:1073,0
DA:1074,0
DA:1075,0
DA:1077,0
DA:1079,0
DA:1080,0
DA:1081,0
DA:1084,0
DA:1085,0
DA:1107,0
DA:1108,0
DA:1109,0
DA:1110,0
DA:1111,0
DA:1115,0
DA:1116,0
DA:1119,0
DA:1123,0
DA:1127,0
DA:1128,0
DA:1129,0
DA:1130,0
DA:1131,0
DA:1132,0
DA:1136,0
DA:1139,0
DA:1140,0
DA:1141,0
DA:1142,0
DA:1143,0
DA:1145,0
DA:1147,0
DA:1148,0
DA:1149,0
DA:1152,0
DA:1153,0
DA:1170,0
DA:1171,0
DA:1172,0
DA:1173,0
DA:1177,0
DA:1178,0
DA:1179,0
DA:1182,0
DA:1184,0
DA:1185,0
DA:1186,0
DA:1203,0
DA:1204,0
DA:1205,0
DA:1224,0
DA:1225,0
DA:1226,0
DA:1227,0
DA:1236,0
DA:1237,0
DA:1238,0
DA:1277,0
DA:1278,0
DA:1279,0
DA:1280,0
DA:1281,0
DA:1282,0
DA:1283,0
DA:1287,0
DA:1290,0
DA:1291,0
DA:1306,0
DA:1307,0
DA:1308,0
DA:1317,0
DA:1318,0
DA:1319,0
DA:1322,0
DA:1323,0
DA:1324,0
DA:1325,0
DA:1326,0
DA:1351,0
DA:1352,0
DA:1353,0
DA:1354,0
DA:1355,0
DA:1356,0
DA:1357,0
DA:1375,0
DA:1376,0
DA:1377,0
DA:1378,0
DA:1379,0
DA:1388,0
DA:1389,0
DA:1390,0
DA:1391,0
DA:1413,0
DA:1414,0
DA:1415,0
DA:1416,0
DA:1417,0
DA:1418,0
DA:1419,0
DA:1422,0
DA:1423,0
DA:1458,0
DA:1459,0
DA:1460,0
DA:1461,0
DA:1462,0
DA:1463,0
DA:1467,0
DA:1468,0
DA:1469,0
DA:1470,0
DA:1472,0
DA:1475,0
DA:1478,0
DA:1479,0
DA:1496,0
DA:1497,0
DA:1498,0
DA:1499,0
DA:1500,0
DA:1509,0
DA:1510,0
DA:1513,0
DA:1514,0
DA:1515,0
DA:1535,0
DA:1536,0
DA:1537,0
DA:1562,0
DA:1563,0
DA:1564,0
DA:1592,0
DA:1593,0
DA:1594,0
DA:1595,0
DA:1596,0
DA:1622,0
DA:1623,0
DA:1624,0
DA:1625,0
DA:1626,0
DA:1627,0
DA:1628,0
DA:1642,0
DA:1643,0
DA:1644,0
DA:1645,0
DA:1646,0
DA:1670,0
DA:1671,0
DA:1673,0
DA:1674,0
DA:1675,0
DA:1676,0
DA:1677,0
DA:1678,0
DA:1679,0
DA:1687,0
DA:1688,0
DA:1689,0
DA:1690,0
DA:1699,0
DA:1700,0
DA:1701,0
DA:1709,0
DA:1710,0
DA:1711,0
DA:1722,0
DA:1723,0
DA:1724,0
DA:1732,0
DA:1733,0
DA:1734,0
DA:1743,0
DA:1744,0
DA:1745,0
DA:1746,0
DA:1747,0
DA:1755,0
DA:1756,0
DA:1757,0
DA:1765,0
DA:1766,0
DA:1767,0
DA:1770,0
DA:1771,0
DA:1772,0
DA:1775,0
DA:1776,0
DA:1777,0
DA:1780,0
DA:1781,0
DA:1782,0
DA:1785,0
DA:1786,0
DA:1789,0
DA:1792,0
DA:1793,0
DA:1794,0
DA:1795,0
DA:1796,0
DA:1798,0
DA:1799,0
DA:1802,0
DA:1803,0
DA:1804,0
DA:1807,0
DA:1808,0
DA:1809,0
DA:1837,0
DA:1840,0
DA:1841,0
DA:1842,0
DA:1843,0
DA:1844,0
DA:1860,0
DA:1861,0
DA:1862,0
DA:1863,0
DA:1867,0
DA:1868,0
DA:1869,0
DA:1870,0
DA:1871,0
DA:1887,0
DA:1890,0
DA:1891,0
DA:1892,0
DA:1893,0
DA:1894,0
DA:1910,0
DA:1913,0
DA:1914,0
DA:1915,0
DA:1916,0
DA:1917,0
DA:1938,0
DA:1941,0
DA:1942,0
DA:1943,0
DA:1944,0
DA:1945,0
DA:1986,0
DA:1987,0
DA:1989,0
DA:1990,0
DA:1991,0
DA:1992,0
DA:1993,0
DA:1995,0
DA:1996,0
DA:1997,0
DA:1998,0
DA:1999,0
DA:2000,0
DA:2001,0
DA:2002,0
DA:2003,0
DA:2004,0
DA:2005,0
DA:2006,0
DA:2007,0
DA:2008,0
DA:2009,0
DA:2010,0
DA:2011,0
DA:2028,0
DA:2029,0
DA:2030,0
DA:2031,0
DA:2032,0
DA:2033,0
DA:2034,0
DA:2035,0
DA:2036,0
DA:2037,0
DA:2040,0
DA:2041,0
DA:2043,0
DA:2046,0
DA:2047,0
DA:2049,0
DA:2052,0
DA:2055,0
DA:2056,0
DA:2058,0
DA:2059,0
DA:2060,0
DA:2061,0
DA:2062,0
DA:2063,0
DA:2064,0
DA:2065,0
DA:2066,0
DA:2068,0
DA:2069,0
DA:2070,0
DA:2072,0
DA:2075,0
DA:2078,0
DA:2079,0
DA:2107,0
DA:2108,0
DA:2110,0
DA:2111,0
DA:2112,0
DA:2113,0
DA:2136,0
DA:2137,0
DA:2138,0
DA:2139,0
DA:2156,0
DA:2157,0
DA:2158,0
DA:2159,0
DA:2160,0
DA:2161,0
DA:2162,0
DA:2163,0
DA:2164,0
DA:2165,0
DA:2166,0
DA:2167,0
DA:2168,0
DA:2169,0
DA:2170,0
DA:2172,0
DA:2173,0
DA:2174,0
DA:2176,0
DA:2179,0
DA:2182,0
DA:2183,0
DA:2199,0
DA:2200,0
DA:2201,0
DA:2202,0
DA:2203,0
DA:2210,0
DA:2212,0
DA:2213,0
DA:2214,0
DA:2215,0
DA:2218,0
DA:2220,0
DA:2221,0
DA:2222,0
DA:2223,0
DA:2225,0
DA:2227,0
DA:2230,0
DA:2231,0
DA:2232,0
DA:2234,0
DA:2236,0
DA:2245,0
DA:2246,0
DA:2247,0
DA:2250,0
DA:2251,0
DA:2252,0
DA:2255,0
DA:2256,0
DA:2257,0
DA:2260,0
DA:2261,0
DA:2262,0
DA:2263,0
DA:2264,0
DA:2265,0
DA:2266,0
DA:2267,0
DA:2268,0
DA:2269,0
DA:2272,0
DA:2273,0
DA:2274,0
DA:2275,0
DA:2276,0
DA:2277,0
DA:2278,0
DA:2281,0
DA:2282,0
DA:2283,0
DA:2286,0
DA:2287,0
DA:2288,0
DA:2291,0
DA:2292,0
DA:2293,0
DA:2297,0
DA:2298,0
DA:2299,0
BRF:0
BRH:0
LF:754
LH:0
end_of_record
SF:/Users/hl/Projects/private/bingo/crates/bingo-core/src/error.rs
FN:308,_RINvMs0_NtCs6Pl1wmeKPjF_10bingo_core5errorNtB6_10BingoError11aggregationpEB8_
FN:278,_RINvMs0_NtCs6Pl1wmeKPjF_10bingo_core5errorNtB6_10BingoError18fact_store_with_idpEB8_
FN:386,_RINvMs0_NtCs6Pl1wmeKPjF_10bingo_core5errorNtB6_10BingoError18internal_componentpEB8_
FN:482,_RNCNvXININtCs6Pl1wmeKPjF_10bingo_core5errors4_0pEINtNtCsd2KPTObkMr_4core6result6ResultpNtB7_10BingoErrorEINtB7_9ResultExtpE17with_fact_context0B9_
FN:472,_RNCNvXININtCs6Pl1wmeKPjF_10bingo_core5errors4_0pEINtNtCsd2KPTObkMr_4core6result6ResultpNtB7_10BingoErrorEINtB7_9ResultExtpE17with_rule_context0B9_
FN:491,_RNCNvXININtCs6Pl1wmeKPjF_10bingo_core5errors4_0pEINtNtCsd2KPTObkMr_4core6result6ResultpNtB7_10BingoErrorEINtB7_9ResultExtpE22with_operation_context0B9_
FN:481,_RNvXININtCs6Pl1wmeKPjF_10bingo_core5errors4_0pEINtNtCsd2KPTObkMr_4core6result6ResultpNtB5_10BingoErrorEINtB5_9ResultExtpE17with_fact_contextB7_
FN:471,_RNvXININtCs6Pl1wmeKPjF_10bingo_core5errors4_0pEINtNtCsd2KPTObkMr_4core6result6ResultpNtB5_10BingoErrorEINtB5_9ResultExtpE17with_rule_contextB7_
FN:490,_RNvXININtCs6Pl1wmeKPjF_10bingo_core5errors4_0pEINtNtCsd2KPTObkMr_4core6result6ResultpNtB5_10BingoErrorEINtB5_9ResultExtpE22with_operation_contextB7_
FN:179,_RNvMNtCs6Pl1wmeKPjF_10bingo_core5errorNtB2_10BingoError14is_recoverable
FN:145,_RNvMNtCs6Pl1wmeKPjF_10bingo_core5errorNtB2_10BingoError7context
FN:109,_RNvMNtCs6Pl1wmeKPjF_10bingo_core5errorNtB2_10BingoError8category
FN:127,_RNvMNtCs6Pl1wmeKPjF_10bingo_core5errorNtB2_10BingoError8severity
FN:402,_RNvXs1_NtCs6Pl1wmeKPjF_10bingo_core5errorNtB5_10BingoErrorINtNtCsd2KPTObkMr_4core7convert4FromNtCscWOY17rISn3_6anyhow5ErrorE4from
FN:433,_RNvXs2_NtCs6Pl1wmeKPjF_10bingo_core5errorNtB5_10BingoErrorINtNtCsd2KPTObkMr_4core7convert4FromNtNtNtCs9QY0sRQ9KnX_3std2io5error5ErrorE4from
FN:443,_RNvXs3_NtCs6Pl1wmeKPjF_10bingo_core5errorNtB5_10BingoErrorINtNtCsd2KPTObkMr_4core7convert4FromNtNtCsjKAmA0Vjyfr_10serde_json5error5ErrorE4from
FN:207,_RNvXs_NtCs6Pl1wmeKPjF_10bingo_core5errorNtB4_13ErrorSeverityNtNtCsd2KPTObkMr_4core3fmt7Display3fmt
FN:298,_RINvMs0_NtCs6Pl1wmeKPjF_10bingo_core5errorNtB6_10BingoError10calculatorReEB8_
FN:268,_RINvMs0_NtCs6Pl1wmeKPjF_10bingo_core5errorNtB6_10BingoError10fact_storeReEB8_
FN:288,_RINvMs0_NtCs6Pl1wmeKPjF_10bingo_core5errorNtB6_10BingoError12rete_networkNtNtCs7fnLZwG9eJV_5alloc6string6StringEB8_
FN:288,_RINvMs0_NtCs6Pl1wmeKPjF_10bingo_core5errorNtB6_10BingoError12rete_networkReEB8_
FN:347,_RINvMs0_NtCs6Pl1wmeKPjF_10bingo_core5errorNtB6_10BingoError13configurationReEB8_
FN:338,_RINvMs0_NtCs6Pl1wmeKPjF_10bingo_core5errorNtB6_10BingoError13serializationNtNtCs7fnLZwG9eJV_5alloc6string6StringEB8_
FN:253,_RINvMs0_NtCs6Pl1wmeKPjF_10bingo_core5errorNtB6_10BingoError15condition_parseReEB8_
FN:248,_RINvMs0_NtCs6Pl1wmeKPjF_10bingo_core5errorNtB6_10BingoError15rule_validationReEB8_
FN:377,_RINvMs0_NtCs6Pl1wmeKPjF_10bingo_core5errorNtB6_10BingoError16external_serviceNtNtCs7fnLZwG9eJV_5alloc6string6StringEB8_
FN:238,_RINvMs0_NtCs6Pl1wmeKPjF_10bingo_core5errorNtB6_10BingoError16rule_compilationNtNtCs7fnLZwG9eJV_5alloc6string6StringEB8_
FN:238,_RINvMs0_NtCs6Pl1wmeKPjF_10bingo_core5errorNtB6_10BingoError16rule_compilationReEB8_
FN:323,_RINvMs0_NtCs6Pl1wmeKPjF_10bingo_core5errorNtB6_10BingoError17memory_allocationReEB8_
FN:362,_RINvMs0_NtCs6Pl1wmeKPjF_10bingo_core5errorNtB6_10BingoError19performance_timeoutReEB8_
FN:395,_RINvMs0_NtCs6Pl1wmeKPjF_10bingo_core5errorNtB6_10BingoError8internalNtNtCs7fnLZwG9eJV_5alloc6string6StringEB8_
FN:395,_RINvMs0_NtCs6Pl1wmeKPjF_10bingo_core5errorNtB6_10BingoError8internalReEB8_
FN:308,_RINvMs0_NtCscF0MZJB4Qop_10bingo_core5errorNtB6_10BingoError11aggregationpEB8_
FN:338,_RINvMs0_NtCscF0MZJB4Qop_10bingo_core5errorNtB6_10BingoError13serializationpEB8_
FN:377,_RINvMs0_NtCscF0MZJB4Qop_10bingo_core5errorNtB6_10BingoError16external_servicepEB8_
FN:278,_RINvMs0_NtCscF0MZJB4Qop_10bingo_core5errorNtB6_10BingoError18fact_store_with_idpEB8_
FN:386,_RINvMs0_NtCscF0MZJB4Qop_10bingo_core5errorNtB6_10BingoError18internal_componentpEB8_
FN:482,_RNCNvXININtCscF0MZJB4Qop_10bingo_core5errors4_0pEINtNtCsd2KPTObkMr_4core6result6ResultpNtB7_10BingoErrorEINtB7_9ResultExtpE17with_fact_context0B9_
FN:472,_RNCNvXININtCscF0MZJB4Qop_10bingo_core5errors4_0pEINtNtCsd2KPTObkMr_4core6result6ResultpNtB7_10BingoErrorEINtB7_9ResultExtpE17with_rule_context0B9_
FN:491,_RNCNvXININtCscF0MZJB4Qop_10bingo_core5errors4_0pEINtNtCsd2KPTObkMr_4core6result6ResultpNtB7_10BingoErrorEINtB7_9ResultExtpE22with_operation_context0B9_
FN:179,_RNvMNtCscF0MZJB4Qop_10bingo_core5errorNtB2_10BingoError14is_recoverable
FN:481,_RNvXININtCscF0MZJB4Qop_10bingo_core5errors4_0pEINtNtCsd2KPTObkMr_4core6result6ResultpNtB5_10BingoErrorEINtB5_9ResultExtpE17with_fact_contextB7_
FN:471,_RNvXININtCscF0MZJB4Qop_10bingo_core5errors4_0pEINtNtCsd2KPTObkMr_4core6result6ResultpNtB5_10BingoErrorEINtB5_9ResultExtpE17with_rule_contextB7_
FN:490,_RNvXININtCscF0MZJB4Qop_10bingo_core5errors4_0pEINtNtCsd2KPTObkMr_4core6result6ResultpNtB5_10BingoErrorEINtB5_9ResultExtpE22with_operation_contextB7_
FN:402,_RNvXs1_NtCscF0MZJB4Qop_10bingo_core5errorNtB5_10BingoErrorINtNtCsd2KPTObkMr_4core7convert4FromNtCscWOY17rISn3_6anyhow5ErrorE4from
FN:433,_RNvXs2_NtCscF0MZJB4Qop_10bingo_core5errorNtB5_10BingoErrorINtNtCsd2KPTObkMr_4core7convert4FromNtNtNtCs9QY0sRQ9KnX_3std2io5error5ErrorE4from
FN:443,_RNvXs3_NtCscF0MZJB4Qop_10bingo_core5errorNtB5_10BingoErrorINtNtCsd2KPTObkMr_4core7convert4FromNtNtCsjKAmA0Vjyfr_10serde_json5error5ErrorE4from
FN:207,_RNvXs_NtCscF0MZJB4Qop_10bingo_core5errorNtB4_13ErrorSeverityNtNtCsd2KPTObkMr_4core3fmt7Display3fmt
FN:145,_RNvMNtCscF0MZJB4Qop_10bingo_core5errorNtB2_10BingoError7context
FN:109,_RNvMNtCscF0MZJB4Qop_10bingo_core5errorNtB2_10BingoError8category
FN:127,_RNvMNtCscF0MZJB4Qop_10bingo_core5errorNtB2_10BingoError8severity
FN:298,_RINvMs0_NtCscF0MZJB4Qop_10bingo_core5errorNtB6_10BingoError10calculatorReEB8_
FN:268,_RINvMs0_NtCscF0MZJB4Qop_10bingo_core5errorNtB6_10BingoError10fact_storeReEB8_
FN:288,_RINvMs0_NtCscF0MZJB4Qop_10bingo_core5errorNtB6_10BingoError12rete_networkNtNtCs7fnLZwG9eJV_5alloc6string6StringEB8_
FN:288,_RINvMs0_NtCscF0MZJB4Qop_10bingo_core5errorNtB6_10BingoError12rete_networkReEB8_
FN:347,_RINvMs0_NtCscF0MZJB4Qop_10bingo_core5errorNtB6_10BingoError13configurationReEB8_
FN:253,_RINvMs0_NtCscF0MZJB4Qop_10bingo_core5errorNtB6_10BingoError15condition_parseReEB8_
FN:248,_RINvMs0_NtCscF0MZJB4Qop_10bingo_core5errorNtB6_10BingoError15rule_validationReEB8_
FN:238,_RINvMs0_NtCscF0MZJB4Qop_10bingo_core5errorNtB6_10BingoError16rule_compilationReEB8_
FN:323,_RINvMs0_NtCscF0MZJB4Qop_10bingo_core5errorNtB6_10BingoError17memory_allocationReEB8_
FN:362,_RINvMs0_NtCscF0MZJB4Qop_10bingo_core5errorNtB6_10BingoError19performance_timeoutReEB8_
FN:395,_RINvMs0_NtCscF0MZJB4Qop_10bingo_core5errorNtB6_10BingoError8internalReEB8_
FNDA:0,_RINvMs0_NtCs6Pl1wmeKPjF_10bingo_core5errorNtB6_10BingoError11aggregationpEB8_
FNDA:0,_RINvMs0_NtCs6Pl1wmeKPjF_10bingo_core5errorNtB6_10BingoError18fact_store_with_idpEB8_
FNDA:0,_RINvMs0_NtCs6Pl1wmeKPjF_10bingo_core5errorNtB6_10BingoError18internal_componentpEB8_
FNDA:0,_RNCNvXININtCs6Pl1wmeKPjF_10bingo_core5errors4_0pEINtNtCsd2KPTObkMr_4core6result6ResultpNtB7_10BingoErrorEINtB7_9ResultExtpE17with_fact_context0B9_
FNDA:0,_RNCNvXININtCs6Pl1wmeKPjF_10bingo_core5errors4_0pEINtNtCsd2KPTObkMr_4core6result6ResultpNtB7_10BingoErrorEINtB7_9ResultExtpE17with_rule_context0B9_
FNDA:0,_RNCNvXININtCs6Pl1wmeKPjF_10bingo_core5errors4_0pEINtNtCsd2KPTObkMr_4core6result6ResultpNtB7_10BingoErrorEINtB7_9ResultExtpE22with_operation_context0B9_
FNDA:0,_RNvXININtCs6Pl1wmeKPjF_10bingo_core5errors4_0pEINtNtCsd2KPTObkMr_4core6result6ResultpNtB5_10BingoErrorEINtB5_9ResultExtpE17with_fact_contextB7_
FNDA:0,_RNvXININtCs6Pl1wmeKPjF_10bingo_core5errors4_0pEINtNtCsd2KPTObkMr_4core6result6ResultpNtB5_10BingoErrorEINtB5_9ResultExtpE17with_rule_contextB7_
FNDA:0,_RNvXININtCs6Pl1wmeKPjF_10bingo_core5errors4_0pEINtNtCsd2KPTObkMr_4core6result6ResultpNtB5_10BingoErrorEINtB5_9ResultExtpE22with_operation_contextB7_
FNDA:0,_RNvMNtCs6Pl1wmeKPjF_10bingo_core5errorNtB2_10BingoError14is_recoverable
FNDA:1,_RNvMNtCs6Pl1wmeKPjF_10bingo_core5errorNtB2_10BingoError7context
FNDA:2,_RNvMNtCs6Pl1wmeKPjF_10bingo_core5errorNtB2_10BingoError8category
FNDA:1,_RNvMNtCs6Pl1wmeKPjF_10bingo_core5errorNtB2_10BingoError8severity
FNDA:0,_RNvXs1_NtCs6Pl1wmeKPjF_10bingo_core5errorNtB5_10BingoErrorINtNtCsd2KPTObkMr_4core7convert4FromNtCscWOY17rISn3_6anyhow5ErrorE4from
FNDA:0,_RNvXs2_NtCs6Pl1wmeKPjF_10bingo_core5errorNtB5_10BingoErrorINtNtCsd2KPTObkMr_4core7convert4FromNtNtNtCs9QY0sRQ9KnX_3std2io5error5ErrorE4from
FNDA:0,_RNvXs3_NtCs6Pl1wmeKPjF_10bingo_core5errorNtB5_10BingoErrorINtNtCsd2KPTObkMr_4core7convert4FromNtNtCsjKAmA0Vjyfr_10serde_json5error5ErrorE4from
FNDA:0,_RNvXs_NtCs6Pl1wmeKPjF_10bingo_core5errorNtB4_13ErrorSeverityNtNtCsd2KPTObkMr_4core3fmt7Display3fmt
FNDA:0,_RINvMs0_NtCs6Pl1wmeKPjF_10bingo_core5errorNtB6_10BingoError10calculatorReEB8_
FNDA:0,_RINvMs0_NtCs6Pl1wmeKPjF_10bingo_core5errorNtB6_10BingoError10fact_storeReEB8_
FNDA:0,_RINvMs0_NtCs6Pl1wmeKPjF_10bingo_core5errorNtB6_10BingoError12rete_networkNtNtCs7fnLZwG9eJV_5alloc6string6StringEB8_
FNDA:0,_RINvMs0_NtCs6Pl1wmeKPjF_10bingo_core5errorNtB6_10BingoError12rete_networkReEB8_
FNDA:0,_RINvMs0_NtCs6Pl1wmeKPjF_10bingo_core5errorNtB6_10BingoError13configurationReEB8_
FNDA:0,_RINvMs0_NtCs6Pl1wmeKPjF_10bingo_core5errorNtB6_10BingoError13serializationNtNtCs7fnLZwG9eJV_5alloc6string6StringEB8_
FNDA:0,_RINvMs0_NtCs6Pl1wmeKPjF_10bingo_core5errorNtB6_10BingoError15condition_parseReEB8_
FNDA:1,_RINvMs0_NtCs6Pl1wmeKPjF_10bingo_core5errorNtB6_10BingoError15rule_validationReEB8_
FNDA:0,_RINvMs0_NtCs6Pl1wmeKPjF_10bingo_core5errorNtB6_10BingoError16external_serviceNtNtCs7fnLZwG9eJV_5alloc6string6StringEB8_
FNDA:0,_RINvMs0_NtCs6Pl1wmeKPjF_10bingo_core5errorNtB6_10BingoError16rule_compilationNtNtCs7fnLZwG9eJV_5alloc6string6StringEB8_
FNDA:0,_RINvMs0_NtCs6Pl1wmeKPjF_10bingo_core5errorNtB6_10BingoError16rule_compilationReEB8_
FNDA:0,_RINvMs0_NtCs6Pl1wmeKPjF_10bingo_core5errorNtB6_10BingoError17memory_allocationReEB8_
FNDA:0,_RINvMs0_NtCs6Pl1wmeKPjF_10bingo_core5errorNtB6_10BingoError19performance_timeoutReEB8_
FNDA:0,_RINvMs0_NtCs6Pl1wmeKPjF_10bingo_core5errorNtB6_10BingoError8internalNtNtCs7fnLZwG9eJV_5alloc6string6StringEB8_
FNDA:0,_RINvMs0_NtCs6Pl1wmeKPjF_10bingo_core5errorNtB6_10BingoError8internalReEB8_
FNDA:0,_RINvMs0_NtCscF0MZJB4Qop_10bingo_core5errorNtB6_10BingoError11aggregationpEB8_
FNDA:0,_RINvMs0_NtCscF0MZJB4Qop_10bingo_core5errorNtB6_10BingoError13serializationpEB8_
FNDA:0,_RINvMs0_NtCscF0MZJB4Qop_10bingo_core5errorNtB6_10BingoError16external_servicepEB8_
FNDA:0,_RINvMs0_NtCscF0MZJB4Qop_10bingo_core5errorNtB6_10BingoError18fact_store_with_idpEB8_
FNDA:0,_RINvMs0_NtCscF0MZJB4Qop_10bingo_core5errorNtB6_10BingoError18internal_componentpEB8_
FNDA:0,_RNCNvXININtCscF0MZJB4Qop_10bingo_core5errors4_0pEINtNtCsd2KPTObkMr_4core6result6ResultpNtB7_10BingoErrorEINtB7_9ResultExtpE17with_fact_context0B9_
FNDA:0,_RNCNvXININtCscF0MZJB4Qop_10bingo_core5errors4_0pEINtNtCsd2KPTObkMr_4core6result6ResultpNtB7_10BingoErrorEINtB7_9ResultExtpE17with_rule_context0B9_
FNDA:0,_RNCNvXININtCscF0MZJB4Qop_10bingo_core5errors4_0pEINtNtCsd2KPTObkMr_4core6result6ResultpNtB7_10BingoErrorEINtB7_9ResultExtpE22with_operation_context0B9_
FNDA:0,_RNvMNtCscF0MZJB4Qop_10bingo_core5errorNtB2_10BingoError14is_recoverable
FNDA:0,_RNvXININtCscF0MZJB4Qop_10bingo_core5errors4_0pEINtNtCsd2KPTObkMr_4core6result6ResultpNtB5_10BingoErrorEINtB5_9ResultExtpE17with_fact_contextB7_
FNDA:0,_RNvXININtCscF0MZJB4Qop_10bingo_core5errors4_0pEINtNtCsd2KPTObkMr_4core6result6ResultpNtB5_10BingoErrorEINtB5_9ResultExtpE17with_rule_contextB7_
FNDA:0,_RNvXININtCscF0MZJB4Qop_10bingo_core5errors4_0pEINtNtCsd2KPTObkMr_4core6result6ResultpNtB5_10BingoErrorEINtB5_9ResultExtpE22with_operation_contextB7_
FNDA:0,_RNvXs1_NtCscF0MZJB4Qop_10bingo_core5errorNtB5_10BingoErrorINtNtCsd2KPTObkMr_4core7convert4FromNtCscWOY17rISn3_6anyhow5ErrorE4from
FNDA:0,_RNvXs2_NtCscF0MZJB4Qop_10bingo_core5errorNtB5_10BingoErrorINtNtCsd2KPTObkMr_4core7convert4FromNtNtNtCs9QY0sRQ9KnX_3std2io5error5ErrorE4from
FNDA:0,_RNvXs3_NtCscF0MZJB4Qop_10bingo_core5errorNtB5_10BingoErrorINtNtCsd2KPTObkMr_4core7convert4FromNtNtCsjKAmA0Vjyfr_10serde_json5error5ErrorE4from
FNDA:0,_RNvXs_NtCscF0MZJB4Qop_10bingo_core5errorNtB4_13ErrorSeverityNtNtCsd2KPTObkMr_4core3fmt7Display3fmt
FNDA:1,_RNvMNtCscF0MZJB4Qop_10bingo_core5errorNtB2_10BingoError7context
FNDA:2,_RNvMNtCscF0MZJB4Qop_10bingo_core5errorNtB2_10BingoError8category
FNDA:1,_RNvMNtCscF0MZJB4Qop_10bingo_core5errorNtB2_10BingoError8severity
FNDA:1,_RINvMs0_NtCscF0MZJB4Qop_10bingo_core5errorNtB6_10BingoError10calculatorReEB8_
FNDA:1,_RINvMs0_NtCscF0MZJB4Qop_10bingo_core5errorNtB6_10BingoError10fact_storeReEB8_
FNDA:0,_RINvMs0_NtCscF0MZJB4Qop_10bingo_core5errorNtB6_10BingoError12rete_networkNtNtCs7fnLZwG9eJV_5alloc6string6StringEB8_
FNDA:0,_RINvMs0_NtCscF0MZJB4Qop_10bingo_core5errorNtB6_10BingoError12rete_networkReEB8_
FNDA:1,_RINvMs0_NtCscF0MZJB4Qop_10bingo_core5errorNtB6_10BingoError13configurationReEB8_
FNDA:1,_RINvMs0_NtCscF0MZJB4Qop_10bingo_core5errorNtB6_10BingoError15condition_parseReEB8_
FNDA:2,_RINvMs0_NtCscF0MZJB4Qop_10bingo_core5errorNtB6_10BingoError15rule_validationReEB8_
FNDA:1,_RINvMs0_NtCscF0MZJB4Qop_10bingo_core5errorNtB6_10BingoError16rule_compilationReEB8_
FNDA:1,_RINvMs0_NtCscF0MZJB4Qop_10bingo_core5errorNtB6_10BingoError17memory_allocationReEB8_
FNDA:1,_RINvMs0_NtCscF0MZJB4Qop_10bingo_core5errorNtB6_10BingoError19performance_timeoutReEB8_
FNDA:0,_RINvMs0_NtCscF0MZJB4Qop_10bingo_core5errorNtB6_10BingoError8internalReEB8_
FNF:29
FNH:11
DA:109,4
DA:110,4
DA:111,4
DA:112,0
DA:113,0
DA:114,0
DA:115,0
DA:116,0
DA:117,0
DA:118,0
DA:119,0
DA:120,0
DA:121,0
DA:122,0
DA:124,4
DA:127,2
DA:128,2
DA:129,2
DA:130,0
DA:131,0
DA:132,0
DA:133,0
DA:134,0
DA:135,0
DA:136,0
DA:137,0
DA:138,0
DA:139,0
DA:140,0
DA:142,2
DA:145,2
DA:146,2
DA:147,2
DA:148,2
DA:149,2
DA:150,2
DA:151,2
DA:152,0
DA:153,0
DA:154,0
DA:155,0
DA:156,0
DA:157,0
DA:158,0
DA:159,0
DA:160,0
DA:161,0
DA:162,0
DA:163,0
DA:164,0
DA:165,0
DA:166,0
DA:167,0
DA:168,0
DA:169,0
DA:170,0
DA:171,0
DA:172,0
DA:173,0
DA:174,0
DA:176,2
DA:179,0
DA:180,0
DA:181,0
DA:182,0
DA:183,0
DA:184,0
DA:185,0
DA:186,0
DA:187,0
DA:188,0
DA:189,0
DA:190,0
DA:191,0
DA:192,0
DA:194,0
DA:207,0
DA:208,0
DA:209,0
DA:210,0
DA:211,0
DA:212,0
DA:214,0
DA:238,1
DA:239,1
DA:240,1
DA:241,1
DA:242,1
DA:243,1
DA:244,1
DA:245,1
DA:248,3
DA:249,3
DA:250,3
DA:253,1
DA:254,1
DA:255,1
DA:256,1
DA:257,1
DA:258,1
DA:259,1
DA:260,1
DA:261,1
DA:262,1
DA:263,1
DA:264,1
DA:265,1
DA:268,1
DA:269,1
DA:270,1
DA:271,1
DA:272,1
DA:273,1
DA:274,1
DA:275,1
DA:278,0
DA:279,0
DA:280,0
DA:281,0
DA:282,0
DA:283,0
DA:284,0
DA:285,0
DA:288,0
DA:289,0
DA:290,0
DA:291,0
DA:292,0
DA:293,0
DA:294,0
DA:295,0
DA:298,1
DA:299,1
DA:300,1
DA:301,1
DA:302,1
DA:303,1
DA:304,1
DA:305,1
DA:308,0
DA:309,0
DA:310,0
DA:311,0
DA:312,0
DA:313,0
DA:314,0
DA:315,0
DA:316,0
DA:317,0
DA:318,0
DA:319,0
DA:320,0
DA:323,1
DA:324,1
DA:325,1
DA:326,1
DA:327,1
DA:328,1
DA:329,1
DA:330,1
DA:331,1
DA:332,1
DA:333,1
DA:334,1
DA:335,1
DA:338,0
DA:339,0
DA:340,0
DA:341,0
DA:342,0
DA:343,0
DA:344,0
DA:347,1
DA:348,1
DA:349,1
DA:350,1
DA:351,1
DA:352,1
DA:353,1
DA:354,1
DA:355,1
DA:356,1
DA:357,1
DA:358,1
DA:359,1
DA:362,1
DA:363,1
DA:364,1
DA:365,1
DA:366,1
DA:367,1
DA:368,1
DA:369,1
DA:370,1
DA:371,1
DA:372,1
DA:373,1
DA:374,1
DA:377,0
DA:378,0
DA:379,0
DA:380,0
DA:381,0
DA:382,0
DA:383,0
DA:386,0
DA:387,0
DA:388,0
DA:389,0
DA:390,0
DA:391,0
DA:392,0
DA:395,0
DA:396,0
DA:397,0
DA:402,0
DA:404,0
DA:405,0
DA:406,0
DA:407,0
DA:408,0
DA:409,0
DA:410,0
DA:412,0
DA:413,0
DA:414,0
DA:415,0
DA:416,0
DA:417,0
DA:418,0
DA:420,0
DA:422,0
DA:424,0
DA:427,0
DA:428,0
DA:433,0
DA:434,0
DA:435,0
DA:436,0
DA:437,0
DA:438,0
DA:439,0
DA:443,0
DA:444,0
DA:445,0
DA:446,0
DA:447,0
DA:448,0
DA:449,0
DA:451,0
DA:453,0
DA:455,0
DA:471,0
DA:472,0
DA:473,0
DA:474,0
DA:475,0
DA:476,0
DA:477,0
DA:478,0
DA:479,0
DA:481,0
DA:482,0
DA:483,0
DA:484,0
DA:485,0
DA:486,0
DA:487,0
DA:488,0
DA:490,0
DA:491,0
DA:492,0
DA:493,0
DA:494,0
DA:495,0
DA:496,0
DA:497,0
DA:498,0
DA:499,0
DA:501,0
DA:502,0
DA:503,0
BRF:0
BRH:0
LF:285
LH:95
end_of_record
SF:/Users/hl/Projects/private/bingo/crates/bingo-core/src/error_diagnostics.rs
FN:922,_RNCNvXININtCs6Pl1wmeKPjF_10bingo_core17error_diagnosticss4_0pEINtNtCsd2KPTObkMr_4core6result6ResultpNtNtB9_5error10BingoErrorEINtB7_19ResultDiagnosticExtpE16with_diagnostics0B9_
FN:918,_RNvXININtCs6Pl1wmeKPjF_10bingo_core17error_diagnosticss4_0pEINtNtCsd2KPTObkMr_4core6result6ResultpNtNtB7_5error10BingoErrorEINtB5_19ResultDiagnosticExtpE16with_diagnosticsB7_
FN:756,_RNCNvMs2_NtCs6Pl1wmeKPjF_10bingo_core17error_diagnosticsNtB7_23ErrorDiagnosticsManager16update_analytics0B9_
FN:698,_RNCNvMs2_NtCs6Pl1wmeKPjF_10bingo_core17error_diagnosticsNtB7_23ErrorDiagnosticsManager19find_similar_errors0B9_
FN:699,_RNCNvMs2_NtCs6Pl1wmeKPjF_10bingo_core17error_diagnosticsNtB7_23ErrorDiagnosticsManager19find_similar_errorss_0B9_
FN:815,_RNCNvMs2_NtCs6Pl1wmeKPjF_10bingo_core17error_diagnosticsNtB7_23ErrorDiagnosticsManager21generate_error_report0B9_
FN:844,_RNCNvMs2_NtCs6Pl1wmeKPjF_10bingo_core17error_diagnosticsNtB7_23ErrorDiagnosticsManager22get_most_common_errors0B9_
FN:858,_RNCNvMs2_NtCs6Pl1wmeKPjF_10bingo_core17error_diagnosticsNtB7_23ErrorDiagnosticsManager30get_top_resolution_suggestions0B9_
FN:904,_RNvXs3_NtCs6Pl1wmeKPjF_10bingo_core17error_diagnosticsNtNtB7_5error10BingoErrorNtB5_17ErrorToDiagnostic13to_diagnostic
FN:803,_RNvMs2_NtCs6Pl1wmeKPjF_10bingo_core17error_diagnosticsNtB5_23ErrorDiagnosticsManager13get_analytics
FN:717,_RNvMs2_NtCs6Pl1wmeKPjF_10bingo_core17error_diagnosticsNtB5_23ErrorDiagnosticsManager16update_analytics
FN:403,_RNvMs2_NtCs6Pl1wmeKPjF_10bingo_core17error_diagnosticsNtB5_23ErrorDiagnosticsManager17create_diagnostic
FN:798,_RNvMs2_NtCs6Pl1wmeKPjF_10bingo_core17error_diagnosticsNtB5_23ErrorDiagnosticsManager17get_debug_session
FN:692,_RNvMs2_NtCs6Pl1wmeKPjF_10bingo_core17error_diagnosticsNtB5_23ErrorDiagnosticsManager19find_similar_errors
FN:769,_RNvMs2_NtCs6Pl1wmeKPjF_10bingo_core17error_diagnosticsNtB5_23ErrorDiagnosticsManager19start_debug_session
FN:785,_RNvMs2_NtCs6Pl1wmeKPjF_10bingo_core17error_diagnosticsNtB5_23ErrorDiagnosticsManager20add_error_to_session
FN:443,_RNvMs2_NtCs6Pl1wmeKPjF_10bingo_core17error_diagnosticsNtB5_23ErrorDiagnosticsManager20generate_suggestions
FN:808,_RNvMs2_NtCs6Pl1wmeKPjF_10bingo_core17error_diagnosticsNtB5_23ErrorDiagnosticsManager21generate_error_report
FN:837,_RNvMs2_NtCs6Pl1wmeKPjF_10bingo_core17error_diagnosticsNtB5_23ErrorDiagnosticsManager22get_most_common_errors
FN:760,_RNvMs2_NtCs6Pl1wmeKPjF_10bingo_core17error_diagnosticsNtB5_23ErrorDiagnosticsManager25load_suggestion_templates
FN:641,_RNvMs2_NtCs6Pl1wmeKPjF_10bingo_core17error_diagnosticsNtB5_23ErrorDiagnosticsManager28generate_documentation_links
FN:849,_RNvMs2_NtCs6Pl1wmeKPjF_10bingo_core17error_diagnosticsNtB5_23ErrorDiagnosticsManager30get_top_resolution_suggestions
FN:383,_RNvMs2_NtCs6Pl1wmeKPjF_10bingo_core17error_diagnosticsNtB5_23ErrorDiagnosticsManager3new
FN:883,_RNvNtCs6Pl1wmeKPjF_10bingo_core17error_diagnostics28calculate_message_similarity
FN:336,_RNvXNtCs6Pl1wmeKPjF_10bingo_core17error_diagnosticsNtB2_11EffortLevelNtNtCsd2KPTObkMr_4core3fmt7Display3fmt
FN:360,_RNvXs0_NtCs6Pl1wmeKPjF_10bingo_core17error_diagnosticsNtB5_17DiagnosticsConfigNtNtCsd2KPTObkMr_4core7default7Default7default
FN:371,_RNvXs1_NtCs6Pl1wmeKPjF_10bingo_core17error_diagnosticsNtB5_18DebugSessionConfigNtNtCsd2KPTObkMr_4core7default7Default7default
FN:348,_RNvXs_NtCs6Pl1wmeKPjF_10bingo_core17error_diagnosticsNtB4_9RiskLevelNtNtCsd2KPTObkMr_4core3fmt7Display3fmt
FN:815,_RNCNvMs2_NtCscF0MZJB4Qop_10bingo_core17error_diagnosticsNtB7_23ErrorDiagnosticsManager21generate_error_report0B9_
FN:844,_RNCNvMs2_NtCscF0MZJB4Qop_10bingo_core17error_diagnosticsNtB7_23ErrorDiagnosticsManager22get_most_common_errors0B9_
FN:858,_RNCNvMs2_NtCscF0MZJB4Qop_10bingo_core17error_diagnosticsNtB7_23ErrorDiagnosticsManager30get_top_resolution_suggestions0B9_
FN:922,_RNCNvXININtCscF0MZJB4Qop_10bingo_core17error_diagnosticss4_0pEINtNtCsd2KPTObkMr_4core6result6ResultpNtNtB9_5error10BingoErrorEINtB7_19ResultDiagnosticExtpE16with_diagnostics0B9_
FN:803,_RNvMs2_NtCscF0MZJB4Qop_10bingo_core17error_diagnosticsNtB5_23ErrorDiagnosticsManager13get_analytics
FN:798,_RNvMs2_NtCscF0MZJB4Qop_10bingo_core17error_diagnosticsNtB5_23ErrorDiagnosticsManager17get_debug_session
FN:769,_RNvMs2_NtCscF0MZJB4Qop_10bingo_core17error_diagnosticsNtB5_23ErrorDiagnosticsManager19start_debug_session
FN:785,_RNvMs2_NtCscF0MZJB4Qop_10bingo_core17error_diagnosticsNtB5_23ErrorDiagnosticsManager20add_error_to_session
FN:808,_RNvMs2_NtCscF0MZJB4Qop_10bingo_core17error_diagnosticsNtB5_23ErrorDiagnosticsManager21generate_error_report
FN:837,_RNvMs2_NtCscF0MZJB4Qop_10bingo_core17error_diagnosticsNtB5_23ErrorDiagnosticsManager22get_most_common_errors
FN:849,_RNvMs2_NtCscF0MZJB4Qop_10bingo_core17error_diagnosticsNtB5_23ErrorDiagnosticsManager30get_top_resolution_suggestions
FN:918,_RNvXININtCscF0MZJB4Qop_10bingo_core17error_diagnosticss4_0pEINtNtCsd2KPTObkMr_4core6result6ResultpNtNtB7_5error10BingoErrorEINtB5_19ResultDiagnosticExtpE16with_diagnosticsB7_
FN:336,_RNvXNtCscF0MZJB4Qop_10bingo_core17error_diagnosticsNtB2_11EffortLevelNtNtCsd2KPTObkMr_4core3fmt7Display3fmt
FN:371,_RNvXs1_NtCscF0MZJB4Qop_10bingo_core17error_diagnosticsNtB5_18DebugSessionConfigNtNtCsd2KPTObkMr_4core7default7Default7default
FN:904,_RNvXs3_NtCscF0MZJB4Qop_10bingo_core17error_diagnosticsNtNtB7_5error10BingoErrorNtB5_17ErrorToDiagnostic13to_diagnostic
FN:348,_RNvXs_NtCscF0MZJB4Qop_10bingo_core17error_diagnosticsNtB4_9RiskLevelNtNtCsd2KPTObkMr_4core3fmt7Display3fmt
FN:756,_RNCNvMs2_NtCscF0MZJB4Qop_10bingo_core17error_diagnosticsNtB7_23ErrorDiagnosticsManager16update_analytics0B9_
FN:698,_RNCNvMs2_NtCscF0MZJB4Qop_10bingo_core17error_diagnosticsNtB7_23ErrorDiagnosticsManager19find_similar_errors0B9_
FN:699,_RNCNvMs2_NtCscF0MZJB4Qop_10bingo_core17error_diagnosticsNtB7_23ErrorDiagnosticsManager19find_similar_errorss_0B9_
FN:941,_RNvNtNtCscF0MZJB4Qop_10bingo_core17error_diagnostics5testss_23test_message_similarity
FN:931,_RNvNtNtCscF0MZJB4Qop_10bingo_core17error_diagnostics5testss_31test_error_diagnostics_creation
FN:717,_RNvMs2_NtCscF0MZJB4Qop_10bingo_core17error_diagnosticsNtB5_23ErrorDiagnosticsManager16update_analytics
FN:403,_RNvMs2_NtCscF0MZJB4Qop_10bingo_core17error_diagnosticsNtB5_23ErrorDiagnosticsManager17create_diagnostic
FN:692,_RNvMs2_NtCscF0MZJB4Qop_10bingo_core17error_diagnosticsNtB5_23ErrorDiagnosticsManager19find_similar_errors
FN:443,_RNvMs2_NtCscF0MZJB4Qop_10bingo_core17error_diagnosticsNtB5_23ErrorDiagnosticsManager20generate_suggestions
FN:760,_RNvMs2_NtCscF0MZJB4Qop_10bingo_core17error_diagnosticsNtB5_23ErrorDiagnosticsManager25load_suggestion_templates
FN:641,_RNvMs2_NtCscF0MZJB4Qop_10bingo_core17error_diagnosticsNtB5_23ErrorDiagnosticsManager28generate_documentation_links
FN:383,_RNvMs2_NtCscF0MZJB4Qop_10bingo_core17error_diagnosticsNtB5_23ErrorDiagnosticsManager3new
FN:883,_RNvNtCscF0MZJB4Qop_10bingo_core17error_diagnostics28calculate_message_similarity
FN:360,_RNvXs0_NtCscF0MZJB4Qop_10bingo_core17error_diagnosticsNtB5_17DiagnosticsConfigNtNtCsd2KPTObkMr_4core7default7Default7default
FNDA:0,_RNCNvXININtCs6Pl1wmeKPjF_10bingo_core17error_diagnosticss4_0pEINtNtCsd2KPTObkMr_4core6result6ResultpNtNtB9_5error10BingoErrorEINtB7_19ResultDiagnosticExtpE16with_diagnostics0B9_
FNDA:0,_RNvXININtCs6Pl1wmeKPjF_10bingo_core17error_diagnosticss4_0pEINtNtCsd2KPTObkMr_4core6result6ResultpNtNtB7_5error10BingoErrorEINtB5_19ResultDiagnosticExtpE16with_diagnosticsB7_
FNDA:1,_RNCNvMs2_NtCs6Pl1wmeKPjF_10bingo_core17error_diagnosticsNtB7_23ErrorDiagnosticsManager16update_analytics0B9_
FNDA:0,_RNCNvMs2_NtCs6Pl1wmeKPjF_10bingo_core17error_diagnosticsNtB7_23ErrorDiagnosticsManager19find_similar_errors0B9_
FNDA:0,_RNCNvMs2_NtCs6Pl1wmeKPjF_10bingo_core17error_diagnosticsNtB7_23ErrorDiagnosticsManager19find_similar_errorss_0B9_
FNDA:0,_RNCNvMs2_NtCs6Pl1wmeKPjF_10bingo_core17error_diagnosticsNtB7_23ErrorDiagnosticsManager21generate_error_report0B9_
FNDA:0,_RNCNvMs2_NtCs6Pl1wmeKPjF_10bingo_core17error_diagnosticsNtB7_23ErrorDiagnosticsManager22get_most_common_errors0B9_
FNDA:0,_RNCNvMs2_NtCs6Pl1wmeKPjF_10bingo_core17error_diagnosticsNtB7_23ErrorDiagnosticsManager30get_top_resolution_suggestions0B9_
FNDA:1,_RNvXs3_NtCs6Pl1wmeKPjF_10bingo_core17error_diagnosticsNtNtB7_5error10BingoErrorNtB5_17ErrorToDiagnostic13to_diagnostic
FNDA:0,_RNvMs2_NtCs6Pl1wmeKPjF_10bingo_core17error_diagnosticsNtB5_23ErrorDiagnosticsManager13get_analytics
FNDA:1,_RNvMs2_NtCs6Pl1wmeKPjF_10bingo_core17error_diagnosticsNtB5_23ErrorDiagnosticsManager16update_analytics
FNDA:1,_RNvMs2_NtCs6Pl1wmeKPjF_10bingo_core17error_diagnosticsNtB5_23ErrorDiagnosticsManager17create_diagnostic
FNDA:0,_RNvMs2_NtCs6Pl1wmeKPjF_10bingo_core17error_diagnosticsNtB5_23ErrorDiagnosticsManager17get_debug_session
FNDA:1,_RNvMs2_NtCs6Pl1wmeKPjF_10bingo_core17error_diagnosticsNtB5_23ErrorDiagnosticsManager19find_similar_errors
FNDA:0,_RNvMs2_NtCs6Pl1wmeKPjF_10bingo_core17error_diagnosticsNtB5_23ErrorDiagnosticsManager19start_debug_session
FNDA:0,_RNvMs2_NtCs6Pl1wmeKPjF_10bingo_core17error_diagnosticsNtB5_23ErrorDiagnosticsManager20add_error_to_session
FNDA:1,_RNvMs2_NtCs6Pl1wmeKPjF_10bingo_core17error_diagnosticsNtB5_23ErrorDiagnosticsManager20generate_suggestions
FNDA:0,_RNvMs2_NtCs6Pl1wmeKPjF_10bingo_core17error_diagnosticsNtB5_23ErrorDiagnosticsManager21generate_error_report
FNDA:0,_RNvMs2_NtCs6Pl1wmeKPjF_10bingo_core17error_diagnosticsNtB5_23ErrorDiagnosticsManager22get_most_common_errors
FNDA:2,_RNvMs2_NtCs6Pl1wmeKPjF_10bingo_core17error_diagnosticsNtB5_23ErrorDiagnosticsManager25load_suggestion_templates
FNDA:1,_RNvMs2_NtCs6Pl1wmeKPjF_10bingo_core17error_diagnosticsNtB5_23ErrorDiagnosticsManager28generate_documentation_links
FNDA:0,_RNvMs2_NtCs6Pl1wmeKPjF_10bingo_core17error_diagnosticsNtB5_23ErrorDiagnosticsManager30get_top_resolution_suggestions
FNDA:2,_RNvMs2_NtCs6Pl1wmeKPjF_10bingo_core17error_diagnosticsNtB5_23ErrorDiagnosticsManager3new
FNDA:0,_RNvNtCs6Pl1wmeKPjF_10bingo_core17error_diagnostics28calculate_message_similarity
FNDA:1,_RNvXNtCs6Pl1wmeKPjF_10bingo_core17error_diagnosticsNtB2_11EffortLevelNtNtCsd2KPTObkMr_4core3fmt7Display3fmt
FNDA:2,_RNvXs0_NtCs6Pl1wmeKPjF_10bingo_core17error_diagnosticsNtB5_17DiagnosticsConfigNtNtCsd2KPTObkMr_4core7default7Default7default
FNDA:0,_RNvXs1_NtCs6Pl1wmeKPjF_10bingo_core17error_diagnosticsNtB5_18DebugSessionConfigNtNtCsd2KPTObkMr_4core7default7Default7default
FNDA:0,_RNvXs_NtCs6Pl1wmeKPjF_10bingo_core17error_diagnosticsNtB4_9RiskLevelNtNtCsd2KPTObkMr_4core3fmt7Display3fmt
FNDA:0,_RNCNvMs2_NtCscF0MZJB4Qop_10bingo_core17error_diagnosticsNtB7_23ErrorDiagnosticsManager21generate_error_report0B9_
FNDA:0,_RNCNvMs2_NtCscF0MZJB4Qop_10bingo_core17error_diagnosticsNtB7_23ErrorDiagnosticsManager22get_most_common_errors0B9_
FNDA:0,_RNCNvMs2_NtCscF0MZJB4Qop_10bingo_core17error_diagnosticsNtB7_23ErrorDiagnosticsManager30get_top_resolution_suggestions0B9_
FNDA:0,_RNCNvXININtCscF0MZJB4Qop_10bingo_core17error_diagnosticss4_0pEINtNtCsd2KPTObkMr_4core6result6ResultpNtNtB9_5error10BingoErrorEINtB7_19ResultDiagnosticExtpE16with_diagnostics0B9_
FNDA:0,_RNvMs2_NtCscF0MZJB4Qop_10bingo_core17error_diagnosticsNtB5_23ErrorDiagnosticsManager13get_analytics
FNDA:0,_RNvMs2_NtCscF0MZJB4Qop_10bingo_core17error_diagnosticsNtB5_23ErrorDiagnosticsManager17get_debug_session
FNDA:0,_RNvMs2_NtCscF0MZJB4Qop_10bingo_core17error_diagnosticsNtB5_23ErrorDiagnosticsManager19start_debug_session
FNDA:0,_RNvMs2_NtCscF0MZJB4Qop_10bingo_core17error_diagnosticsNtB5_23ErrorDiagnosticsManager20add_error_to_session
FNDA:0,_RNvMs2_NtCscF0MZJB4Qop_10bingo_core17error_diagnosticsNtB5_23ErrorDiagnosticsManager21generate_error_report
FNDA:0,_RNvMs2_NtCscF0MZJB4Qop_10bingo_core17error_diagnosticsNtB5_23ErrorDiagnosticsManager22get_most_common_errors
FNDA:0,_RNvMs2_NtCscF0MZJB4Qop_10bingo_core17error_diagnosticsNtB5_23ErrorDiagnosticsManager30get_top_resolution_suggestions
FNDA:0,_RNvXININtCscF0MZJB4Qop_10bingo_core17error_diagnosticss4_0pEINtNtCsd2KPTObkMr_4core6result6ResultpNtNtB7_5error10BingoErrorEINtB5_19ResultDiagnosticExtpE16with_diagnosticsB7_
FNDA:0,_RNvXNtCscF0MZJB4Qop_10bingo_core17error_diagnosticsNtB2_11EffortLevelNtNtCsd2KPTObkMr_4core3fmt7Display3fmt
FNDA:0,_RNvXs1_NtCscF0MZJB4Qop_10bingo_core17error_diagnosticsNtB5_18DebugSessionConfigNtNtCsd2KPTObkMr_4core7default7Default7default
FNDA:0,_RNvXs3_NtCscF0MZJB4Qop_10bingo_core17error_diagnosticsNtNtB7_5error10BingoErrorNtB5_17ErrorToDiagnostic13to_diagnostic
FNDA:0,_RNvXs_NtCscF0MZJB4Qop_10bingo_core17error_diagnosticsNtB4_9RiskLevelNtNtCsd2KPTObkMr_4core3fmt7Display3fmt
FNDA:1,_RNCNvMs2_NtCscF0MZJB4Qop_10bingo_core17error_diagnosticsNtB7_23ErrorDiagnosticsManager16update_analytics0B9_
FNDA:0,_RNCNvMs2_NtCscF0MZJB4Qop_10bingo_core17error_diagnosticsNtB7_23ErrorDiagnosticsManager19find_similar_errors0B9_
FNDA:0,_RNCNvMs2_NtCscF0MZJB4Qop_10bingo_core17error_diagnosticsNtB7_23ErrorDiagnosticsManager19find_similar_errorss_0B9_
FNDA:1,_RNvNtNtCscF0MZJB4Qop_10bingo_core17error_diagnostics5testss_23test_message_similarity
FNDA:1,_RNvNtNtCscF0MZJB4Qop_10bingo_core17error_diagnostics5testss_31test_error_diagnostics_creation
FNDA:1,_RNvMs2_NtCscF0MZJB4Qop_10bingo_core17error_diagnosticsNtB5_23ErrorDiagnosticsManager16update_analytics
FNDA:1,_RNvMs2_NtCscF0MZJB4Qop_10bingo_core17error_diagnosticsNtB5_23ErrorDiagnosticsManager17create_diagnostic
FNDA:1,_RNvMs2_NtCscF0MZJB4Qop_10bingo_core17error_diagnosticsNtB5_23ErrorDiagnosticsManager19find_similar_errors
FNDA:1,_RNvMs2_NtCscF0MZJB4Qop_10bingo_core17error_diagnosticsNtB5_23ErrorDiagnosticsManager20generate_suggestions
FNDA:1,_RNvMs2_NtCscF0MZJB4Qop_10bingo_core17error_diagnosticsNtB5_23ErrorDiagnosticsManager25load_suggestion_templates
FNDA:1,_RNvMs2_NtCscF0MZJB4Qop_10bingo_core17error_diagnosticsNtB5_23ErrorDiagnosticsManager28generate_documentation_links
FNDA:1,_RNvMs2_NtCscF0MZJB4Qop_10bingo_core17error_diagnosticsNtB5_23ErrorDiagnosticsManager3new
FNDA:1,_RNvNtCscF0MZJB4Qop_10bingo_core17error_diagnostics28calculate_message_similarity
FNDA:1,_RNvXs0_NtCscF0MZJB4Qop_10bingo_core17error_diagnosticsNtB5_17DiagnosticsConfigNtNtCsd2KPTObkMr_4core7default7Default7default
FNF:30
FNH:14
DA:336,1
DA:337,1
DA:338,1
DA:339,0
DA:340,0
DA:341,0
DA:342,0
DA:344,1
DA:348,0
DA:349,0
DA:350,0
DA:351,0
DA:352,0
DA:353,0
DA:354,0
DA:356,0
DA:360,3
DA:361,3
DA:362,3
DA:363,3
DA:364,3
DA:365,3
DA:366,3
DA:367,3
DA:371,0
DA:372,0
DA:373,0
DA:374,0
DA:375,0
DA:376,0
DA:377,0
DA:378,0
DA:383,3
DA:384,3
DA:385,3
DA:386,3
DA:387,3
DA:388,3
DA:389,3
DA:390,3
DA:391,3
DA:392,3
DA:393,3
DA:394,3
DA:395,3
DA:396,3
DA:398,3
DA:399,3
DA:400,3
DA:403,2
DA:404,2
DA:405,2
DA:406,2
DA:407,2
DA:409,2
DA:410,2
DA:412,2
DA:413,2
DA:414,2
DA:415,2
DA:416,2
DA:417,2
DA:418,2
DA:419,2
DA:420,2
DA:421,2
DA:422,2
DA:423,2
DA:424,2
DA:425,2
DA:426,2
DA:429,2
DA:430,2
DA:431,2
DA:434,2
DA:435,2
DA:436,0
DA:437,2
DA:439,2
DA:440,2
DA:443,2
DA:444,2
DA:446,2
DA:447,2
DA:448,2
DA:449,2
DA:450,2
DA:451,2
DA:452,2
DA:453,2
DA:454,2
DA:455,2
DA:456,2
DA:457,2
DA:458,2
DA:459,2
DA:460,2
DA:461,2
DA:462,2
DA:463,2
DA:464,2
DA:465,2
DA:466,2
DA:467,2
DA:468,2
DA:469,2
DA:470,2
DA:471,2
DA:472,2
DA:473,2
DA:474,2
DA:475,2
DA:476,2
DA:477,2
DA:478,2
DA:479,2
DA:480,2
DA:481,2
DA:482,2
DA:483,2
DA:484,2
DA:485,2
DA:487,2
DA:488,0
DA:489,0
DA:490,0
DA:491,0
DA:492,0
DA:493,0
DA:494,0
DA:495,0
DA:496,0
DA:497,0
DA:498,0
DA:499,0
DA:500,0
DA:501,0
DA:502,0
DA:503,2
DA:506,0
DA:507,0
DA:508,0
DA:509,0
DA:510,0
DA:511,0
DA:512,0
DA:513,0
DA:514,0
DA:515,0
DA:516,0
DA:517,0
DA:518,0
DA:519,0
DA:520,0
DA:521,0
DA:522,0
DA:523,0
DA:524,0
DA:525,0
DA:526,0
DA:527,0
DA:528,0
DA:529,0
DA:530,0
DA:531,0
DA:532,0
DA:533,0
DA:534,0
DA:535,0
DA:536,0
DA:537,0
DA:538,0
DA:539,0
DA:540,0
DA:541,0
DA:542,0
DA:543,0
DA:544,0
DA:546,0
DA:547,0
DA:548,0
DA:549,0
DA:550,0
DA:551,0
DA:552,0
DA:553,0
DA:554,0
DA:555,0
DA:556,0
DA:557,0
DA:558,0
DA:559,0
DA:560,0
DA:561,0
DA:562,0
DA:563,0
DA:564,0
DA:565,0
DA:566,0
DA:567,0
DA:568,0
DA:569,0
DA:570,0
DA:571,0
DA:572,0
DA:573,0
DA:574,0
DA:575,0
DA:576,0
DA:578,0
DA:579,0
DA:580,0
DA:581,0
DA:582,0
DA:583,0
DA:584,0
DA:585,0
DA:586,0
DA:587,0
DA:588,0
DA:589,0
DA:590,0
DA:591,0
DA:592,0
DA:593,0
DA:594,0
DA:595,0
DA:596,0
DA:597,0
DA:598,0
DA:599,0
DA:600,0
DA:601,0
DA:602,0
DA:603,0
DA:604,0
DA:605,0
DA:606,0
DA:607,0
DA:608,0
DA:609,0
DA:610,0
DA:611,0
DA:612,0
DA:613,0
DA:614,0
DA:617,0
DA:618,0
DA:619,0
DA:620,0
DA:621,0
DA:622,0
DA:623,0
DA:624,0
DA:625,0
DA:626,0
DA:627,0
DA:628,0
DA:629,0
DA:630,0
DA:631,0
DA:632,0
DA:633,0
DA:634,0
DA:637,2
DA:638,2
DA:641,2
DA:642,2
DA:644,2
DA:645,2
DA:646,2
DA:647,2
DA:648,2
DA:649,2
DA:650,2
DA:651,2
DA:652,2
DA:653,2
DA:654,2
DA:655,2
DA:656,2
DA:657,2
DA:658,2
DA:660,0
DA:661,0
DA:662,0
DA:663,0
DA:664,0
DA:665,0
DA:666,0
DA:667,0
DA:669,0
DA:670,0
DA:671,0
DA:672,0
DA:673,0
DA:674,0
DA:675,0
DA:676,0
DA:678,0
DA:679,0
DA:680,0
DA:681,0
DA:682,0
DA:683,0
DA:684,0
DA:685,0
DA:688,2
DA:689,2
DA:692,2
DA:693,2
DA:694,2
DA:696,2
DA:697,2
DA:698,2
DA:699,2
DA:700,0
DA:701,0
DA:702,0
DA:703,0
DA:704,0
DA:705,0
DA:706,0
DA:707,0
DA:709,0
DA:711,0
DA:712,2
DA:713,2
DA:714,2
DA:717,2
DA:719,2
DA:720,2
DA:721,2
DA:722,2
DA:723,2
DA:726,2
DA:727,2
DA:728,0
DA:729,0
DA:730,0
DA:731,0
DA:732,0
DA:733,0
DA:734,0
DA:735,0
DA:736,0
DA:737,0
DA:738,0
DA:739,0
DA:740,0
DA:741,0
DA:742,2
DA:743,2
DA:744,2
DA:745,2
DA:746,2
DA:747,2
DA:748,2
DA:749,2
DA:750,2
DA:751,2
DA:752,2
DA:755,2
DA:756,2
DA:757,2
DA:760,3
DA:763,3
DA:764,3
DA:765,3
DA:766,3
DA:769,0
DA:770,0
DA:771,0
DA:772,0
DA:773,0
DA:774,0
DA:775,0
DA:776,0
DA:777,0
DA:778,0
DA:780,0
DA:781,0
DA:782,0
DA:785,0
DA:786,0
DA:787,0
DA:788,0
DA:789,0
DA:791,0
DA:792,0
DA:793,0
DA:794,0
DA:795,0
DA:798,0
DA:799,0
DA:800,0
DA:803,0
DA:804,0
DA:805,0
DA:808,0
DA:809,0
DA:810,0
DA:811,0
DA:814,0
DA:815,0
DA:817,0
DA:818,0
DA:819,0
DA:821,0
DA:822,0
DA:823,0
DA:824,0
DA:826,0
DA:827,0
DA:828,0
DA:829,0
DA:830,0
DA:831,0
DA:832,0
DA:833,0
DA:834,0
DA:837,0
DA:838,0
DA:839,0
DA:840,0
DA:841,0
DA:843,0
DA:844,0
DA:845,0
DA:846,0
DA:849,0
DA:850,0
DA:851,0
DA:852,0
DA:853,0
DA:854,0
DA:855,0
DA:856,0
DA:858,0
DA:859,0
DA:860,0
DA:861,0
DA:862,0
DA:883,1
DA:885,1
DA:886,1
DA:888,1
DA:889,1
DA:891,1
DA:892,0
DA:894,1
DA:896,1
DA:904,1
DA:905,1
DA:906,1
DA:918,0
DA:919,0
DA:920,0
DA:921,0
DA:922,0
DA:923,0
DA:931,1
DA:932,1
DA:933,1
DA:934,1
DA:936,1
DA:937,1
DA:938,1
DA:941,1
DA:942,1
DA:943,1
DA:944,1
DA:946,1
DA:947,1
BRF:0
BRH:0
LF:481
LH:186
end_of_record
SF:/Users/hl/Projects/private/bingo/crates/bingo-core/src/error_testing.rs
FN:686,_RNCNvMs1_NtCs6Pl1wmeKPjF_10bingo_core13error_testingNtB7_20ErrorMessageAnalyzer20add_default_criteria0B9_
FN:723,_RNCNvMs1_NtCs6Pl1wmeKPjF_10bingo_core13error_testingNtB7_20ErrorMessageAnalyzer20add_default_criterias0_0B9_
FN:737,_RNCNvMs1_NtCs6Pl1wmeKPjF_10bingo_core13error_testingNtB7_20ErrorMessageAnalyzer20add_default_criterias1_0B9_
FN:707,_RNCNvMs1_NtCs6Pl1wmeKPjF_10bingo_core13error_testingNtB7_20ErrorMessageAnalyzer20add_default_criterias_0B9_
FN:791,_RNCNvMs3_NtCs6Pl1wmeKPjF_10bingo_core13error_testingNtB7_24ErrorSuggestionValidator17add_default_rules0B9_
FN:829,_RNCNvMs3_NtCs6Pl1wmeKPjF_10bingo_core13error_testingNtB7_24ErrorSuggestionValidator17add_default_ruless0_0B9_
FN:813,_RNCNvMs3_NtCs6Pl1wmeKPjF_10bingo_core13error_testingNtB7_24ErrorSuggestionValidator17add_default_ruless_0B9_
FN:609,_RNCNvMs_NtCs6Pl1wmeKPjF_10bingo_core13error_testingNtB6_14ErrorTestSuite14get_top_issues0B8_
FN:506,_RNCNvMs_NtCs6Pl1wmeKPjF_10bingo_core13error_testingNtB6_14ErrorTestSuite16test_suggestions0B8_
FN:618,_RNCNvMs_NtCs6Pl1wmeKPjF_10bingo_core13error_testingNtB6_14ErrorTestSuite31get_improvement_recommendations0B8_
FN:626,_RNCNvMs_NtCs6Pl1wmeKPjF_10bingo_core13error_testingNtB6_14ErrorTestSuite31get_improvement_recommendationss0_0B8_
FN:631,_RNCNvMs_NtCs6Pl1wmeKPjF_10bingo_core13error_testingNtB6_14ErrorTestSuite31get_improvement_recommendationss1_0B8_
FN:621,_RNCNvMs_NtCs6Pl1wmeKPjF_10bingo_core13error_testingNtB6_14ErrorTestSuite31get_improvement_recommendationss_0B8_
FN:754,_RNvMs1_NtCs6Pl1wmeKPjF_10bingo_core13error_testingNtB5_20ErrorMessageAnalyzer15analyze_message
FN:682,_RNvMs1_NtCs6Pl1wmeKPjF_10bingo_core13error_testingNtB5_20ErrorMessageAnalyzer20add_default_criteria
FN:674,_RNvMs1_NtCs6Pl1wmeKPjF_10bingo_core13error_testingNtB5_20ErrorMessageAnalyzer3new
FN:788,_RNvMs3_NtCs6Pl1wmeKPjF_10bingo_core13error_testingNtB5_24ErrorSuggestionValidator17add_default_rules
FN:845,_RNvMs3_NtCs6Pl1wmeKPjF_10bingo_core13error_testingNtB5_24ErrorSuggestionValidator19validate_suggestion
FN:780,_RNvMs3_NtCs6Pl1wmeKPjF_10bingo_core13error_testingNtB5_24ErrorSuggestionValidator3new
FN:640,_RNvMs_NtCs6Pl1wmeKPjF_10bingo_core13error_testingNtB4_14ErrorTestSuite11get_results
FN:172,_RNvMs_NtCs6Pl1wmeKPjF_10bingo_core13error_testingNtB4_14ErrorTestSuite12add_scenario
FN:358,_RNvMs_NtCs6Pl1wmeKPjF_10bingo_core13error_testingNtB4_14ErrorTestSuite12run_scenario
FN:477,_RNvMs_NtCs6Pl1wmeKPjF_10bingo_core13error_testingNtB4_14ErrorTestSuite13test_severity
FN:599,_RNvMs_NtCs6Pl1wmeKPjF_10bingo_core13error_testingNtB4_14ErrorTestSuite14get_top_issues
FN:549,_RNvMs_NtCs6Pl1wmeKPjF_10bingo_core13error_testingNtB4_14ErrorTestSuite16generate_summary
FN:496,_RNvMs_NtCs6Pl1wmeKPjF_10bingo_core13error_testingNtB4_14ErrorTestSuite16test_suggestions
FN:530,_RNvMs_NtCs6Pl1wmeKPjF_10bingo_core13error_testingNtB4_14ErrorTestSuite18test_documentation
FN:458,_RNvMs_NtCs6Pl1wmeKPjF_10bingo_core13error_testingNtB4_14ErrorTestSuite19test_categorization
FN:177,_RNvMs_NtCs6Pl1wmeKPjF_10bingo_core13error_testingNtB4_14ErrorTestSuite22with_default_scenarios
FN:577,_RNvMs_NtCs6Pl1wmeKPjF_10bingo_core13error_testingNtB4_14ErrorTestSuite25calculate_category_scores
FN:615,_RNvMs_NtCs6Pl1wmeKPjF_10bingo_core13error_testingNtB4_14ErrorTestSuite31get_improvement_recommendations
FN:167,_RNvMs_NtCs6Pl1wmeKPjF_10bingo_core13error_testingNtB4_14ErrorTestSuite3new
FN:337,_RNvMs_NtCs6Pl1wmeKPjF_10bingo_core13error_testingNtB4_14ErrorTestSuite9run_tests
FN:871,_RNvNtCs6Pl1wmeKPjF_10bingo_core13error_testing15run_error_tests
FN:153,_RNvXNtCs6Pl1wmeKPjF_10bingo_core13error_testingNtB2_15ErrorTestConfigNtNtCsd2KPTObkMr_4core7default7Default7default
FN:667,_RNvXs0_NtCs6Pl1wmeKPjF_10bingo_core13error_testingNtB5_20ErrorMessageAnalyzerNtNtCsd2KPTObkMr_4core7default7Default7default
FN:773,_RNvXs2_NtCs6Pl1wmeKPjF_10bingo_core13error_testingNtB5_24ErrorSuggestionValidatorNtNtCsd2KPTObkMr_4core7default7Default7default
FN:609,_RNCNvMs_NtCscF0MZJB4Qop_10bingo_core13error_testingNtB6_14ErrorTestSuite14get_top_issues0B8_
FN:506,_RNCNvMs_NtCscF0MZJB4Qop_10bingo_core13error_testingNtB6_14ErrorTestSuite16test_suggestions0B8_
FN:618,_RNCNvMs_NtCscF0MZJB4Qop_10bingo_core13error_testingNtB6_14ErrorTestSuite31get_improvement_recommendations0B8_
FN:626,_RNCNvMs_NtCscF0MZJB4Qop_10bingo_core13error_testingNtB6_14ErrorTestSuite31get_improvement_recommendationss0_0B8_
FN:631,_RNCNvMs_NtCscF0MZJB4Qop_10bingo_core13error_testingNtB6_14ErrorTestSuite31get_improvement_recommendationss1_0B8_
FN:621,_RNCNvMs_NtCscF0MZJB4Qop_10bingo_core13error_testingNtB6_14ErrorTestSuite31get_improvement_recommendationss_0B8_
FN:640,_RNvMs_NtCscF0MZJB4Qop_10bingo_core13error_testingNtB4_14ErrorTestSuite11get_results
FN:358,_RNvMs_NtCscF0MZJB4Qop_10bingo_core13error_testingNtB4_14ErrorTestSuite12run_scenario
FN:477,_RNvMs_NtCscF0MZJB4Qop_10bingo_core13error_testingNtB4_14ErrorTestSuite13test_severity
FN:599,_RNvMs_NtCscF0MZJB4Qop_10bingo_core13error_testingNtB4_14ErrorTestSuite14get_top_issues
FN:549,_RNvMs_NtCscF0MZJB4Qop_10bingo_core13error_testingNtB4_14ErrorTestSuite16generate_summary
FN:496,_RNvMs_NtCscF0MZJB4Qop_10bingo_core13error_testingNtB4_14ErrorTestSuite16test_suggestions
FN:530,_RNvMs_NtCscF0MZJB4Qop_10bingo_core13error_testingNtB4_14ErrorTestSuite18test_documentation
FN:458,_RNvMs_NtCscF0MZJB4Qop_10bingo_core13error_testingNtB4_14ErrorTestSuite19test_categorization
FN:577,_RNvMs_NtCscF0MZJB4Qop_10bingo_core13error_testingNtB4_14ErrorTestSuite25calculate_category_scores
FN:615,_RNvMs_NtCscF0MZJB4Qop_10bingo_core13error_testingNtB4_14ErrorTestSuite31get_improvement_recommendations
FN:337,_RNvMs_NtCscF0MZJB4Qop_10bingo_core13error_testingNtB4_14ErrorTestSuite9run_tests
FN:871,_RNvNtCscF0MZJB4Qop_10bingo_core13error_testing15run_error_tests
FN:667,_RNvXs0_NtCscF0MZJB4Qop_10bingo_core13error_testingNtB5_20ErrorMessageAnalyzerNtNtCsd2KPTObkMr_4core7default7Default7default
FN:773,_RNvXs2_NtCscF0MZJB4Qop_10bingo_core13error_testingNtB5_24ErrorSuggestionValidatorNtNtCsd2KPTObkMr_4core7default7Default7default
FN:895,_RNvNtNtCscF0MZJB4Qop_10bingo_core13error_testing5testss_21test_message_analyzer
FN:889,_RNvNtNtCscF0MZJB4Qop_10bingo_core13error_testing5testss_22test_default_scenarios
FN:909,_RNvNtNtCscF0MZJB4Qop_10bingo_core13error_testing5testss_25test_suggestion_validator
FN:882,_RNvNtNtCscF0MZJB4Qop_10bingo_core13error_testing5testss_30test_error_test_suite_creation
FN:686,_RNCNvMs1_NtCscF0MZJB4Qop_10bingo_core13error_testingNtB7_20ErrorMessageAnalyzer20add_default_criteria0B9_
FN:723,_RNCNvMs1_NtCscF0MZJB4Qop_10bingo_core13error_testingNtB7_20ErrorMessageAnalyzer20add_default_criterias0_0B9_
FN:737,_RNCNvMs1_NtCscF0MZJB4Qop_10bingo_core13error_testingNtB7_20ErrorMessageAnalyzer20add_default_criterias1_0B9_
FN:707,_RNCNvMs1_NtCscF0MZJB4Qop_10bingo_core13error_testingNtB7_20ErrorMessageAnalyzer20add_default_criterias_0B9_
FN:791,_RNCNvMs3_NtCscF0MZJB4Qop_10bingo_core13error_testingNtB7_24ErrorSuggestionValidator17add_default_rules0B9_
FN:829,_RNCNvMs3_NtCscF0MZJB4Qop_10bingo_core13error_testingNtB7_24ErrorSuggestionValidator17add_default_ruless0_0B9_
FN:813,_RNCNvMs3_NtCscF0MZJB4Qop_10bingo_core13error_testingNtB7_24ErrorSuggestionValidator17add_default_ruless_0B9_
FN:754,_RNvMs1_NtCscF0MZJB4Qop_10bingo_core13error_testingNtB5_20ErrorMessageAnalyzer15analyze_message
FN:682,_RNvMs1_NtCscF0MZJB4Qop_10bingo_core13error_testingNtB5_20ErrorMessageAnalyzer20add_default_criteria
FN:674,_RNvMs1_NtCscF0MZJB4Qop_10bingo_core13error_testingNtB5_20ErrorMessageAnalyzer3new
FN:788,_RNvMs3_NtCscF0MZJB4Qop_10bingo_core13error_testingNtB5_24ErrorSuggestionValidator17add_default_rules
FN:845,_RNvMs3_NtCscF0MZJB4Qop_10bingo_core13error_testingNtB5_24ErrorSuggestionValidator19validate_suggestion
FN:780,_RNvMs3_NtCscF0MZJB4Qop_10bingo_core13error_testingNtB5_24ErrorSuggestionValidator3new
FN:172,_RNvMs_NtCscF0MZJB4Qop_10bingo_core13error_testingNtB4_14ErrorTestSuite12add_scenario
FN:177,_RNvMs_NtCscF0MZJB4Qop_10bingo_core13error_testingNtB4_14ErrorTestSuite22with_default_scenarios
FN:167,_RNvMs_NtCscF0MZJB4Qop_10bingo_core13error_testingNtB4_14ErrorTestSuite3new
FN:153,_RNvXNtCscF0MZJB4Qop_10bingo_core13error_testingNtB2_15ErrorTestConfigNtNtCsd2KPTObkMr_4core7default7Default7default
FNDA:0,_RNCNvMs1_NtCs6Pl1wmeKPjF_10bingo_core13error_testingNtB7_20ErrorMessageAnalyzer20add_default_criteria0B9_
FNDA:0,_RNCNvMs1_NtCs6Pl1wmeKPjF_10bingo_core13error_testingNtB7_20ErrorMessageAnalyzer20add_default_criterias0_0B9_
FNDA:0,_RNCNvMs1_NtCs6Pl1wmeKPjF_10bingo_core13error_testingNtB7_20ErrorMessageAnalyzer20add_default_criterias1_0B9_
FNDA:0,_RNCNvMs1_NtCs6Pl1wmeKPjF_10bingo_core13error_testingNtB7_20ErrorMessageAnalyzer20add_default_criterias_0B9_
FNDA:0,_RNCNvMs3_NtCs6Pl1wmeKPjF_10bingo_core13error_testingNtB7_24ErrorSuggestionValidator17add_default_rules0B9_
FNDA:0,_RNCNvMs3_NtCs6Pl1wmeKPjF_10bingo_core13error_testingNtB7_24ErrorSuggestionValidator17add_default_ruless0_0B9_
FNDA:0,_RNCNvMs3_NtCs6Pl1wmeKPjF_10bingo_core13error_testingNtB7_24ErrorSuggestionValidator17add_default_ruless_0B9_
FNDA:0,_RNCNvMs_NtCs6Pl1wmeKPjF_10bingo_core13error_testingNtB6_14ErrorTestSuite14get_top_issues0B8_
FNDA:0,_RNCNvMs_NtCs6Pl1wmeKPjF_10bingo_core13error_testingNtB6_14ErrorTestSuite16test_suggestions0B8_
FNDA:0,_RNCNvMs_NtCs6Pl1wmeKPjF_10bingo_core13error_testingNtB6_14ErrorTestSuite31get_improvement_recommendations0B8_
FNDA:0,_RNCNvMs_NtCs6Pl1wmeKPjF_10bingo_core13error_testingNtB6_14ErrorTestSuite31get_improvement_recommendationss0_0B8_
FNDA:0,_RNCNvMs_NtCs6Pl1wmeKPjF_10bingo_core13error_testingNtB6_14ErrorTestSuite31get_improvement_recommendationss1_0B8_
FNDA:0,_RNCNvMs_NtCs6Pl1wmeKPjF_10bingo_core13error_testingNtB6_14ErrorTestSuite31get_improvement_recommendationss_0B8_
FNDA:0,_RNvMs1_NtCs6Pl1wmeKPjF_10bingo_core13error_testingNtB5_20ErrorMessageAnalyzer15analyze_message
FNDA:0,_RNvMs1_NtCs6Pl1wmeKPjF_10bingo_core13error_testingNtB5_20ErrorMessageAnalyzer20add_default_criteria
FNDA:0,_RNvMs1_NtCs6Pl1wmeKPjF_10bingo_core13error_testingNtB5_20ErrorMessageAnalyzer3new
FNDA:0,_RNvMs3_NtCs6Pl1wmeKPjF_10bingo_core13error_testingNtB5_24ErrorSuggestionValidator17add_default_rules
FNDA:0,_RNvMs3_NtCs6Pl1wmeKPjF_10bingo_core13error_testingNtB5_24ErrorSuggestionValidator19validate_suggestion
FNDA:0,_RNvMs3_NtCs6Pl1wmeKPjF_10bingo_core13error_testingNtB5_24ErrorSuggestionValidator3new
FNDA:0,_RNvMs_NtCs6Pl1wmeKPjF_10bingo_core13error_testingNtB4_14ErrorTestSuite11get_results
FNDA:0,_RNvMs_NtCs6Pl1wmeKPjF_10bingo_core13error_testingNtB4_14ErrorTestSuite12add_scenario
FNDA:0,_RNvMs_NtCs6Pl1wmeKPjF_10bingo_core13error_testingNtB4_14ErrorTestSuite12run_scenario
FNDA:0,_RNvMs_NtCs6Pl1wmeKPjF_10bingo_core13error_testingNtB4_14ErrorTestSuite13test_severity
FNDA:0,_RNvMs_NtCs6Pl1wmeKPjF_10bingo_core13error_testingNtB4_14ErrorTestSuite14get_top_issues
FNDA:0,_RNvMs_NtCs6Pl1wmeKPjF_10bingo_core13error_testingNtB4_14ErrorTestSuite16generate_summary
FNDA:0,_RNvMs_NtCs6Pl1wmeKPjF_10bingo_core13error_testingNtB4_14ErrorTestSuite16test_suggestions
FNDA:0,_RNvMs_NtCs6Pl1wmeKPjF_10bingo_core13error_testingNtB4_14ErrorTestSuite18test_documentation
FNDA:0,_RNvMs_NtCs6Pl1wmeKPjF_10bingo_core13error_testingNtB4_14ErrorTestSuite19test_categorization
FNDA:0,_RNvMs_NtCs6Pl1wmeKPjF_10bingo_core13error_testingNtB4_14ErrorTestSuite22with_default_scenarios
FNDA:0,_RNvMs_NtCs6Pl1wmeKPjF_10bingo_core13error_testingNtB4_14ErrorTestSuite25calculate_category_scores
FNDA:0,_RNvMs_NtCs6Pl1wmeKPjF_10bingo_core13error_testingNtB4_14ErrorTestSuite31get_improvement_recommendations
FNDA:0,_RNvMs_NtCs6Pl1wmeKPjF_10bingo_core13error_testingNtB4_14ErrorTestSuite3new
FNDA:0,_RNvMs_NtCs6Pl1wmeKPjF_10bingo_core13error_testingNtB4_14ErrorTestSuite9run_tests
FNDA:0,_RNvNtCs6Pl1wmeKPjF_10bingo_core13error_testing15run_error_tests
FNDA:0,_RNvXNtCs6Pl1wmeKPjF_10bingo_core13error_testingNtB2_15ErrorTestConfigNtNtCsd2KPTObkMr_4core7default7Default7default
FNDA:0,_RNvXs0_NtCs6Pl1wmeKPjF_10bingo_core13error_testingNtB5_20ErrorMessageAnalyzerNtNtCsd2KPTObkMr_4core7default7Default7default
FNDA:0,_RNvXs2_NtCs6Pl1wmeKPjF_10bingo_core13error_testingNtB5_24ErrorSuggestionValidatorNtNtCsd2KPTObkMr_4core7default7Default7default
FNDA:0,_RNCNvMs_NtCscF0MZJB4Qop_10bingo_core13error_testingNtB6_14ErrorTestSuite14get_top_issues0B8_
FNDA:0,_RNCNvMs_NtCscF0MZJB4Qop_10bingo_core13error_testingNtB6_14ErrorTestSuite16test_suggestions0B8_
FNDA:0,_RNCNvMs_NtCscF0MZJB4Qop_10bingo_core13error_testingNtB6_14ErrorTestSuite31get_improvement_recommendations0B8_
FNDA:0,_RNCNvMs_NtCscF0MZJB4Qop_10bingo_core13error_testingNtB6_14ErrorTestSuite31get_improvement_recommendationss0_0B8_
FNDA:0,_RNCNvMs_NtCscF0MZJB4Qop_10bingo_core13error_testingNtB6_14ErrorTestSuite31get_improvement_recommendationss1_0B8_
FNDA:0,_RNCNvMs_NtCscF0MZJB4Qop_10bingo_core13error_testingNtB6_14ErrorTestSuite31get_improvement_recommendationss_0B8_
FNDA:0,_RNvMs_NtCscF0MZJB4Qop_10bingo_core13error_testingNtB4_14ErrorTestSuite11get_results
FNDA:0,_RNvMs_NtCscF0MZJB4Qop_10bingo_core13error_testingNtB4_14ErrorTestSuite12run_scenario
FNDA:0,_RNvMs_NtCscF0MZJB4Qop_10bingo_core13error_testingNtB4_14ErrorTestSuite13test_severity
FNDA:0,_RNvMs_NtCscF0MZJB4Qop_10bingo_core13error_testingNtB4_14ErrorTestSuite14get_top_issues
FNDA:0,_RNvMs_NtCscF0MZJB4Qop_10bingo_core13error_testingNtB4_14ErrorTestSuite16generate_summary
FNDA:0,_RNvMs_NtCscF0MZJB4Qop_10bingo_core13error_testingNtB4_14ErrorTestSuite16test_suggestions
FNDA:0,_RNvMs_NtCscF0MZJB4Qop_10bingo_core13error_testingNtB4_14ErrorTestSuite18test_documentation
FNDA:0,_RNvMs_NtCscF0MZJB4Qop_10bingo_core13error_testingNtB4_14ErrorTestSuite19test_categorization
FNDA:0,_RNvMs_NtCscF0MZJB4Qop_10bingo_core13error_testingNtB4_14ErrorTestSuite25calculate_category_scores
FNDA:0,_RNvMs_NtCscF0MZJB4Qop_10bingo_core13error_testingNtB4_14ErrorTestSuite31get_improvement_recommendations
FNDA:0,_RNvMs_NtCscF0MZJB4Qop_10bingo_core13error_testingNtB4_14ErrorTestSuite9run_tests
FNDA:0,_RNvNtCscF0MZJB4Qop_10bingo_core13error_testing15run_error_tests
FNDA:0,_RNvXs0_NtCscF0MZJB4Qop_10bingo_core13error_testingNtB5_20ErrorMessageAnalyzerNtNtCsd2KPTObkMr_4core7default7Default7default
FNDA:0,_RNvXs2_NtCscF0MZJB4Qop_10bingo_core13error_testingNtB5_24ErrorSuggestionValidatorNtNtCsd2KPTObkMr_4core7default7Default7default
FNDA:1,_RNvNtNtCscF0MZJB4Qop_10bingo_core13error_testing5testss_21test_message_analyzer
FNDA:1,_RNvNtNtCscF0MZJB4Qop_10bingo_core13error_testing5testss_22test_default_scenarios
FNDA:1,_RNvNtNtCscF0MZJB4Qop_10bingo_core13error_testing5testss_25test_suggestion_validator
FNDA:1,_RNvNtNtCscF0MZJB4Qop_10bingo_core13error_testing5testss_30test_error_test_suite_creation
FNDA:2,_RNCNvMs1_NtCscF0MZJB4Qop_10bingo_core13error_testingNtB7_20ErrorMessageAnalyzer20add_default_criteria0B9_
FNDA:2,_RNCNvMs1_NtCscF0MZJB4Qop_10bingo_core13error_testingNtB7_20ErrorMessageAnalyzer20add_default_criterias0_0B9_
FNDA:2,_RNCNvMs1_NtCscF0MZJB4Qop_10bingo_core13error_testingNtB7_20ErrorMessageAnalyzer20add_default_criterias1_0B9_
FNDA:2,_RNCNvMs1_NtCscF0MZJB4Qop_10bingo_core13error_testingNtB7_20ErrorMessageAnalyzer20add_default_criterias_0B9_
FNDA:1,_RNCNvMs3_NtCscF0MZJB4Qop_10bingo_core13error_testingNtB7_24ErrorSuggestionValidator17add_default_rules0B9_
FNDA:1,_RNCNvMs3_NtCscF0MZJB4Qop_10bingo_core13error_testingNtB7_24ErrorSuggestionValidator17add_default_ruless0_0B9_
FNDA:1,_RNCNvMs3_NtCscF0MZJB4Qop_10bingo_core13error_testingNtB7_24ErrorSuggestionValidator17add_default_ruless_0B9_
FNDA:2,_RNvMs1_NtCscF0MZJB4Qop_10bingo_core13error_testingNtB5_20ErrorMessageAnalyzer15analyze_message
FNDA:1,_RNvMs1_NtCscF0MZJB4Qop_10bingo_core13error_testingNtB5_20ErrorMessageAnalyzer20add_default_criteria
FNDA:1,_RNvMs1_NtCscF0MZJB4Qop_10bingo_core13error_testingNtB5_20ErrorMessageAnalyzer3new
FNDA:1,_RNvMs3_NtCscF0MZJB4Qop_10bingo_core13error_testingNtB5_24ErrorSuggestionValidator17add_default_rules
FNDA:1,_RNvMs3_NtCscF0MZJB4Qop_10bingo_core13error_testingNtB5_24ErrorSuggestionValidator19validate_suggestion
FNDA:1,_RNvMs3_NtCscF0MZJB4Qop_10bingo_core13error_testingNtB5_24ErrorSuggestionValidator3new
FNDA:8,_RNvMs_NtCscF0MZJB4Qop_10bingo_core13error_testingNtB4_14ErrorTestSuite12add_scenario
FNDA:1,_RNvMs_NtCscF0MZJB4Qop_10bingo_core13error_testingNtB4_14ErrorTestSuite22with_default_scenarios
FNDA:2,_RNvMs_NtCscF0MZJB4Qop_10bingo_core13error_testingNtB4_14ErrorTestSuite3new
FNDA:2,_RNvXNtCscF0MZJB4Qop_10bingo_core13error_testingNtB2_15ErrorTestConfigNtNtCsd2KPTObkMr_4core7default7Default7default
FNF:41
FNH:21
DA:153,2
DA:154,2
DA:155,2
DA:156,2
DA:157,2
DA:158,2
DA:159,2
DA:160,2
DA:161,2
DA:162,2
DA:167,2
DA:168,2
DA:169,2
DA:172,8
DA:173,8
DA:174,8
DA:177,1
DA:179,1
DA:180,1
DA:181,1
DA:182,1
DA:183,1
DA:184,1
DA:185,1
DA:186,1
DA:187,1
DA:188,1
DA:189,1
DA:190,1
DA:191,1
DA:192,1
DA:195,1
DA:196,1
DA:197,1
DA:198,1
DA:199,1
DA:200,1
DA:201,1
DA:202,1
DA:203,1
DA:204,1
DA:205,1
DA:206,1
DA:207,1
DA:208,1
DA:209,1
DA:210,1
DA:211,1
DA:212,1
DA:215,1
DA:216,1
DA:217,1
DA:218,1
DA:219,1
DA:220,1
DA:221,1
DA:222,1
DA:223,1
DA:224,1
DA:225,1
DA:226,1
DA:227,1
DA:228,1
DA:229,1
DA:230,1
DA:231,1
DA:232,1
DA:233,1
DA:236,1
DA:237,1
DA:238,1
DA:239,1
DA:240,1
DA:241,1
DA:242,1
DA:243,1
DA:244,1
DA:245,1
DA:246,1
DA:247,1
DA:248,1
DA:249,1
DA:250,1
DA:251,1
DA:252,1
DA:255,1
DA:256,1
DA:257,1
DA:258,1
DA:259,1
DA:260,1
DA:261,1
DA:262,1
DA:263,1
DA:264,1
DA:265,1
DA:266,1
DA:267,1
DA:268,1
DA:269,1
DA:270,1
DA:271,1
DA:272,1
DA:273,1
DA:276,1
DA:277,1
DA:278,1
DA:279,1
DA:280,1
DA:281,1
DA:282,1
DA:283,1
DA:284,1
DA:285,1
DA:286,1
DA:287,1
DA:288,1
DA:289,1
DA:290,1
DA:291,1
DA:292,1
DA:293,1
DA:294,1
DA:297,1
DA:298,1
DA:299,1
DA:300,1
DA:301,1
DA:302,1
DA:303,1
DA:304,1
DA:305,1
DA:306,1
DA:307,1
DA:308,1
DA:309,1
DA:310,1
DA:313,1
DA:314,1
DA:315,1
DA:316,1
DA:317,1
DA:318,1
DA:319,1
DA:320,1
DA:321,1
DA:322,1
DA:323,1
DA:324,1
DA:325,1
DA:326,1
DA:327,1
DA:328,1
DA:329,1
DA:330,1
DA:331,1
DA:333,1
DA:334,1
DA:337,0
DA:338,0
DA:339,0
DA:340,0
DA:342,0
DA:344,0
DA:345,0
DA:346,0
DA:347,0
DA:348,0
DA:349,0
DA:350,0
DA:351,0
DA:352,0
DA:354,0
DA:355,0
DA:358,0
DA:359,0
DA:360,0
DA:361,0
DA:362,0
DA:363,0
DA:364,0
DA:365,0
DA:366,0
DA:367,0
DA:368,0
DA:371,0
DA:372,0
DA:373,0
DA:374,0
DA:375,0
DA:376,0
DA:377,0
DA:378,0
DA:379,0
DA:381,0
DA:382,0
DA:383,0
DA:384,0
DA:385,0
DA:386,0
DA:387,0
DA:388,0
DA:389,0
DA:392,0
DA:394,0
DA:395,0
DA:396,0
DA:397,0
DA:398,0
DA:399,0
DA:402,0
DA:403,0
DA:404,0
DA:405,0
DA:406,0
DA:407,0
DA:408,0
DA:409,0
DA:411,0
DA:412,0
DA:413,0
DA:414,0
DA:415,0
DA:416,0
DA:417,0
DA:421,0
DA:422,0
DA:423,0
DA:424,0
DA:425,0
DA:427,0
DA:429,0
DA:430,0
DA:431,0
DA:432,0
DA:433,0
DA:434,0
DA:435,0
DA:436,0
DA:439,0
DA:440,0
DA:442,0
DA:445,0
DA:447,0
DA:448,0
DA:449,0
DA:450,0
DA:451,0
DA:452,0
DA:453,0
DA:454,0
DA:455,0
DA:458,0
DA:459,0
DA:460,0
DA:461,0
DA:462,0
DA:463,0
DA:464,0
DA:465,0
DA:466,0
DA:468,0
DA:469,0
DA:472,0
DA:474,0
DA:477,0
DA:478,0
DA:479,0
DA:480,0
DA:481,0
DA:482,0
DA:483,0
DA:484,0
DA:485,0
DA:487,0
DA:488,0
DA:491,0
DA:493,0
DA:496,0
DA:497,0
DA:498,0
DA:499,0
DA:500,0
DA:501,0
DA:502,0
DA:503,0
DA:504,0
DA:505,0
DA:506,0
DA:507,0
DA:509,0
DA:511,0
DA:512,0
DA:513,0
DA:514,0
DA:515,0
DA:516,0
DA:517,0
DA:518,0
DA:520,0
DA:521,0
DA:522,0
DA:523,0
DA:524,0
DA:526,0
DA:527,0
DA:530,0
DA:531,0
DA:532,0
DA:533,0
DA:534,0
DA:535,0
DA:536,0
DA:537,0
DA:538,0
DA:540,0
DA:541,0
DA:544,0
DA:546,0
DA:549,0
DA:550,0
DA:551,0
DA:552,0
DA:554,0
DA:555,0
DA:557,0
DA:560,0
DA:561,0
DA:562,0
DA:564,0
DA:565,0
DA:566,0
DA:567,0
DA:568,0
DA:569,0
DA:570,0
DA:571,0
DA:572,0
DA:573,0
DA:574,0
DA:577,0
DA:578,0
DA:579,0
DA:581,0
DA:582,0
DA:583,0
DA:584,0
DA:585,0
DA:586,0
DA:587,0
DA:589,0
DA:590,0
DA:591,0
DA:592,0
DA:595,0
DA:596,0
DA:599,0
DA:600,0
DA:602,0
DA:603,0
DA:604,0
DA:605,0
DA:608,0
DA:609,0
DA:611,0
DA:612,0
DA:615,0
DA:616,0
DA:618,0
DA:620,0
DA:621,0
DA:622,0
DA:623,0
DA:624,0
DA:626,0
DA:627,0
DA:628,0
DA:629,0
DA:631,0
DA:632,0
DA:633,0
DA:634,0
DA:636,0
DA:637,0
DA:640,0
DA:641,0
DA:642,0
DA:667,0
DA:668,0
DA:669,0
DA:674,1
DA:675,1
DA:677,1
DA:678,1
DA:679,1
DA:682,1
DA:683,1
DA:684,1
DA:686,2
DA:688,2
DA:689,1
DA:690,1
DA:691,2
DA:692,2
DA:694,2
DA:695,1
DA:696,1
DA:697,1
DA:699,0
DA:701,2
DA:704,1
DA:705,1
DA:707,2
DA:709,2
DA:710,1
DA:711,1
DA:712,1
DA:713,1
DA:714,1
DA:716,2
DA:717,2
DA:720,1
DA:721,1
DA:723,2
DA:725,2
DA:726,1
DA:727,1
DA:728,1
DA:730,2
DA:731,2
DA:734,1
DA:735,1
DA:737,2
DA:739,2
DA:740,2
DA:742,2
DA:743,2
DA:744,0
DA:745,0
DA:747,0
DA:749,2
DA:751,1
DA:754,2
DA:755,2
DA:756,2
DA:758,10
DA:759,8
DA:760,8
DA:761,8
DA:762,8
DA:764,2
DA:765,2
DA:767,0
DA:769,2
DA:773,0
DA:774,0
DA:775,0
DA:780,1
DA:781,1
DA:783,1
DA:784,1
DA:785,1
DA:788,1
DA:789,1
DA:790,1
DA:791,1
DA:792,1
DA:794,1
DA:795,1
DA:796,1
DA:798,0
DA:800,1
DA:801,0
DA:802,1
DA:803,0
DA:805,1
DA:808,1
DA:811,1
DA:812,1
DA:813,1
DA:814,1
DA:816,1
DA:817,1
DA:818,1
DA:819,1
DA:821,0
DA:824,1
DA:827,1
DA:828,1
DA:829,1
DA:830,1
DA:832,1
DA:833,1
DA:834,1
DA:835,0
DA:837,1
DA:840,1
DA:842,1
DA:845,1
DA:846,1
DA:847,1
DA:848,1
DA:850,4
DA:851,3
DA:852,3
DA:853,3
DA:854,3
DA:855,2
DA:856,2
DA:859,1
DA:860,1
DA:861,1
DA:863,0
DA:866,1
DA:867,1
DA:871,0
DA:872,0
DA:873,0
DA:874,0
DA:875,0
DA:882,1
DA:883,1
DA:884,1
DA:885,1
DA:886,1
DA:889,1
DA:890,1
DA:891,1
DA:892,1
DA:895,1
DA:896,1
DA:898,1
DA:899,1
DA:901,1
DA:902,1
DA:904,1
DA:905,1
DA:906,1
DA:909,1
DA:910,1
DA:912,1
DA:913,1
DA:914,1
DA:915,1
DA:916,1
DA:917,1
DA:918,1
DA:919,1
DA:920,1
DA:921,1
DA:923,1
DA:924,1
DA:925,1
BRF:0
BRH:0
LF:559
LH:302
end_of_record
SF:/Users/hl/Projects/private/bingo/crates/bingo-core/src/fact_store.rs
FN:1129,_RNCNCNvMNtNtCs6Pl1wmeKPjF_10bingo_core10fact_store11arena_storeNtB6_14ArenaFactStore15compact_indexes00Ba_
FN:961,_RNCNCNvMNtNtCs6Pl1wmeKPjF_10bingo_core10fact_store11arena_storeNtB6_14ArenaFactStore16find_by_criterias0_00Ba_
FN:972,_RNCNCNvMNtNtCs6Pl1wmeKPjF_10bingo_core10fact_store11arena_storeNtB6_14ArenaFactStore16find_by_criterias2_00Ba_
FN:1056,_RNCNvMNtNtCs6Pl1wmeKPjF_10bingo_core10fact_store11arena_storeNtB4_14ArenaFactStore11index_stats0B8_
FN:865,_RNCNvMNtNtCs6Pl1wmeKPjF_10bingo_core10fact_store11arena_storeNtB4_14ArenaFactStore13find_by_field0B8_
FN:873,_RNCNvMNtNtCs6Pl1wmeKPjF_10bingo_core10fact_store11arena_storeNtB4_14ArenaFactStore13find_by_fields0_0B8_
FN:872,_RNCNvMNtNtCs6Pl1wmeKPjF_10bingo_core10fact_store11arena_storeNtB4_14ArenaFactStore13find_by_fields_0B8_
FN:318,_RNCNvMNtNtCs6Pl1wmeKPjF_10bingo_core10fact_store11arena_storeNtB4_14ArenaFactStore14update_indexes0B8_
FN:332,_RNCNvMNtNtCs6Pl1wmeKPjF_10bingo_core10fact_store11arena_storeNtB4_14ArenaFactStore14update_indexess0_0B8_
FN:327,_RNCNvMNtNtCs6Pl1wmeKPjF_10bingo_core10fact_store11arena_storeNtB4_14ArenaFactStore14update_indexess_0B8_
FN:1128,_RNCNvMNtNtCs6Pl1wmeKPjF_10bingo_core10fact_store11arena_storeNtB4_14ArenaFactStore15compact_indexes0B8_
FN:933,_RNCNvMNtNtCs6Pl1wmeKPjF_10bingo_core10fact_store11arena_storeNtB4_14ArenaFactStore16find_by_criteria0B8_
FN:958,_RNCNvMNtNtCs6Pl1wmeKPjF_10bingo_core10fact_store11arena_storeNtB4_14ArenaFactStore16find_by_criterias0_0B8_
FN:968,_RNCNvMNtNtCs6Pl1wmeKPjF_10bingo_core10fact_store11arena_storeNtB4_14ArenaFactStore16find_by_criterias1_0B8_
FN:969,_RNCNvMNtNtCs6Pl1wmeKPjF_10bingo_core10fact_store11arena_storeNtB4_14ArenaFactStore16find_by_criterias2_0B8_
FN:957,_RNCNvMNtNtCs6Pl1wmeKPjF_10bingo_core10fact_store11arena_storeNtB4_14ArenaFactStore16find_by_criterias_0B8_
FN:744,_RNCNvMNtNtCs6Pl1wmeKPjF_10bingo_core10fact_store11arena_storeNtB4_14ArenaFactStore19facts_in_time_range0B8_
FN:1276,_RNCNvMNtNtCs6Pl1wmeKPjF_10bingo_core10fact_store11arena_storeNtB4_14ArenaFactStore19remove_from_indexes0B8_
FN:1281,_RNCNvMNtNtCs6Pl1wmeKPjF_10bingo_core10fact_store11arena_storeNtB4_14ArenaFactStore19remove_from_indexess_0B8_
FN:771,_RNCNvMNtNtCs6Pl1wmeKPjF_10bingo_core10fact_store11arena_storeNtB4_14ArenaFactStore3len0B8_
FN:704,_RNCNvMNtNtCs6Pl1wmeKPjF_10bingo_core10fact_store11arena_storeNtB4_14ArenaFactStore4iter0B8_
FN:241,_RNvMNtNtCs6Pl1wmeKPjF_10bingo_core10fact_store11arena_storeNtB2_14ArenaFactStore10new_shared
FN:625,_RNvMNtNtCs6Pl1wmeKPjF_10bingo_core10fact_store11arena_storeNtB2_14ArenaFactStore11bulk_insert
FN:994,_RNvMNtNtCs6Pl1wmeKPjF_10bingo_core10fact_store11arena_storeNtB2_14ArenaFactStore11cache_stats
FN:1011,_RNvMNtNtCs6Pl1wmeKPjF_10bingo_core10fact_store11arena_storeNtB2_14ArenaFactStore11clear_cache
FN:1254,_RNvMNtNtCs6Pl1wmeKPjF_10bingo_core10fact_store11arena_storeNtB2_14ArenaFactStore11delete_fact
FN:1049,_RNvMNtNtCs6Pl1wmeKPjF_10bingo_core10fact_store11arena_storeNtB2_14ArenaFactStore11index_stats
FN:1192,_RNvMNtNtCs6Pl1wmeKPjF_10bingo_core10fact_store11arena_storeNtB2_14ArenaFactStore11update_fact
FN:860,_RNvMNtNtCs6Pl1wmeKPjF_10bingo_core10fact_store11arena_storeNtB2_14ArenaFactStore13find_by_field
FN:184,_RNvMNtNtCs6Pl1wmeKPjF_10bingo_core10fact_store11arena_storeNtB2_14ArenaFactStore13with_capacity
FN:310,_RNvMNtNtCs6Pl1wmeKPjF_10bingo_core10fact_store11arena_storeNtB2_14ArenaFactStore14update_indexes
FN:1127,_RNvMNtNtCs6Pl1wmeKPjF_10bingo_core10fact_store11arena_storeNtB2_14ArenaFactStore15compact_indexes
FN:579,_RNvMNtNtCs6Pl1wmeKPjF_10bingo_core10fact_store11arena_storeNtB2_14ArenaFactStore15extend_from_vec
FN:553,_RNvMNtNtCs6Pl1wmeKPjF_10bingo_core10fact_store11arena_storeNtB2_14ArenaFactStore15get_field_by_id
FN:920,_RNvMNtNtCs6Pl1wmeKPjF_10bingo_core10fact_store11arena_storeNtB2_14ArenaFactStore16find_by_criteria
FN:518,_RNvMNtNtCs6Pl1wmeKPjF_10bingo_core10fact_store11arena_storeNtB2_14ArenaFactStore18get_by_external_id
FN:739,_RNvMNtNtCs6Pl1wmeKPjF_10bingo_core10fact_store11arena_storeNtB2_14ArenaFactStore19facts_in_time_range
FN:1271,_RNvMNtNtCs6Pl1wmeKPjF_10bingo_core10fact_store11arena_storeNtB2_14ArenaFactStore19remove_from_indexes
FN:214,_RNvMNtNtCs6Pl1wmeKPjF_10bingo_core10fact_store11arena_storeNtB2_14ArenaFactStore19with_large_capacity
FN:266,_RNvMNtNtCs6Pl1wmeKPjF_10bingo_core10fact_store11arena_storeNtB2_14ArenaFactStore20with_capacity_shared
FN:339,_RNvMNtNtCs6Pl1wmeKPjF_10bingo_core10fact_store11arena_storeNtB2_14ArenaFactStore23fact_value_to_index_key
FN:290,_RNvMNtNtCs6Pl1wmeKPjF_10bingo_core10fact_store11arena_storeNtB2_14ArenaFactStore26with_large_capacity_shared
FN:354,_RNvMNtNtCs6Pl1wmeKPjF_10bingo_core10fact_store11arena_storeNtB2_14ArenaFactStore29fact_value_to_index_key_owned
FN:770,_RNvMNtNtCs6Pl1wmeKPjF_10bingo_core10fact_store11arena_storeNtB2_14ArenaFactStore3len
FN:154,_RNvMNtNtCs6Pl1wmeKPjF_10bingo_core10fact_store11arena_storeNtB2_14ArenaFactStore3new
FN:703,_RNvMNtNtCs6Pl1wmeKPjF_10bingo_core10fact_store11arena_storeNtB2_14ArenaFactStore4iter
FN:816,_RNvMNtNtCs6Pl1wmeKPjF_10bingo_core10fact_store11arena_storeNtB2_14ArenaFactStore5clear
FN:403,_RNvMNtNtCs6Pl1wmeKPjF_10bingo_core10fact_store11arena_storeNtB2_14ArenaFactStore6insert
FN:477,_RNvMNtNtCs6Pl1wmeKPjF_10bingo_core10fact_store11arena_storeNtB2_14ArenaFactStore8get_fact
FN:790,_RNvMNtNtCs6Pl1wmeKPjF_10bingo_core10fact_store11arena_storeNtB2_14ArenaFactStore8is_empty
FN:1129,_RNCNCNvMNtNtCscF0MZJB4Qop_10bingo_core10fact_store11arena_storeNtB6_14ArenaFactStore15compact_indexes00Ba_
FN:961,_RNCNCNvMNtNtCscF0MZJB4Qop_10bingo_core10fact_store11arena_storeNtB6_14ArenaFactStore16find_by_criterias0_00Ba_
FN:972,_RNCNCNvMNtNtCscF0MZJB4Qop_10bingo_core10fact_store11arena_storeNtB6_14ArenaFactStore16find_by_criterias2_00Ba_
FN:1056,_RNCNvMNtNtCscF0MZJB4Qop_10bingo_core10fact_store11arena_storeNtB4_14ArenaFactStore11index_stats0B8_
FN:865,_RNCNvMNtNtCscF0MZJB4Qop_10bingo_core10fact_store11arena_storeNtB4_14ArenaFactStore13find_by_field0B8_
FN:873,_RNCNvMNtNtCscF0MZJB4Qop_10bingo_core10fact_store11arena_storeNtB4_14ArenaFactStore13find_by_fields0_0B8_
FN:872,_RNCNvMNtNtCscF0MZJB4Qop_10bingo_core10fact_store11arena_storeNtB4_14ArenaFactStore13find_by_fields_0B8_
FN:318,_RNCNvMNtNtCscF0MZJB4Qop_10bingo_core10fact_store11arena_storeNtB4_14ArenaFactStore14update_indexes0B8_
FN:332,_RNCNvMNtNtCscF0MZJB4Qop_10bingo_core10fact_store11arena_storeNtB4_14ArenaFactStore14update_indexess0_0B8_
FN:327,_RNCNvMNtNtCscF0MZJB4Qop_10bingo_core10fact_store11arena_storeNtB4_14ArenaFactStore14update_indexess_0B8_
FN:1128,_RNCNvMNtNtCscF0MZJB4Qop_10bingo_core10fact_store11arena_storeNtB4_14ArenaFactStore15compact_indexes0B8_
FN:933,_RNCNvMNtNtCscF0MZJB4Qop_10bingo_core10fact_store11arena_storeNtB4_14ArenaFactStore16find_by_criteria0B8_
FN:958,_RNCNvMNtNtCscF0MZJB4Qop_10bingo_core10fact_store11arena_storeNtB4_14ArenaFactStore16find_by_criterias0_0B8_
FN:968,_RNCNvMNtNtCscF0MZJB4Qop_10bingo_core10fact_store11arena_storeNtB4_14ArenaFactStore16find_by_criterias1_0B8_
FN:969,_RNCNvMNtNtCscF0MZJB4Qop_10bingo_core10fact_store11arena_storeNtB4_14ArenaFactStore16find_by_criterias2_0B8_
FN:957,_RNCNvMNtNtCscF0MZJB4Qop_10bingo_core10fact_store11arena_storeNtB4_14ArenaFactStore16find_by_criterias_0B8_
FN:744,_RNCNvMNtNtCscF0MZJB4Qop_10bingo_core10fact_store11arena_storeNtB4_14ArenaFactStore19facts_in_time_range0B8_
FN:1276,_RNCNvMNtNtCscF0MZJB4Qop_10bingo_core10fact_store11arena_storeNtB4_14ArenaFactStore19remove_from_indexes0B8_
FN:1281,_RNCNvMNtNtCscF0MZJB4Qop_10bingo_core10fact_store11arena_storeNtB4_14ArenaFactStore19remove_from_indexess_0B8_
FN:771,_RNCNvMNtNtCscF0MZJB4Qop_10bingo_core10fact_store11arena_storeNtB4_14ArenaFactStore3len0B8_
FN:704,_RNCNvMNtNtCscF0MZJB4Qop_10bingo_core10fact_store11arena_storeNtB4_14ArenaFactStore4iter0B8_
FN:241,_RNvMNtNtCscF0MZJB4Qop_10bingo_core10fact_store11arena_storeNtB2_14ArenaFactStore10new_shared
FN:625,_RNvMNtNtCscF0MZJB4Qop_10bingo_core10fact_store11arena_storeNtB2_14ArenaFactStore11bulk_insert
FN:994,_RNvMNtNtCscF0MZJB4Qop_10bingo_core10fact_store11arena_storeNtB2_14ArenaFactStore11cache_stats
FN:1011,_RNvMNtNtCscF0MZJB4Qop_10bingo_core10fact_store11arena_storeNtB2_14ArenaFactStore11clear_cache
FN:1254,_RNvMNtNtCscF0MZJB4Qop_10bingo_core10fact_store11arena_storeNtB2_14ArenaFactStore11delete_fact
FN:1049,_RNvMNtNtCscF0MZJB4Qop_10bingo_core10fact_store11arena_storeNtB2_14ArenaFactStore11index_stats
FN:1192,_RNvMNtNtCscF0MZJB4Qop_10bingo_core10fact_store11arena_storeNtB2_14ArenaFactStore11update_fact
FN:860,_RNvMNtNtCscF0MZJB4Qop_10bingo_core10fact_store11arena_storeNtB2_14ArenaFactStore13find_by_field
FN:184,_RNvMNtNtCscF0MZJB4Qop_10bingo_core10fact_store11arena_storeNtB2_14ArenaFactStore13with_capacity
FN:310,_RNvMNtNtCscF0MZJB4Qop_10bingo_core10fact_store11arena_storeNtB2_14ArenaFactStore14update_indexes
FN:1127,_RNvMNtNtCscF0MZJB4Qop_10bingo_core10fact_store11arena_storeNtB2_14ArenaFactStore15compact_indexes
FN:579,_RNvMNtNtCscF0MZJB4Qop_10bingo_core10fact_store11arena_storeNtB2_14ArenaFactStore15extend_from_vec
FN:553,_RNvMNtNtCscF0MZJB4Qop_10bingo_core10fact_store11arena_storeNtB2_14ArenaFactStore15get_field_by_id
FN:920,_RNvMNtNtCscF0MZJB4Qop_10bingo_core10fact_store11arena_storeNtB2_14ArenaFactStore16find_by_criteria
FN:518,_RNvMNtNtCscF0MZJB4Qop_10bingo_core10fact_store11arena_storeNtB2_14ArenaFactStore18get_by_external_id
FN:739,_RNvMNtNtCscF0MZJB4Qop_10bingo_core10fact_store11arena_storeNtB2_14ArenaFactStore19facts_in_time_range
FN:1271,_RNvMNtNtCscF0MZJB4Qop_10bingo_core10fact_store11arena_storeNtB2_14ArenaFactStore19remove_from_indexes
FN:214,_RNvMNtNtCscF0MZJB4Qop_10bingo_core10fact_store11arena_storeNtB2_14ArenaFactStore19with_large_capacity
FN:266,_RNvMNtNtCscF0MZJB4Qop_10bingo_core10fact_store11arena_storeNtB2_14ArenaFactStore20with_capacity_shared
FN:339,_RNvMNtNtCscF0MZJB4Qop_10bingo_core10fact_store11arena_storeNtB2_14ArenaFactStore23fact_value_to_index_key
FN:290,_RNvMNtNtCscF0MZJB4Qop_10bingo_core10fact_store11arena_storeNtB2_14ArenaFactStore26with_large_capacity_shared
FN:354,_RNvMNtNtCscF0MZJB4Qop_10bingo_core10fact_store11arena_storeNtB2_14ArenaFactStore29fact_value_to_index_key_owned
FN:770,_RNvMNtNtCscF0MZJB4Qop_10bingo_core10fact_store11arena_storeNtB2_14ArenaFactStore3len
FN:154,_RNvMNtNtCscF0MZJB4Qop_10bingo_core10fact_store11arena_storeNtB2_14ArenaFactStore3new
FN:703,_RNvMNtNtCscF0MZJB4Qop_10bingo_core10fact_store11arena_storeNtB2_14ArenaFactStore4iter
FN:816,_RNvMNtNtCscF0MZJB4Qop_10bingo_core10fact_store11arena_storeNtB2_14ArenaFactStore5clear
FN:403,_RNvMNtNtCscF0MZJB4Qop_10bingo_core10fact_store11arena_storeNtB2_14ArenaFactStore6insert
FN:477,_RNvMNtNtCscF0MZJB4Qop_10bingo_core10fact_store11arena_storeNtB2_14ArenaFactStore8get_fact
FN:790,_RNvMNtNtCscF0MZJB4Qop_10bingo_core10fact_store11arena_storeNtB2_14ArenaFactStore8is_empty
FN:1817,_RNCNvNtNtCscF0MZJB4Qop_10bingo_core10fact_store5testss_18test_thread_safety0B7_
FN:1303,_RNvNtNtCscF0MZJB4Qop_10bingo_core10fact_store5tests16create_test_fact
FN:1318,_RNvNtNtCscF0MZJB4Qop_10bingo_core10fact_store5tests28create_test_fact_with_fields
FN:1312,_RNvNtNtCscF0MZJB4Qop_10bingo_core10fact_store5tests33create_test_fact_with_external_id
FN:1680,_RNvNtNtCscF0MZJB4Qop_10bingo_core10fact_store5testss_14test_iteration
FN:1892,_RNvNtNtCscF0MZJB4Qop_10bingo_core10fact_store5testss_15test_edge_cases
FN:1574,_RNvNtNtCscF0MZJB4Qop_10bingo_core10fact_store5testss_17test_fact_updates
FN:1615,_RNvNtNtCscF0MZJB4Qop_10bingo_core10fact_store5testss_18test_fact_deletion
FN:1812,_RNvNtNtCscF0MZJB4Qop_10bingo_core10fact_store5testss_18test_thread_safety
FN:1666,_RNvNtNtCscF0MZJB4Qop_10bingo_core10fact_store5testss_20test_extend_from_vec
FN:1776,_RNvNtNtCscF0MZJB4Qop_10bingo_core10fact_store5testss_20test_get_field_by_id
FN:1467,_RNvNtNtCscF0MZJB4Qop_10bingo_core10fact_store5testss_21test_find_by_criteria
FN:2055,_RNvNtNtCscF0MZJB4Qop_10bingo_core10fact_store5testss_21test_index_compaction
FN:2012,_RNvNtNtCscF0MZJB4Qop_10bingo_core10fact_store5testss_21test_index_statistics
FN:1533,_RNvNtNtCscF0MZJB4Qop_10bingo_core10fact_store5testss_23test_time_range_queries
FN:1764,_RNvNtNtCscF0MZJB4Qop_10bingo_core10fact_store5testss_24test_cache_functionality
FN:1641,_RNvNtNtCscF0MZJB4Qop_10bingo_core10fact_store5testss_24test_clear_functionality
FN:1384,_RNvNtNtCscF0MZJB4Qop_10bingo_core10fact_store5testss_24test_external_id_mapping
FN:1368,_RNvNtNtCscF0MZJB4Qop_10bingo_core10fact_store5testss_25test_basic_insert_and_get
FN:1926,_RNvNtNtCscF0MZJB4Qop_10bingo_core10fact_store5testss_29test_bulk_insert_optimization
FN:1341,_RNvNtNtCscF0MZJB4Qop_10bingo_core10fact_store5testss_29test_thread_safe_constructors
FN:1405,_RNvNtNtCscF0MZJB4Qop_10bingo_core10fact_store5testss_30test_field_indexing_and_search
FN:1856,_RNvNtNtCscF0MZJB4Qop_10bingo_core10fact_store5testss_30test_large_dataset_performance
FN:1699,_RNvNtNtCscF0MZJB4Qop_10bingo_core10fact_store5testss_31test_different_fact_value_types
FN:1960,_RNvNtNtCscF0MZJB4Qop_10bingo_core10fact_store5testss_31test_optimized_find_by_criteria
FN:1323,_RNvNtNtCscF0MZJB4Qop_10bingo_core10fact_store5testss_34test_arena_fact_store_constructors
FN:1739,_RNvNtNtCscF0MZJB4Qop_10bingo_core10fact_store5testss_41test_id_generation_and_collision_handling
FNDA:0,_RNCNCNvMNtNtCs6Pl1wmeKPjF_10bingo_core10fact_store11arena_storeNtB6_14ArenaFactStore15compact_indexes00Ba_
FNDA:0,_RNCNCNvMNtNtCs6Pl1wmeKPjF_10bingo_core10fact_store11arena_storeNtB6_14ArenaFactStore16find_by_criterias0_00Ba_
FNDA:0,_RNCNCNvMNtNtCs6Pl1wmeKPjF_10bingo_core10fact_store11arena_storeNtB6_14ArenaFactStore16find_by_criterias2_00Ba_
FNDA:0,_RNCNvMNtNtCs6Pl1wmeKPjF_10bingo_core10fact_store11arena_storeNtB4_14ArenaFactStore11index_stats0B8_
FNDA:0,_RNCNvMNtNtCs6Pl1wmeKPjF_10bingo_core10fact_store11arena_storeNtB4_14ArenaFactStore13find_by_field0B8_
FNDA:0,_RNCNvMNtNtCs6Pl1wmeKPjF_10bingo_core10fact_store11arena_storeNtB4_14ArenaFactStore13find_by_fields0_0B8_
FNDA:0,_RNCNvMNtNtCs6Pl1wmeKPjF_10bingo_core10fact_store11arena_storeNtB4_14ArenaFactStore13find_by_fields_0B8_
FNDA:0,_RNCNvMNtNtCs6Pl1wmeKPjF_10bingo_core10fact_store11arena_storeNtB4_14ArenaFactStore14update_indexes0B8_
FNDA:0,_RNCNvMNtNtCs6Pl1wmeKPjF_10bingo_core10fact_store11arena_storeNtB4_14ArenaFactStore14update_indexess0_0B8_
FNDA:0,_RNCNvMNtNtCs6Pl1wmeKPjF_10bingo_core10fact_store11arena_storeNtB4_14ArenaFactStore14update_indexess_0B8_
FNDA:0,_RNCNvMNtNtCs6Pl1wmeKPjF_10bingo_core10fact_store11arena_storeNtB4_14ArenaFactStore15compact_indexes0B8_
FNDA:0,_RNCNvMNtNtCs6Pl1wmeKPjF_10bingo_core10fact_store11arena_storeNtB4_14ArenaFactStore16find_by_criteria0B8_
FNDA:0,_RNCNvMNtNtCs6Pl1wmeKPjF_10bingo_core10fact_store11arena_storeNtB4_14ArenaFactStore16find_by_criterias0_0B8_
FNDA:0,_RNCNvMNtNtCs6Pl1wmeKPjF_10bingo_core10fact_store11arena_storeNtB4_14ArenaFactStore16find_by_criterias1_0B8_
FNDA:0,_RNCNvMNtNtCs6Pl1wmeKPjF_10bingo_core10fact_store11arena_storeNtB4_14ArenaFactStore16find_by_criterias2_0B8_
FNDA:0,_RNCNvMNtNtCs6Pl1wmeKPjF_10bingo_core10fact_store11arena_storeNtB4_14ArenaFactStore16find_by_criterias_0B8_
FNDA:0,_RNCNvMNtNtCs6Pl1wmeKPjF_10bingo_core10fact_store11arena_storeNtB4_14ArenaFactStore19facts_in_time_range0B8_
FNDA:0,_RNCNvMNtNtCs6Pl1wmeKPjF_10bingo_core10fact_store11arena_storeNtB4_14ArenaFactStore19remove_from_indexes0B8_
FNDA:0,_RNCNvMNtNtCs6Pl1wmeKPjF_10bingo_core10fact_store11arena_storeNtB4_14ArenaFactStore19remove_from_indexess_0B8_
FNDA:0,_RNCNvMNtNtCs6Pl1wmeKPjF_10bingo_core10fact_store11arena_storeNtB4_14ArenaFactStore3len0B8_
FNDA:0,_RNCNvMNtNtCs6Pl1wmeKPjF_10bingo_core10fact_store11arena_storeNtB4_14ArenaFactStore4iter0B8_
FNDA:0,_RNvMNtNtCs6Pl1wmeKPjF_10bingo_core10fact_store11arena_storeNtB2_14ArenaFactStore10new_shared
FNDA:0,_RNvMNtNtCs6Pl1wmeKPjF_10bingo_core10fact_store11arena_storeNtB2_14ArenaFactStore11bulk_insert
FNDA:0,_RNvMNtNtCs6Pl1wmeKPjF_10bingo_core10fact_store11arena_storeNtB2_14ArenaFactStore11cache_stats
FNDA:0,_RNvMNtNtCs6Pl1wmeKPjF_10bingo_core10fact_store11arena_storeNtB2_14ArenaFactStore11clear_cache
FNDA:0,_RNvMNtNtCs6Pl1wmeKPjF_10bingo_core10fact_store11arena_storeNtB2_14ArenaFactStore11delete_fact
FNDA:0,_RNvMNtNtCs6Pl1wmeKPjF_10bingo_core10fact_store11arena_storeNtB2_14ArenaFactStore11index_stats
FNDA:0,_RNvMNtNtCs6Pl1wmeKPjF_10bingo_core10fact_store11arena_storeNtB2_14ArenaFactStore11update_fact
FNDA:0,_RNvMNtNtCs6Pl1wmeKPjF_10bingo_core10fact_store11arena_storeNtB2_14ArenaFactStore13find_by_field
FNDA:0,_RNvMNtNtCs6Pl1wmeKPjF_10bingo_core10fact_store11arena_storeNtB2_14ArenaFactStore13with_capacity
FNDA:0,_RNvMNtNtCs6Pl1wmeKPjF_10bingo_core10fact_store11arena_storeNtB2_14ArenaFactStore14update_indexes
FNDA:0,_RNvMNtNtCs6Pl1wmeKPjF_10bingo_core10fact_store11arena_storeNtB2_14ArenaFactStore15compact_indexes
FNDA:0,_RNvMNtNtCs6Pl1wmeKPjF_10bingo_core10fact_store11arena_storeNtB2_14ArenaFactStore15extend_from_vec
FNDA:0,_RNvMNtNtCs6Pl1wmeKPjF_10bingo_core10fact_store11arena_storeNtB2_14ArenaFactStore15get_field_by_id
FNDA:0,_RNvMNtNtCs6Pl1wmeKPjF_10bingo_core10fact_store11arena_storeNtB2_14ArenaFactStore16find_by_criteria
FNDA:0,_RNvMNtNtCs6Pl1wmeKPjF_10bingo_core10fact_store11arena_storeNtB2_14ArenaFactStore18get_by_external_id
FNDA:0,_RNvMNtNtCs6Pl1wmeKPjF_10bingo_core10fact_store11arena_storeNtB2_14ArenaFactStore19facts_in_time_range
FNDA:0,_RNvMNtNtCs6Pl1wmeKPjF_10bingo_core10fact_store11arena_storeNtB2_14ArenaFactStore19remove_from_indexes
FNDA:0,_RNvMNtNtCs6Pl1wmeKPjF_10bingo_core10fact_store11arena_storeNtB2_14ArenaFactStore19with_large_capacity
FNDA:0,_RNvMNtNtCs6Pl1wmeKPjF_10bingo_core10fact_store11arena_storeNtB2_14ArenaFactStore20with_capacity_shared
FNDA:0,_RNvMNtNtCs6Pl1wmeKPjF_10bingo_core10fact_store11arena_storeNtB2_14ArenaFactStore23fact_value_to_index_key
FNDA:0,_RNvMNtNtCs6Pl1wmeKPjF_10bingo_core10fact_store11arena_storeNtB2_14ArenaFactStore26with_large_capacity_shared
FNDA:0,_RNvMNtNtCs6Pl1wmeKPjF_10bingo_core10fact_store11arena_storeNtB2_14ArenaFactStore29fact_value_to_index_key_owned
FNDA:0,_RNvMNtNtCs6Pl1wmeKPjF_10bingo_core10fact_store11arena_storeNtB2_14ArenaFactStore3len
FNDA:0,_RNvMNtNtCs6Pl1wmeKPjF_10bingo_core10fact_store11arena_storeNtB2_14ArenaFactStore3new
FNDA:0,_RNvMNtNtCs6Pl1wmeKPjF_10bingo_core10fact_store11arena_storeNtB2_14ArenaFactStore4iter
FNDA:0,_RNvMNtNtCs6Pl1wmeKPjF_10bingo_core10fact_store11arena_storeNtB2_14ArenaFactStore5clear
FNDA:0,_RNvMNtNtCs6Pl1wmeKPjF_10bingo_core10fact_store11arena_storeNtB2_14ArenaFactStore6insert
FNDA:0,_RNvMNtNtCs6Pl1wmeKPjF_10bingo_core10fact_store11arena_storeNtB2_14ArenaFactStore8get_fact
FNDA:0,_RNvMNtNtCs6Pl1wmeKPjF_10bingo_core10fact_store11arena_storeNtB2_14ArenaFactStore8is_empty
FNDA:7,_RNCNCNvMNtNtCscF0MZJB4Qop_10bingo_core10fact_store11arena_storeNtB6_14ArenaFactStore15compact_indexes00Ba_
FNDA:7,_RNCNCNvMNtNtCscF0MZJB4Qop_10bingo_core10fact_store11arena_storeNtB6_14ArenaFactStore16find_by_criterias0_00Ba_
FNDA:28,_RNCNCNvMNtNtCscF0MZJB4Qop_10bingo_core10fact_store11arena_storeNtB6_14ArenaFactStore16find_by_criterias2_00Ba_
FNDA:19,_RNCNvMNtNtCscF0MZJB4Qop_10bingo_core10fact_store11arena_storeNtB4_14ArenaFactStore11index_stats0B8_
FNDA:25,_RNCNvMNtNtCscF0MZJB4Qop_10bingo_core10fact_store11arena_storeNtB4_14ArenaFactStore13find_by_field0B8_
FNDA:11,_RNCNvMNtNtCscF0MZJB4Qop_10bingo_core10fact_store11arena_storeNtB4_14ArenaFactStore13find_by_fields0_0B8_
FNDA:18,_RNCNvMNtNtCscF0MZJB4Qop_10bingo_core10fact_store11arena_storeNtB4_14ArenaFactStore13find_by_fields_0B8_
FNDA:15315,_RNCNvMNtNtCscF0MZJB4Qop_10bingo_core10fact_store11arena_storeNtB4_14ArenaFactStore14update_indexes0B8_
FNDA:141,_RNCNvMNtNtCscF0MZJB4Qop_10bingo_core10fact_store11arena_storeNtB4_14ArenaFactStore14update_indexess0_0B8_
FNDA:11,_RNCNvMNtNtCscF0MZJB4Qop_10bingo_core10fact_store11arena_storeNtB4_14ArenaFactStore14update_indexess_0B8_
FNDA:1,_RNCNvMNtNtCscF0MZJB4Qop_10bingo_core10fact_store11arena_storeNtB4_14ArenaFactStore15compact_indexes0B8_
FNDA:41,_RNCNvMNtNtCscF0MZJB4Qop_10bingo_core10fact_store11arena_storeNtB4_14ArenaFactStore16find_by_criteria0B8_
FNDA:4,_RNCNvMNtNtCscF0MZJB4Qop_10bingo_core10fact_store11arena_storeNtB4_14ArenaFactStore16find_by_criterias0_0B8_
FNDA:29,_RNCNvMNtNtCscF0MZJB4Qop_10bingo_core10fact_store11arena_storeNtB4_14ArenaFactStore16find_by_criterias1_0B8_
FNDA:26,_RNCNvMNtNtCscF0MZJB4Qop_10bingo_core10fact_store11arena_storeNtB4_14ArenaFactStore16find_by_criterias2_0B8_
FNDA:4,_RNCNvMNtNtCscF0MZJB4Qop_10bingo_core10fact_store11arena_storeNtB4_14ArenaFactStore16find_by_criterias_0B8_
FNDA:1009,_RNCNvMNtNtCscF0MZJB4Qop_10bingo_core10fact_store11arena_storeNtB4_14ArenaFactStore19facts_in_time_range0B8_
FNDA:27,_RNCNvMNtNtCscF0MZJB4Qop_10bingo_core10fact_store11arena_storeNtB4_14ArenaFactStore19remove_from_indexes0B8_
FNDA:3,_RNCNvMNtNtCscF0MZJB4Qop_10bingo_core10fact_store11arena_storeNtB4_14ArenaFactStore19remove_from_indexess_0B8_
FNDA:1292,_RNCNvMNtNtCscF0MZJB4Qop_10bingo_core10fact_store11arena_storeNtB4_14ArenaFactStore3len0B8_
FNDA:2045,_RNCNvMNtNtCscF0MZJB4Qop_10bingo_core10fact_store11arena_storeNtB4_14ArenaFactStore4iter0B8_
FNDA:4,_RNvMNtNtCscF0MZJB4Qop_10bingo_core10fact_store11arena_storeNtB2_14ArenaFactStore10new_shared
FNDA:2,_RNvMNtNtCscF0MZJB4Qop_10bingo_core10fact_store11arena_storeNtB2_14ArenaFactStore11bulk_insert
FNDA:1,_RNvMNtNtCscF0MZJB4Qop_10bingo_core10fact_store11arena_storeNtB2_14ArenaFactStore11cache_stats
FNDA:1,_RNvMNtNtCscF0MZJB4Qop_10bingo_core10fact_store11arena_storeNtB2_14ArenaFactStore11clear_cache
FNDA:5,_RNvMNtNtCscF0MZJB4Qop_10bingo_core10fact_store11arena_storeNtB2_14ArenaFactStore11delete_fact
FNDA:3,_RNvMNtNtCscF0MZJB4Qop_10bingo_core10fact_store11arena_storeNtB2_14ArenaFactStore11index_stats
FNDA:2,_RNvMNtNtCscF0MZJB4Qop_10bingo_core10fact_store11arena_storeNtB2_14ArenaFactStore11update_fact
FNDA:12,_RNvMNtNtCscF0MZJB4Qop_10bingo_core10fact_store11arena_storeNtB2_14ArenaFactStore13find_by_field
FNDA:2,_RNvMNtNtCscF0MZJB4Qop_10bingo_core10fact_store11arena_storeNtB2_14ArenaFactStore13with_capacity
FNDA:1196,_RNvMNtNtCscF0MZJB4Qop_10bingo_core10fact_store11arena_storeNtB2_14ArenaFactStore14update_indexes
FNDA:1,_RNvMNtNtCscF0MZJB4Qop_10bingo_core10fact_store11arena_storeNtB2_14ArenaFactStore15compact_indexes
FNDA:1,_RNvMNtNtCscF0MZJB4Qop_10bingo_core10fact_store11arena_storeNtB2_14ArenaFactStore15extend_from_vec
FNDA:4,_RNvMNtNtCscF0MZJB4Qop_10bingo_core10fact_store11arena_storeNtB2_14ArenaFactStore15get_field_by_id
FNDA:7,_RNvMNtNtCscF0MZJB4Qop_10bingo_core10fact_store11arena_storeNtB2_14ArenaFactStore16find_by_criteria
FNDA:13,_RNvMNtNtCscF0MZJB4Qop_10bingo_core10fact_store11arena_storeNtB2_14ArenaFactStore18get_by_external_id
FNDA:4,_RNvMNtNtCscF0MZJB4Qop_10bingo_core10fact_store11arena_storeNtB2_14ArenaFactStore19facts_in_time_range
FNDA:4,_RNvMNtNtCscF0MZJB4Qop_10bingo_core10fact_store11arena_storeNtB2_14ArenaFactStore19remove_from_indexes
FNDA:3,_RNvMNtNtCscF0MZJB4Qop_10bingo_core10fact_store11arena_storeNtB2_14ArenaFactStore19with_large_capacity
FNDA:1,_RNvMNtNtCscF0MZJB4Qop_10bingo_core10fact_store11arena_storeNtB2_14ArenaFactStore20with_capacity_shared
FNDA:1217,_RNvMNtNtCscF0MZJB4Qop_10bingo_core10fact_store11arena_storeNtB2_14ArenaFactStore23fact_value_to_index_key
FNDA:1,_RNvMNtNtCscF0MZJB4Qop_10bingo_core10fact_store11arena_storeNtB2_14ArenaFactStore26with_large_capacity_shared
FNDA:1202,_RNvMNtNtCscF0MZJB4Qop_10bingo_core10fact_store11arena_storeNtB2_14ArenaFactStore29fact_value_to_index_key_owned
FNDA:30,_RNvMNtNtCscF0MZJB4Qop_10bingo_core10fact_store11arena_storeNtB2_14ArenaFactStore3len
FNDA:34,_RNvMNtNtCscF0MZJB4Qop_10bingo_core10fact_store11arena_storeNtB2_14ArenaFactStore3new
FNDA:10,_RNvMNtNtCscF0MZJB4Qop_10bingo_core10fact_store11arena_storeNtB2_14ArenaFactStore4iter
FNDA:1,_RNvMNtNtCscF0MZJB4Qop_10bingo_core10fact_store11arena_storeNtB2_14ArenaFactStore5clear
FNDA:1092,_RNvMNtNtCscF0MZJB4Qop_10bingo_core10fact_store11arena_storeNtB2_14ArenaFactStore6insert
FNDA:176,_RNvMNtNtCscF0MZJB4Qop_10bingo_core10fact_store11arena_storeNtB2_14ArenaFactStore8get_fact
FNDA:11,_RNvMNtNtCscF0MZJB4Qop_10bingo_core10fact_store11arena_storeNtB2_14ArenaFactStore8is_empty
FNDA:1,_RNCNvNtNtCscF0MZJB4Qop_10bingo_core10fact_store5testss_18test_thread_safety0B7_
FNDA:1191,_RNvNtNtCscF0MZJB4Qop_10bingo_core10fact_store5tests16create_test_fact
FNDA:1,_RNvNtNtCscF0MZJB4Qop_10bingo_core10fact_store5tests28create_test_fact_with_fields
FNDA:28,_RNvNtNtCscF0MZJB4Qop_10bingo_core10fact_store5tests33create_test_fact_with_external_id
FNDA:1,_RNvNtNtCscF0MZJB4Qop_10bingo_core10fact_store5testss_14test_iteration
FNDA:1,_RNvNtNtCscF0MZJB4Qop_10bingo_core10fact_store5testss_15test_edge_cases
FNDA:1,_RNvNtNtCscF0MZJB4Qop_10bingo_core10fact_store5testss_17test_fact_updates
FNDA:1,_RNvNtNtCscF0MZJB4Qop_10bingo_core10fact_store5testss_18test_fact_deletion
FNDA:1,_RNvNtNtCscF0MZJB4Qop_10bingo_core10fact_store5testss_18test_thread_safety
FNDA:1,_RNvNtNtCscF0MZJB4Qop_10bingo_core10fact_store5testss_20test_extend_from_vec
FNDA:1,_RNvNtNtCscF0MZJB4Qop_10bingo_core10fact_store5testss_20test_get_field_by_id
FNDA:1,_RNvNtNtCscF0MZJB4Qop_10bingo_core10fact_store5testss_21test_find_by_criteria
FNDA:1,_RNvNtNtCscF0MZJB4Qop_10bingo_core10fact_store5testss_21test_index_compaction
FNDA:1,_RNvNtNtCscF0MZJB4Qop_10bingo_core10fact_store5testss_21test_index_statistics
FNDA:1,_RNvNtNtCscF0MZJB4Qop_10bingo_core10fact_store5testss_23test_time_range_queries
FNDA:1,_RNvNtNtCscF0MZJB4Qop_10bingo_core10fact_store5testss_24test_cache_functionality
FNDA:1,_RNvNtNtCscF0MZJB4Qop_10bingo_core10fact_store5testss_24test_clear_functionality
FNDA:1,_RNvNtNtCscF0MZJB4Qop_10bingo_core10fact_store5testss_24test_external_id_mapping
FNDA:1,_RNvNtNtCscF0MZJB4Qop_10bingo_core10fact_store5testss_25test_basic_insert_and_get
FNDA:1,_RNvNtNtCscF0MZJB4Qop_10bingo_core10fact_store5testss_29test_bulk_insert_optimization
FNDA:1,_RNvNtNtCscF0MZJB4Qop_10bingo_core10fact_store5testss_29test_thread_safe_constructors
FNDA:1,_RNvNtNtCscF0MZJB4Qop_10bingo_core10fact_store5testss_30test_field_indexing_and_search
FNDA:1,_RNvNtNtCscF0MZJB4Qop_10bingo_core10fact_store5testss_30test_large_dataset_performance
FNDA:1,_RNvNtNtCscF0MZJB4Qop_10bingo_core10fact_store5testss_31test_different_fact_value_types
FNDA:1,_RNvNtNtCscF0MZJB4Qop_10bingo_core10fact_store5testss_31test_optimized_find_by_criteria
FNDA:1,_RNvNtNtCscF0MZJB4Qop_10bingo_core10fact_store5testss_34test_arena_fact_store_constructors
FNDA:1,_RNvNtNtCscF0MZJB4Qop_10bingo_core10fact_store5testss_41test_id_generation_and_collision_handling
FNF:77
FNH:77
DA:154,34
DA:155,34
DA:156,34
DA:157,34
DA:158,34
DA:159,34
DA:160,34
DA:161,34
DA:184,2
DA:185,2
DA:186,2
DA:187,2
DA:188,2
DA:189,2
DA:190,2
DA:191,2
DA:214,3
DA:215,3
DA:216,3
DA:217,3
DA:218,3
DA:219,3
DA:220,3
DA:221,3
DA:241,4
DA:242,4
DA:243,4
DA:266,1
DA:267,1
DA:268,1
DA:290,1
DA:291,1
DA:292,1
DA:310,1196
DA:316,4707
DA:318,15315
DA:320,1199
DA:324,1199
DA:325,1199
DA:326,1199
DA:327,1199
DA:330,1199
DA:331,1199
DA:332,1199
DA:333,1199
DA:334,2312
DA:336,1196
DA:339,1217
DA:340,1217
DA:341,1213
DA:342,1
DA:343,1
DA:344,1
DA:345,0
DA:346,0
DA:347,0
DA:348,0
DA:349,1
DA:351,1217
DA:354,1202
DA:355,1202
DA:356,1202
DA:403,1092
DA:411,1092
DA:413,4
DA:416,1088
DA:421,1092
DA:422,1082
DA:423,1082
DA:426,1092
DA:429,1092
DA:430,32
DA:431,1060
DA:434,1092
DA:440,1092
DA:441,1082
DA:442,1082
DA:443,1082
DA:445,1092
DA:447,1092
DA:448,1092
DA:477,176
DA:478,176
DA:479,176
DA:518,13
DA:519,13
DA:520,5
DA:521,13
DA:553,4
DA:554,4
DA:555,4
DA:579,1
DA:580,1
DA:581,1
DA:625,2
DA:626,2
DA:629,2
DA:630,2
DA:631,2
DA:632,2
DA:635,105
DA:637,103
DA:638,0
DA:640,103
DA:644,103
DA:645,103
DA:646,103
DA:648,103
DA:649,103
DA:652,103
DA:653,0
DA:654,103
DA:658,105
DA:659,103
DA:660,103
DA:663,105
DA:664,103
DA:666,103
DA:667,103
DA:668,103
DA:669,103
DA:672,2
DA:673,2
DA:703,10
DA:704,2045
DA:705,10
DA:739,4
DA:740,4
DA:741,4
DA:742,4
DA:743,4
DA:744,1009
DA:745,4
DA:770,30
DA:771,1292
DA:772,30
DA:790,11
DA:791,11
DA:792,11
DA:816,1
DA:817,1
DA:818,1
DA:819,1
DA:820,1
DA:821,1
DA:860,12
DA:861,12
DA:863,12
DA:864,5
DA:865,25
DA:866,0
DA:867,7
DA:870,7
DA:871,7
DA:872,18
DA:873,11
DA:874,7
DA:875,12
DA:920,7
DA:921,7
DA:922,2
DA:923,5
DA:929,5
DA:932,13
DA:933,41
DA:934,3
DA:935,3
DA:936,3
DA:937,3
DA:938,3
DA:940,3
DA:941,2
DA:942,1
DA:943,1
DA:948,0
DA:950,0
DA:951,5
DA:955,5
DA:956,2
DA:957,4
DA:958,4
DA:959,4
DA:960,4
DA:961,7
DA:962,4
DA:963,2
DA:966,3
DA:967,3
DA:968,29
DA:969,26
DA:970,26
DA:971,26
DA:972,28
DA:973,26
DA:974,3
DA:976,7
DA:994,1
DA:995,1
DA:996,1
DA:1011,1
DA:1013,1
DA:1049,3
DA:1050,3
DA:1051,3
DA:1052,3
DA:1054,7
DA:1055,4
DA:1056,19
DA:1058,4
DA:1059,4
DA:1061,4
DA:1062,4
DA:1064,4
DA:1065,4
DA:1066,4
DA:1067,4
DA:1069,0
DA:1076,3
DA:1077,3
DA:1078,3
DA:1079,3
DA:1080,3
DA:1081,3
DA:1083,0
DA:1086,3
DA:1127,1
DA:1128,1
DA:1129,7
DA:1130,1
DA:1131,1
DA:1134,1
DA:1135,1
DA:1136,1
DA:1137,1
DA:1140,7
DA:1141,7
DA:1142,7
DA:1143,7
DA:1146,1
DA:1192,2
DA:1193,2
DA:1194,2
DA:1195,2
DA:1196,2
DA:1197,2
DA:1198,1
DA:1200,3
DA:1201,2
DA:1202,2
DA:1205,1
DA:1206,1
DA:1207,1
DA:1208,1
DA:1209,0
DA:1210,1
DA:1211,1
DA:1212,2
DA:1254,5
DA:1255,5
DA:1256,4
DA:1258,4
DA:1259,1
DA:1260,3
DA:1263,4
DA:1264,4
DA:1265,0
DA:1266,1
DA:1267,1
DA:1268,5
DA:1271,4
DA:1275,11
DA:1276,27
DA:1277,3
DA:1279,3
DA:1280,3
DA:1281,3
DA:1283,3
DA:1284,3
DA:1285,3
DA:1286,0
DA:1287,0
DA:1288,4
DA:1290,4
DA:1303,1191
DA:1304,1191
DA:1305,1191
DA:1306,1191
DA:1307,1191
DA:1309,1191
DA:1310,1191
DA:1312,28
DA:1313,28
DA:1314,28
DA:1315,28
DA:1316,28
DA:1318,1
DA:1319,1
DA:1320,1
DA:1323,1
DA:1325,1
DA:1326,1
DA:1327,1
DA:1330,1
DA:1331,1
DA:1332,1
DA:1335,1
DA:1336,1
DA:1337,1
DA:1338,1
DA:1341,1
DA:1343,1
DA:1345,1
DA:1346,1
DA:1347,1
DA:1351,1
DA:1353,1
DA:1354,1
DA:1355,1
DA:1359,1
DA:1361,1
DA:1362,1
DA:1363,1
DA:1365,1
DA:1368,1
DA:1369,1
DA:1371,1
DA:1372,1
DA:1374,1
DA:1375,1
DA:1376,1
DA:1378,1
DA:1379,1
DA:1380,1
DA:1381,1
DA:1384,1
DA:1385,1
DA:1387,1
DA:1388,1
DA:1391,1
DA:1392,1
DA:1393,1
DA:1394,1
DA:1395,1
DA:1396,1
DA:1400,1
DA:1401,1
DA:1402,1
DA:1405,1
DA:1406,1
DA:1409,1
DA:1410,1
DA:1411,1
DA:1412,1
DA:1414,1
DA:1415,1
DA:1416,1
DA:1419,1
DA:1420,1
DA:1421,1
DA:1422,1
DA:1424,1
DA:1425,1
DA:1426,1
DA:1429,1
DA:1430,1
DA:1431,1
DA:1432,1
DA:1434,1
DA:1435,1
DA:1436,1
DA:1439,1
DA:1440,1
DA:1441,1
DA:1444,1
DA:1445,1
DA:1447,1
DA:1448,1
DA:1449,1
DA:1452,1
DA:1453,1
DA:1454,1
DA:1455,1
DA:1457,1
DA:1459,1
DA:1460,1
DA:1461,1
DA:1463,1
DA:1464,1
DA:1467,1
DA:1468,1
DA:1470,1
DA:1471,1
DA:1472,1
DA:1473,1
DA:1474,1
DA:1475,1
DA:1476,1
DA:1477,1
DA:1479,1
DA:1481,1
DA:1482,1
DA:1483,1
DA:1484,1
DA:1485,1
DA:1486,1
DA:1487,1
DA:1488,1
DA:1490,1
DA:1492,1
DA:1493,1
DA:1494,1
DA:1495,1
DA:1496,1
DA:1497,1
DA:1498,1
DA:1499,1
DA:1501,1
DA:1503,1
DA:1504,1
DA:1505,1
DA:1508,1
DA:1509,1
DA:1510,1
DA:1513,1
DA:1514,1
DA:1515,1
DA:1516,1
DA:1517,1
DA:1518,1
DA:1520,1
DA:1521,1
DA:1524,1
DA:1525,1
DA:1526,1
DA:1528,1
DA:1529,1
DA:1530,1
DA:1533,1
DA:1534,1
DA:1536,1
DA:1538,1
DA:1539,1
DA:1541,1
DA:1542,1
DA:1544,1
DA:1545,1
DA:1547,1
DA:1548,1
DA:1549,1
DA:1552,1
DA:1553,1
DA:1554,1
DA:1556,1
DA:1559,1
DA:1560,1
DA:1561,1
DA:1563,1
DA:1566,1
DA:1567,1
DA:1568,1
DA:1570,1
DA:1571,1
DA:1574,1
DA:1575,1
DA:1577,1
DA:1578,1
DA:1581,1
DA:1582,1
DA:1583,1
DA:1584,1
DA:1586,1
DA:1587,1
DA:1588,1
DA:1591,1
DA:1592,1
DA:1595,1
DA:1596,1
DA:1597,1
DA:1598,1
DA:1599,1
DA:1600,1
DA:1602,1
DA:1603,1
DA:1604,1
DA:1608,1
DA:1609,1
DA:1610,1
DA:1611,1
DA:1612,1
DA:1615,1
DA:1616,1
DA:1618,1
DA:1619,1
DA:1621,1
DA:1624,1
DA:1625,1
DA:1626,1
DA:1629,1
DA:1630,1
DA:1632,1
DA:1633,1
DA:1636,1
DA:1637,1
DA:1638,1
DA:1641,1
DA:1642,1
DA:1645,6
DA:1646,5
DA:1647,5
DA:1648,5
DA:1650,1
DA:1653,1
DA:1655,1
DA:1656,1
DA:1659,6
DA:1660,5
DA:1661,5
DA:1663,1
DA:1666,1
DA:1667,1
DA:1669,1
DA:1671,1
DA:1673,1
DA:1674,1
DA:1675,1
DA:1676,1
DA:1677,1
DA:1680,1
DA:1681,1
DA:1683,1
DA:1685,4
DA:1686,3
DA:1687,3
DA:1689,1
DA:1690,1
DA:1692,1
DA:1693,1
DA:1694,1
DA:1695,1
DA:1696,1
DA:1699,1
DA:1700,1
DA:1702,1
DA:1703,1
DA:1704,1
DA:1705,1
DA:1707,1
DA:1708,1
DA:1709,1
DA:1710,1
DA:1712,1
DA:1713,1
DA:1714,1
DA:1716,1
DA:1717,1
DA:1720,1
DA:1721,1
DA:1722,1
DA:1724,1
DA:1725,1
DA:1727,1
DA:1728,1
DA:1729,1
DA:1731,1
DA:1732,1
DA:1734,1
DA:1735,1
DA:1736,1
DA:1739,1
DA:1740,1
DA:1743,1
DA:1744,1
DA:1745,1
DA:1748,1
DA:1749,1
DA:1750,1
DA:1753,1
DA:1754,1
DA:1755,1
DA:1758,1
DA:1759,1
DA:1760,1
DA:1761,1
DA:1764,1
DA:1765,1
DA:1768,1
DA:1769,1
DA:1772,1
DA:1773,1
DA:1776,1
DA:1777,1
DA:1779,1
DA:1780,1
DA:1781,1
DA:1782,1
DA:1783,1
DA:1785,1
DA:1787,1
DA:1790,1
DA:1791,1
DA:1792,1
DA:1793,1
DA:1794,1
DA:1798,1
DA:1799,1
DA:1800,1
DA:1803,1
DA:1804,1
DA:1807,1
DA:1808,1
DA:1809,1
DA:1812,1
DA:1813,1
DA:1814,1
DA:1817,1
DA:1818,11
DA:1819,10
DA:1820,10
DA:1821,10
DA:1822,10
DA:1823,10
DA:1827,10
DA:1828,10
DA:1831,1
DA:1834,11
DA:1835,10
DA:1836,10
DA:1837,10
DA:1838,10
DA:1839,10
DA:1842,1
DA:1846,1
DA:1847,1
DA:1849,21
DA:1850,20
DA:1853,1
DA:1856,1
DA:1857,1
DA:1860,1001
DA:1861,1000
DA:1862,1000
DA:1863,1000
DA:1864,1000
DA:1865,1000
DA:1866,1000
DA:1867,1000
DA:1868,1000
DA:1869,1000
DA:1870,1000
DA:1872,1
DA:1875,1
DA:1876,1
DA:1877,1
DA:1880,1
DA:1881,1
DA:1884,1
DA:1885,1
DA:1886,1
DA:1888,1
DA:1889,1
DA:1892,1
DA:1893,1
DA:1896,1
DA:1897,1
DA:1898,1
DA:1899,1
DA:1900,1
DA:1901,1
DA:1902,1
DA:1903,1
DA:1906,1
DA:1907,1
DA:1908,1
DA:1910,1
DA:1911,1
DA:1914,1
DA:1915,1
DA:1916,1
DA:1918,1
DA:1921,1
DA:1922,1
DA:1923,1
DA:1926,1
DA:1927,1
DA:1930,1
DA:1931,101
DA:1932,100
DA:1933,100
DA:1934,100
DA:1935,100
DA:1936,100
DA:1937,100
DA:1938,100
DA:1939,100
DA:1940,100
DA:1941,100
DA:1944,1
DA:1945,1
DA:1946,1
DA:1949,101
DA:1950,100
DA:1954,1
DA:1955,1
DA:1956,1
DA:1957,1
DA:1960,1
DA:1961,1
DA:1964,21
DA:1965,20
DA:1966,20
DA:1967,20
DA:1968,20
DA:1970,20
DA:1971,20
DA:1972,20
DA:1974,20
DA:1975,20
DA:1976,20
DA:1978,20
DA:1982,1
DA:1983,1
DA:1984,1
DA:1985,1
DA:1986,1
DA:1987,1
DA:1988,1
DA:1989,1
DA:1990,1
DA:1992,1
DA:1996,1
DA:1999,1
DA:2000,1
DA:2001,1
DA:2002,1
DA:2003,1
DA:2004,1
DA:2007,1
DA:2008,1
DA:2009,1
DA:2012,1
DA:2013,1
DA:2016,11
DA:2017,10
DA:2018,10
DA:2019,10
DA:2020,10
DA:2022,10
DA:2023,10
DA:2024,10
DA:2026,10
DA:2029,1
DA:2032,1
DA:2036,1
DA:2039,1
DA:2042,1
DA:2043,1
DA:2045,1
DA:2046,1
DA:2047,1
DA:2049,1
DA:2050,1
DA:2051,1
DA:2052,1
DA:2055,1
DA:2056,1
DA:2059,11
DA:2060,10
DA:2061,10
DA:2062,10
DA:2063,10
DA:2064,10
DA:2065,10
DA:2066,10
DA:2069,1
DA:2070,1
DA:2071,1
DA:2074,1
DA:2077,1
DA:2080,1
DA:2081,1
DA:2084,1
DA:2085,1
DA:2086,1
DA:2087,1
BRF:0
BRH:0
LF:806
LH:791
end_of_record
SF:/Users/hl/Projects/private/bingo/crates/bingo-core/src/fast_lookup.rs
FN:266,_RNCNvNtNtCscF0MZJB4Qop_10bingo_core11fast_lookup5testss_21test_batch_operations0B7_
FN:36,_RNvMNtCscF0MZJB4Qop_10bingo_core11fast_lookupNtB2_14FastFactLookup13with_capacity
FN:155,_RNvMNtCscF0MZJB4Qop_10bingo_core11fast_lookupNtB2_14FastFactLookup8fact_ids
FN:178,_RNvMs_NtCscF0MZJB4Qop_10bingo_core11fast_lookupNtB4_15FastLookupStats10efficiency
FN:187,_RNvMs_NtCscF0MZJB4Qop_10bingo_core11fast_lookupNtB4_15FastLookupStats16lookups_per_fact
FN:202,_RNvNtNtCscF0MZJB4Qop_10bingo_core11fast_lookup5tests16create_test_fact
FN:261,_RNvNtNtCscF0MZJB4Qop_10bingo_core11fast_lookup5testss_21test_batch_operations
FN:235,_RNvNtNtCscF0MZJB4Qop_10bingo_core11fast_lookup5testss_22test_cache_performance
FN:285,_RNvNtNtCscF0MZJB4Qop_10bingo_core11fast_lookup5testss_22test_removal_and_clear
FN:307,_RNvNtNtCscF0MZJB4Qop_10bingo_core11fast_lookup5testss_24test_statistics_accuracy
FN:210,_RNvNtNtCscF0MZJB4Qop_10bingo_core11fast_lookup5testss_33test_fast_lookup_basic_operations
FN:142,_RNvMNtCscF0MZJB4Qop_10bingo_core11fast_lookupNtB2_14FastFactLookup15extend_from_vec
FN:60,_RNvMNtCscF0MZJB4Qop_10bingo_core11fast_lookupNtB2_14FastFactLookup3get
FN:110,_RNvMNtCscF0MZJB4Qop_10bingo_core11fast_lookupNtB2_14FastFactLookup3len
FN:25,_RNvMNtCscF0MZJB4Qop_10bingo_core11fast_lookupNtB2_14FastFactLookup3new
FN:101,_RNvMNtCscF0MZJB4Qop_10bingo_core11fast_lookupNtB2_14FastFactLookup5clear
FN:130,_RNvMNtCscF0MZJB4Qop_10bingo_core11fast_lookupNtB2_14FastFactLookup5stats
FN:47,_RNvMNtCscF0MZJB4Qop_10bingo_core11fast_lookupNtB2_14FastFactLookup6insert
FN:95,_RNvMNtCscF0MZJB4Qop_10bingo_core11fast_lookupNtB2_14FastFactLookup6remove
FN:160,_RNvMNtCscF0MZJB4Qop_10bingo_core11fast_lookupNtB2_14FastFactLookup8contains
FN:82,_RNvMNtCscF0MZJB4Qop_10bingo_core11fast_lookupNtB2_14FastFactLookup8get_many
FN:120,_RNvMNtCscF0MZJB4Qop_10bingo_core11fast_lookupNtB2_14FastFactLookup8hit_rate
FN:115,_RNvMNtCscF0MZJB4Qop_10bingo_core11fast_lookupNtB2_14FastFactLookup8is_empty
FNDA:100,_RNCNvNtNtCscF0MZJB4Qop_10bingo_core11fast_lookup5testss_21test_batch_operations0B7_
FNDA:0,_RNvMNtCscF0MZJB4Qop_10bingo_core11fast_lookupNtB2_14FastFactLookup13with_capacity
FNDA:0,_RNvMNtCscF0MZJB4Qop_10bingo_core11fast_lookupNtB2_14FastFactLookup8fact_ids
FNDA:0,_RNvMs_NtCscF0MZJB4Qop_10bingo_core11fast_lookupNtB4_15FastLookupStats10efficiency
FNDA:0,_RNvMs_NtCscF0MZJB4Qop_10bingo_core11fast_lookupNtB4_15FastLookupStats16lookups_per_fact
FNDA:118,_RNvNtNtCscF0MZJB4Qop_10bingo_core11fast_lookup5tests16create_test_fact
FNDA:1,_RNvNtNtCscF0MZJB4Qop_10bingo_core11fast_lookup5testss_21test_batch_operations
FNDA:1,_RNvNtNtCscF0MZJB4Qop_10bingo_core11fast_lookup5testss_22test_cache_performance
FNDA:1,_RNvNtNtCscF0MZJB4Qop_10bingo_core11fast_lookup5testss_22test_removal_and_clear
FNDA:1,_RNvNtNtCscF0MZJB4Qop_10bingo_core11fast_lookup5testss_24test_statistics_accuracy
FNDA:1,_RNvNtNtCscF0MZJB4Qop_10bingo_core11fast_lookup5testss_33test_fast_lookup_basic_operations
FNDA:1,_RNvMNtCscF0MZJB4Qop_10bingo_core11fast_lookupNtB2_14FastFactLookup15extend_from_vec
FNDA:27,_RNvMNtCscF0MZJB4Qop_10bingo_core11fast_lookupNtB2_14FastFactLookup3get
FNDA:2,_RNvMNtCscF0MZJB4Qop_10bingo_core11fast_lookupNtB2_14FastFactLookup3len
FNDA:5,_RNvMNtCscF0MZJB4Qop_10bingo_core11fast_lookupNtB2_14FastFactLookup3new
FNDA:1,_RNvMNtCscF0MZJB4Qop_10bingo_core11fast_lookupNtB2_14FastFactLookup5clear
FNDA:3,_RNvMNtCscF0MZJB4Qop_10bingo_core11fast_lookupNtB2_14FastFactLookup5stats
FNDA:119,_RNvMNtCscF0MZJB4Qop_10bingo_core11fast_lookupNtB2_14FastFactLookup6insert
FNDA:1,_RNvMNtCscF0MZJB4Qop_10bingo_core11fast_lookupNtB2_14FastFactLookup6remove
FNDA:2,_RNvMNtCscF0MZJB4Qop_10bingo_core11fast_lookupNtB2_14FastFactLookup8contains
FNDA:1,_RNvMNtCscF0MZJB4Qop_10bingo_core11fast_lookupNtB2_14FastFactLookup8get_many
FNDA:3,_RNvMNtCscF0MZJB4Qop_10bingo_core11fast_lookupNtB2_14FastFactLookup8hit_rate
FNDA:3,_RNvMNtCscF0MZJB4Qop_10bingo_core11fast_lookupNtB2_14FastFactLookup8is_empty
FNF:23
FNH:19
DA:25,5
DA:26,5
DA:27,5
DA:28,5
DA:29,5
DA:30,5
DA:31,5
DA:32,5
DA:33,5
DA:36,0
DA:37,0
DA:38,0
DA:39,0
DA:40,0
DA:41,0
DA:42,0
DA:43,0
DA:44,0
DA:47,119
DA:48,119
DA:51,119
DA:52,0
DA:53,119
DA:55,119
DA:56,119
DA:60,27
DA:61,27
DA:64,27
DA:65,8
DA:66,8
DA:67,19
DA:70,19
DA:71,17
DA:73,17
DA:74,17
DA:76,2
DA:77,2
DA:79,27
DA:82,1
DA:83,1
DA:85,11
DA:86,10
DA:87,10
DA:88,10
DA:91,1
DA:92,1
DA:95,1
DA:96,1
DA:97,1
DA:98,1
DA:101,1
DA:102,1
DA:103,1
DA:104,1
DA:105,1
DA:106,1
DA:107,1
DA:110,2
DA:111,2
DA:112,2
DA:115,3
DA:116,3
DA:117,3
DA:120,3
DA:121,3
DA:122,3
DA:123,1
DA:125,2
DA:127,3
DA:130,3
DA:131,3
DA:132,3
DA:133,3
DA:134,3
DA:135,3
DA:136,3
DA:137,3
DA:138,3
DA:139,3
DA:142,1
DA:144,1
DA:145,1
DA:146,1
DA:147,1
DA:149,101
DA:150,100
DA:151,100
DA:152,1
DA:155,0
DA:156,0
DA:157,0
DA:160,2
DA:161,2
DA:162,2
DA:178,0
DA:179,0
DA:180,0
DA:182,0
DA:184,0
DA:187,0
DA:188,0
DA:189,0
DA:191,0
DA:193,0
DA:202,118
DA:203,118
DA:204,118
DA:206,118
DA:207,118
DA:210,1
DA:211,1
DA:214,1
DA:215,1
DA:217,1
DA:218,1
DA:220,1
DA:221,1
DA:224,1
DA:225,1
DA:227,1
DA:228,1
DA:231,1
DA:232,1
DA:235,1
DA:236,1
DA:239,11
DA:240,10
DA:241,10
DA:242,10
DA:245,4
DA:246,3
DA:247,3
DA:248,3
DA:249,3
DA:251,1
DA:254,1
DA:255,1
DA:256,1
DA:257,1
DA:258,1
DA:261,1
DA:262,1
DA:265,1
DA:266,100
DA:267,1
DA:270,1
DA:271,1
DA:274,1
DA:275,1
DA:276,1
DA:279,10
DA:280,10
DA:282,1
DA:285,1
DA:286,1
DA:288,1
DA:289,1
DA:291,1
DA:293,1
DA:294,1
DA:295,1
DA:296,1
DA:299,1
DA:300,1
DA:301,1
DA:302,1
DA:303,1
DA:304,1
DA:307,1
DA:308,1
DA:311,6
DA:312,5
DA:313,5
DA:314,5
DA:317,1
DA:318,1
DA:319,1
DA:320,1
DA:321,1
DA:323,1
DA:324,1
DA:325,1
DA:326,1
DA:327,1
DA:328,1
DA:329,1
BRF:0
BRH:0
LF:187
LH:164
end_of_record
SF:/Users/hl/Projects/private/bingo/crates/bingo-core/src/field_indexing.rs
FN:65,_RNCNvMNtCs6Pl1wmeKPjF_10bingo_core14field_indexingNtB4_12FieldIndexer11remove_fact0B6_
FN:108,_RNCNvMNtCs6Pl1wmeKPjF_10bingo_core14field_indexingNtB4_12FieldIndexer16find_by_criteria0B6_
FN:122,_RNCNvMNtCs6Pl1wmeKPjF_10bingo_core14field_indexingNtB4_12FieldIndexer5stats0B6_
FN:127,_RNCNvMNtCs6Pl1wmeKPjF_10bingo_core14field_indexingNtB4_12FieldIndexer5statss0_0B6_
FN:126,_RNCNvMNtCs6Pl1wmeKPjF_10bingo_core14field_indexingNtB4_12FieldIndexer5statss_0B6_
FN:42,_RNvMNtCs6Pl1wmeKPjF_10bingo_core14field_indexingNtB2_12FieldIndexer10index_fact
FN:58,_RNvMNtCs6Pl1wmeKPjF_10bingo_core14field_indexingNtB2_12FieldIndexer11remove_fact
FN:25,_RNvMNtCs6Pl1wmeKPjF_10bingo_core14field_indexingNtB2_12FieldIndexer11with_fields
FN:83,_RNvMNtCs6Pl1wmeKPjF_10bingo_core14field_indexingNtB2_12FieldIndexer13find_by_field
FN:96,_RNvMNtCs6Pl1wmeKPjF_10bingo_core14field_indexingNtB2_12FieldIndexer16find_by_criteria
FN:140,_RNvMNtCs6Pl1wmeKPjF_10bingo_core14field_indexingNtB2_12FieldIndexer18get_indexed_fields
FN:145,_RNvMNtCs6Pl1wmeKPjF_10bingo_core14field_indexingNtB2_12FieldIndexer18set_indexed_fields
FN:156,_RNvMNtCs6Pl1wmeKPjF_10bingo_core14field_indexingNtB2_12FieldIndexer21estimate_memory_usage
FN:30,_RNvMNtCs6Pl1wmeKPjF_10bingo_core14field_indexingNtB2_12FieldIndexer22default_indexed_fields
FN:151,_RNvMNtCs6Pl1wmeKPjF_10bingo_core14field_indexingNtB2_12FieldIndexer23fact_value_to_index_key
FN:20,_RNvMNtCs6Pl1wmeKPjF_10bingo_core14field_indexingNtB2_12FieldIndexer3new
FN:115,_RNvMNtCs6Pl1wmeKPjF_10bingo_core14field_indexingNtB2_12FieldIndexer5clear
FN:120,_RNvMNtCs6Pl1wmeKPjF_10bingo_core14field_indexingNtB2_12FieldIndexer5stats
FN:204,_RNvMs_NtCs6Pl1wmeKPjF_10bingo_core14field_indexingNtB4_15FieldIndexStats16index_efficiency
FN:195,_RNvMs_NtCs6Pl1wmeKPjF_10bingo_core14field_indexingNtB4_15FieldIndexStats19avg_facts_per_entry
FN:186,_RNvMs_NtCs6Pl1wmeKPjF_10bingo_core14field_indexingNtB4_15FieldIndexStats21avg_entries_per_index
FN:140,_RNvMNtCscF0MZJB4Qop_10bingo_core14field_indexingNtB2_12FieldIndexer18get_indexed_fields
FN:145,_RNvMNtCscF0MZJB4Qop_10bingo_core14field_indexingNtB2_12FieldIndexer18set_indexed_fields
FN:115,_RNvMNtCscF0MZJB4Qop_10bingo_core14field_indexingNtB2_12FieldIndexer5clear
FN:204,_RNvMs_NtCscF0MZJB4Qop_10bingo_core14field_indexingNtB4_15FieldIndexStats16index_efficiency
FN:215,_RNvNtNtCscF0MZJB4Qop_10bingo_core14field_indexing5tests16create_test_fact
FN:365,_RNvNtNtCscF0MZJB4Qop_10bingo_core14field_indexing5testss_24test_field_indexer_stats
FN:328,_RNvNtNtCscF0MZJB4Qop_10bingo_core14field_indexing5testss_26test_field_indexer_removal
FN:346,_RNvNtNtCscF0MZJB4Qop_10bingo_core14field_indexing5testss_32test_field_indexer_custom_fields
FN:222,_RNvNtNtCscF0MZJB4Qop_10bingo_core14field_indexing5testss_35test_field_indexer_basic_operations
FN:254,_RNvNtNtCscF0MZJB4Qop_10bingo_core14field_indexing5testss_36test_field_indexer_multiple_criteria
FN:42,_RNvMNtCscF0MZJB4Qop_10bingo_core14field_indexingNtB2_12FieldIndexer10index_fact
FN:58,_RNvMNtCscF0MZJB4Qop_10bingo_core14field_indexingNtB2_12FieldIndexer11remove_fact
FN:25,_RNvMNtCscF0MZJB4Qop_10bingo_core14field_indexingNtB2_12FieldIndexer11with_fields
FN:83,_RNvMNtCscF0MZJB4Qop_10bingo_core14field_indexingNtB2_12FieldIndexer13find_by_field
FN:96,_RNvMNtCscF0MZJB4Qop_10bingo_core14field_indexingNtB2_12FieldIndexer16find_by_criteria
FN:156,_RNvMNtCscF0MZJB4Qop_10bingo_core14field_indexingNtB2_12FieldIndexer21estimate_memory_usage
FN:30,_RNvMNtCscF0MZJB4Qop_10bingo_core14field_indexingNtB2_12FieldIndexer22default_indexed_fields
FN:151,_RNvMNtCscF0MZJB4Qop_10bingo_core14field_indexingNtB2_12FieldIndexer23fact_value_to_index_key
FN:20,_RNvMNtCscF0MZJB4Qop_10bingo_core14field_indexingNtB2_12FieldIndexer3new
FN:120,_RNvMNtCscF0MZJB4Qop_10bingo_core14field_indexingNtB2_12FieldIndexer5stats
FN:195,_RNvMs_NtCscF0MZJB4Qop_10bingo_core14field_indexingNtB4_15FieldIndexStats19avg_facts_per_entry
FN:186,_RNvMs_NtCscF0MZJB4Qop_10bingo_core14field_indexingNtB4_15FieldIndexStats21avg_entries_per_index
FN:65,_RNCNvMNtCscF0MZJB4Qop_10bingo_core14field_indexingNtB4_12FieldIndexer11remove_fact0B6_
FN:108,_RNCNvMNtCscF0MZJB4Qop_10bingo_core14field_indexingNtB4_12FieldIndexer16find_by_criteria0B6_
FN:122,_RNCNvMNtCscF0MZJB4Qop_10bingo_core14field_indexingNtB4_12FieldIndexer5stats0B6_
FN:127,_RNCNvMNtCscF0MZJB4Qop_10bingo_core14field_indexingNtB4_12FieldIndexer5statss0_0B6_
FN:126,_RNCNvMNtCscF0MZJB4Qop_10bingo_core14field_indexingNtB4_12FieldIndexer5statss_0B6_
FNDA:0,_RNCNvMNtCs6Pl1wmeKPjF_10bingo_core14field_indexingNtB4_12FieldIndexer11remove_fact0B6_
FNDA:0,_RNCNvMNtCs6Pl1wmeKPjF_10bingo_core14field_indexingNtB4_12FieldIndexer16find_by_criteria0B6_
FNDA:0,_RNCNvMNtCs6Pl1wmeKPjF_10bingo_core14field_indexingNtB4_12FieldIndexer5stats0B6_
FNDA:0,_RNCNvMNtCs6Pl1wmeKPjF_10bingo_core14field_indexingNtB4_12FieldIndexer5statss0_0B6_
FNDA:0,_RNCNvMNtCs6Pl1wmeKPjF_10bingo_core14field_indexingNtB4_12FieldIndexer5statss_0B6_
FNDA:0,_RNvMNtCs6Pl1wmeKPjF_10bingo_core14field_indexingNtB2_12FieldIndexer10index_fact
FNDA:0,_RNvMNtCs6Pl1wmeKPjF_10bingo_core14field_indexingNtB2_12FieldIndexer11remove_fact
FNDA:0,_RNvMNtCs6Pl1wmeKPjF_10bingo_core14field_indexingNtB2_12FieldIndexer11with_fields
FNDA:0,_RNvMNtCs6Pl1wmeKPjF_10bingo_core14field_indexingNtB2_12FieldIndexer13find_by_field
FNDA:0,_RNvMNtCs6Pl1wmeKPjF_10bingo_core14field_indexingNtB2_12FieldIndexer16find_by_criteria
FNDA:0,_RNvMNtCs6Pl1wmeKPjF_10bingo_core14field_indexingNtB2_12FieldIndexer18get_indexed_fields
FNDA:0,_RNvMNtCs6Pl1wmeKPjF_10bingo_core14field_indexingNtB2_12FieldIndexer18set_indexed_fields
FNDA:0,_RNvMNtCs6Pl1wmeKPjF_10bingo_core14field_indexingNtB2_12FieldIndexer21estimate_memory_usage
FNDA:0,_RNvMNtCs6Pl1wmeKPjF_10bingo_core14field_indexingNtB2_12FieldIndexer22default_indexed_fields
FNDA:0,_RNvMNtCs6Pl1wmeKPjF_10bingo_core14field_indexingNtB2_12FieldIndexer23fact_value_to_index_key
FNDA:0,_RNvMNtCs6Pl1wmeKPjF_10bingo_core14field_indexingNtB2_12FieldIndexer3new
FNDA:0,_RNvMNtCs6Pl1wmeKPjF_10bingo_core14field_indexingNtB2_12FieldIndexer5clear
FNDA:0,_RNvMNtCs6Pl1wmeKPjF_10bingo_core14field_indexingNtB2_12FieldIndexer5stats
FNDA:0,_RNvMs_NtCs6Pl1wmeKPjF_10bingo_core14field_indexingNtB4_15FieldIndexStats16index_efficiency
FNDA:0,_RNvMs_NtCs6Pl1wmeKPjF_10bingo_core14field_indexingNtB4_15FieldIndexStats19avg_facts_per_entry
FNDA:0,_RNvMs_NtCs6Pl1wmeKPjF_10bingo_core14field_indexingNtB4_15FieldIndexStats21avg_entries_per_index
FNDA:0,_RNvMNtCscF0MZJB4Qop_10bingo_core14field_indexingNtB2_12FieldIndexer18get_indexed_fields
FNDA:0,_RNvMNtCscF0MZJB4Qop_10bingo_core14field_indexingNtB2_12FieldIndexer18set_indexed_fields
FNDA:0,_RNvMNtCscF0MZJB4Qop_10bingo_core14field_indexingNtB2_12FieldIndexer5clear
FNDA:0,_RNvMs_NtCscF0MZJB4Qop_10bingo_core14field_indexingNtB4_15FieldIndexStats16index_efficiency
FNDA:16,_RNvNtNtCscF0MZJB4Qop_10bingo_core14field_indexing5tests16create_test_fact
FNDA:1,_RNvNtNtCscF0MZJB4Qop_10bingo_core14field_indexing5testss_24test_field_indexer_stats
FNDA:1,_RNvNtNtCscF0MZJB4Qop_10bingo_core14field_indexing5testss_26test_field_indexer_removal
FNDA:1,_RNvNtNtCscF0MZJB4Qop_10bingo_core14field_indexing5testss_32test_field_indexer_custom_fields
FNDA:1,_RNvNtNtCscF0MZJB4Qop_10bingo_core14field_indexing5testss_35test_field_indexer_basic_operations
FNDA:1,_RNvNtNtCscF0MZJB4Qop_10bingo_core14field_indexing5testss_36test_field_indexer_multiple_criteria
FNDA:19,_RNvMNtCscF0MZJB4Qop_10bingo_core14field_indexingNtB2_12FieldIndexer10index_fact
FNDA:1,_RNvMNtCscF0MZJB4Qop_10bingo_core14field_indexingNtB2_12FieldIndexer11remove_fact
FNDA:1,_RNvMNtCscF0MZJB4Qop_10bingo_core14field_indexingNtB2_12FieldIndexer11with_fields
FNDA:9,_RNvMNtCscF0MZJB4Qop_10bingo_core14field_indexingNtB2_12FieldIndexer13find_by_field
FNDA:1,_RNvMNtCscF0MZJB4Qop_10bingo_core14field_indexingNtB2_12FieldIndexer16find_by_criteria
FNDA:1,_RNvMNtCscF0MZJB4Qop_10bingo_core14field_indexingNtB2_12FieldIndexer21estimate_memory_usage
FNDA:4,_RNvMNtCscF0MZJB4Qop_10bingo_core14field_indexingNtB2_12FieldIndexer22default_indexed_fields
FNDA:31,_RNvMNtCscF0MZJB4Qop_10bingo_core14field_indexingNtB2_12FieldIndexer23fact_value_to_index_key
FNDA:4,_RNvMNtCscF0MZJB4Qop_10bingo_core14field_indexingNtB2_12FieldIndexer3new
FNDA:1,_RNvMNtCscF0MZJB4Qop_10bingo_core14field_indexingNtB2_12FieldIndexer5stats
FNDA:1,_RNvMs_NtCscF0MZJB4Qop_10bingo_core14field_indexingNtB4_15FieldIndexStats19avg_facts_per_entry
FNDA:1,_RNvMs_NtCscF0MZJB4Qop_10bingo_core14field_indexingNtB4_15FieldIndexStats21avg_entries_per_index
FNDA:1,_RNCNvMNtCscF0MZJB4Qop_10bingo_core14field_indexingNtB4_12FieldIndexer11remove_fact0B6_
FNDA:2,_RNCNvMNtCscF0MZJB4Qop_10bingo_core14field_indexingNtB4_12FieldIndexer16find_by_criteria0B6_
FNDA:1,_RNCNvMNtCscF0MZJB4Qop_10bingo_core14field_indexingNtB4_12FieldIndexer5stats0B6_
FNDA:3,_RNCNvMNtCscF0MZJB4Qop_10bingo_core14field_indexingNtB4_12FieldIndexer5statss0_0B6_
FNDA:1,_RNCNvMNtCscF0MZJB4Qop_10bingo_core14field_indexingNtB4_12FieldIndexer5statss_0B6_
FNF:27
FNH:23
DA:20,4
DA:21,4
DA:22,4
DA:25,1
DA:26,1
DA:27,1
DA:30,4
DA:31,4
DA:32,4
DA:33,4
DA:34,4
DA:35,4
DA:36,4
DA:37,4
DA:39,4
DA:42,19
DA:43,41
DA:44,22
DA:45,21
DA:46,21
DA:47,21
DA:48,21
DA:49,21
DA:50,21
DA:51,21
DA:52,21
DA:53,21
DA:55,19
DA:58,1
DA:59,2
DA:60,1
DA:61,1
DA:63,1
DA:64,1
DA:65,1
DA:68,1
DA:69,1
DA:70,1
DA:71,0
DA:74,1
DA:75,1
DA:76,1
DA:77,0
DA:78,0
DA:80,1
DA:83,9
DA:84,9
DA:86,9
DA:87,6
DA:88,6
DA:89,0
DA:90,3
DA:92,3
DA:93,9
DA:96,1
DA:97,1
DA:98,0
DA:99,1
DA:102,1
DA:103,1
DA:106,1
DA:107,1
DA:108,2
DA:111,1
DA:112,1
DA:115,0
DA:116,0
DA:117,0
DA:120,1
DA:121,1
DA:122,1
DA:123,1
DA:124,1
DA:125,1
DA:126,1
DA:127,3
DA:128,1
DA:130,1
DA:131,1
DA:132,1
DA:133,1
DA:134,1
DA:135,1
DA:136,1
DA:137,1
DA:140,0
DA:141,0
DA:142,0
DA:145,0
DA:146,0
DA:147,0
DA:148,0
DA:151,31
DA:152,31
DA:153,31
DA:156,1
DA:157,1
DA:159,2
DA:160,1
DA:161,1
DA:163,4
DA:164,3
DA:165,3
DA:166,3
DA:167,3
DA:170,1
DA:171,1
DA:186,1
DA:187,1
DA:188,0
DA:190,1
DA:192,1
DA:195,1
DA:196,1
DA:197,0
DA:199,1
DA:201,1
DA:204,0
DA:205,0
DA:206,0
DA:215,16
DA:216,16
DA:217,16
DA:218,16
DA:219,16
DA:222,1
DA:223,1
DA:226,1
DA:227,1
DA:228,1
DA:231,1
DA:232,1
DA:233,1
DA:236,1
DA:237,1
DA:238,1
DA:239,1
DA:240,1
DA:242,1
DA:243,1
DA:244,1
DA:245,1
DA:248,1
DA:249,1
DA:250,1
DA:251,1
DA:254,1
DA:255,1
DA:258,1
DA:259,1
DA:260,1
DA:261,1
DA:263,1
DA:264,1
DA:265,1
DA:267,1
DA:268,1
DA:269,1
DA:270,1
DA:271,1
DA:272,1
DA:274,1
DA:275,1
DA:276,1
DA:277,1
DA:279,1
DA:280,1
DA:281,1
DA:283,1
DA:284,1
DA:285,1
DA:286,1
DA:287,1
DA:288,1
DA:290,1
DA:291,1
DA:292,1
DA:293,1
DA:295,1
DA:296,1
DA:297,1
DA:299,1
DA:300,1
DA:301,1
DA:302,1
DA:303,1
DA:304,1
DA:306,1
DA:307,1
DA:308,1
DA:311,1
DA:312,1
DA:313,1
DA:314,1
DA:315,1
DA:316,1
DA:317,1
DA:318,1
DA:319,1
DA:322,1
DA:323,1
DA:324,1
DA:325,1
DA:328,1
DA:329,1
DA:331,1
DA:334,1
DA:335,1
DA:336,1
DA:337,1
DA:339,1
DA:340,1
DA:341,1
DA:342,1
DA:343,1
DA:346,1
DA:347,1
DA:348,1
DA:350,1
DA:351,1
DA:353,1
DA:354,1
DA:355,1
DA:358,1
DA:359,1
DA:360,1
DA:361,1
DA:362,1
DA:365,1
DA:366,1
DA:369,11
DA:370,10
DA:371,10
DA:372,10
DA:373,10
DA:375,1
DA:376,1
DA:377,1
DA:378,1
DA:379,1
DA:380,1
DA:383,1
DA:384,1
DA:385,1
BRF:0
BRH:0
LF:249
LH:229
end_of_record
SF:/Users/hl/Projects/private/bingo/crates/bingo-core/src/lazy_aggregation.rs
FN:238,_RNCNvMNtCs6Pl1wmeKPjF_10bingo_core16lazy_aggregationNtB4_21LazyAggregationResult19get_candidate_factss0_0B6_
FN:329,_RNCNvMNtCs6Pl1wmeKPjF_10bingo_core16lazy_aggregationNtB4_21LazyAggregationResult25compute_aggregation_value0B6_
FN:334,_RNCNvMNtCs6Pl1wmeKPjF_10bingo_core16lazy_aggregationNtB4_21LazyAggregationResult25compute_aggregation_values_0B6_
FN:412,_RNvMNtCs6Pl1wmeKPjF_10bingo_core16lazy_aggregationNtB2_21LazyAggregationResult14cache_hit_rate
FN:402,_RNvMNtCs6Pl1wmeKPjF_10bingo_core16lazy_aggregationNtB2_21LazyAggregationResult16invalidate_cache
FN:256,_RNvMNtCs6Pl1wmeKPjF_10bingo_core16lazy_aggregationNtB2_21LazyAggregationResult18fact_matches_group
FN:268,_RNvMNtCs6Pl1wmeKPjF_10bingo_core16lazy_aggregationNtB2_21LazyAggregationResult19compute_aggregation
FN:211,_RNvMNtCs6Pl1wmeKPjF_10bingo_core16lazy_aggregationNtB2_21LazyAggregationResult19get_candidate_facts
FN:87,_RNvMNtCs6Pl1wmeKPjF_10bingo_core16lazy_aggregationNtB2_21LazyAggregationResult20evaluate_having_lazy
FN:423,_RNvMNtCs6Pl1wmeKPjF_10bingo_core16lazy_aggregationNtB2_21LazyAggregationResult22early_termination_rate
FN:171,_RNvMNtCs6Pl1wmeKPjF_10bingo_core16lazy_aggregationNtB2_21LazyAggregationResult22has_any_matching_facts
FN:187,_RNvMNtCs6Pl1wmeKPjF_10bingo_core16lazy_aggregationNtB2_21LazyAggregationResult23has_any_positive_values
FN:118,_RNvMNtCs6Pl1wmeKPjF_10bingo_core16lazy_aggregationNtB2_21LazyAggregationResult24try_short_circuit_having
FN:311,_RNvMNtCs6Pl1wmeKPjF_10bingo_core16lazy_aggregationNtB2_21LazyAggregationResult25compute_aggregation_value
FN:352,_RNvMNtCs6Pl1wmeKPjF_10bingo_core16lazy_aggregationNtB2_21LazyAggregationResult26evaluate_condition_on_fact
FN:129,_RNvMNtCs6Pl1wmeKPjF_10bingo_core16lazy_aggregationNtB2_21LazyAggregationResult34try_short_circuit_simple_condition
FN:51,_RNvMNtCs6Pl1wmeKPjF_10bingo_core16lazy_aggregationNtB2_21LazyAggregationResult3new
FN:397,_RNvMNtCs6Pl1wmeKPjF_10bingo_core16lazy_aggregationNtB2_21LazyAggregationResult9get_stats
FN:68,_RNvMNtCs6Pl1wmeKPjF_10bingo_core16lazy_aggregationNtB2_21LazyAggregationResult9get_value
FN:407,_RNvMNtCs6Pl1wmeKPjF_10bingo_core16lazy_aggregationNtB2_21LazyAggregationResult9is_cached
FN:495,_RNvMs_NtCs6Pl1wmeKPjF_10bingo_core16lazy_aggregationNtB4_22LazyAggregationManager15get_aggregation
FN:502,_RNvMs_NtCs6Pl1wmeKPjF_10bingo_core16lazy_aggregationNtB4_22LazyAggregationManager21invalidate_all_caches
FN:519,_RNvMs_NtCs6Pl1wmeKPjF_10bingo_core16lazy_aggregationNtB4_22LazyAggregationManager24generate_aggregation_key
FN:466,_RNvMs_NtCs6Pl1wmeKPjF_10bingo_core16lazy_aggregationNtB4_22LazyAggregationManager25get_or_create_aggregation
FN:512,_RNvMs_NtCs6Pl1wmeKPjF_10bingo_core16lazy_aggregationNtB4_22LazyAggregationManager29cleanup_inactive_aggregations
FN:457,_RNvMs_NtCs6Pl1wmeKPjF_10bingo_core16lazy_aggregationNtB4_22LazyAggregationManager3new
FN:543,_RNvMs_NtCs6Pl1wmeKPjF_10bingo_core16lazy_aggregationNtB4_22LazyAggregationManager9get_stats
FN:549,_RNvXs0_NtCs6Pl1wmeKPjF_10bingo_core16lazy_aggregationNtB5_21LazyAggregationResultNtNtCsd2KPTObkMr_4core5clone5Clone5clone
FN:412,_RNvMNtCscF0MZJB4Qop_10bingo_core16lazy_aggregationNtB2_21LazyAggregationResult14cache_hit_rate
FN:402,_RNvMNtCscF0MZJB4Qop_10bingo_core16lazy_aggregationNtB2_21LazyAggregationResult16invalidate_cache
FN:87,_RNvMNtCscF0MZJB4Qop_10bingo_core16lazy_aggregationNtB2_21LazyAggregationResult20evaluate_having_lazy
FN:423,_RNvMNtCscF0MZJB4Qop_10bingo_core16lazy_aggregationNtB2_21LazyAggregationResult22early_termination_rate
FN:187,_RNvMNtCscF0MZJB4Qop_10bingo_core16lazy_aggregationNtB2_21LazyAggregationResult23has_any_positive_values
FN:118,_RNvMNtCscF0MZJB4Qop_10bingo_core16lazy_aggregationNtB2_21LazyAggregationResult24try_short_circuit_having
FN:352,_RNvMNtCscF0MZJB4Qop_10bingo_core16lazy_aggregationNtB2_21LazyAggregationResult26evaluate_condition_on_fact
FN:129,_RNvMNtCscF0MZJB4Qop_10bingo_core16lazy_aggregationNtB2_21LazyAggregationResult34try_short_circuit_simple_condition
FN:407,_RNvMNtCscF0MZJB4Qop_10bingo_core16lazy_aggregationNtB2_21LazyAggregationResult9is_cached
FN:495,_RNvMs_NtCscF0MZJB4Qop_10bingo_core16lazy_aggregationNtB4_22LazyAggregationManager15get_aggregation
FN:502,_RNvMs_NtCscF0MZJB4Qop_10bingo_core16lazy_aggregationNtB4_22LazyAggregationManager21invalidate_all_caches
FN:512,_RNvMs_NtCscF0MZJB4Qop_10bingo_core16lazy_aggregationNtB4_22LazyAggregationManager29cleanup_inactive_aggregations
FN:549,_RNvXs0_NtCscF0MZJB4Qop_10bingo_core16lazy_aggregationNtB5_21LazyAggregationResultNtNtCsd2KPTObkMr_4core5clone5Clone5clone
FN:256,_RNvMNtCscF0MZJB4Qop_10bingo_core16lazy_aggregationNtB2_21LazyAggregationResult18fact_matches_group
FN:268,_RNvMNtCscF0MZJB4Qop_10bingo_core16lazy_aggregationNtB2_21LazyAggregationResult19compute_aggregation
FN:211,_RNvMNtCscF0MZJB4Qop_10bingo_core16lazy_aggregationNtB2_21LazyAggregationResult19get_candidate_facts
FN:171,_RNvMNtCscF0MZJB4Qop_10bingo_core16lazy_aggregationNtB2_21LazyAggregationResult22has_any_matching_facts
FN:311,_RNvMNtCscF0MZJB4Qop_10bingo_core16lazy_aggregationNtB2_21LazyAggregationResult25compute_aggregation_value
FN:51,_RNvMNtCscF0MZJB4Qop_10bingo_core16lazy_aggregationNtB2_21LazyAggregationResult3new
FN:397,_RNvMNtCscF0MZJB4Qop_10bingo_core16lazy_aggregationNtB2_21LazyAggregationResult9get_stats
FN:68,_RNvMNtCscF0MZJB4Qop_10bingo_core16lazy_aggregationNtB2_21LazyAggregationResult9get_value
FN:519,_RNvMs_NtCscF0MZJB4Qop_10bingo_core16lazy_aggregationNtB4_22LazyAggregationManager24generate_aggregation_key
FN:466,_RNvMs_NtCscF0MZJB4Qop_10bingo_core16lazy_aggregationNtB4_22LazyAggregationManager25get_or_create_aggregation
FN:457,_RNvMs_NtCscF0MZJB4Qop_10bingo_core16lazy_aggregationNtB4_22LazyAggregationManager3new
FN:543,_RNvMs_NtCscF0MZJB4Qop_10bingo_core16lazy_aggregationNtB4_22LazyAggregationManager9get_stats
FN:238,_RNCNvMNtCscF0MZJB4Qop_10bingo_core16lazy_aggregationNtB4_21LazyAggregationResult19get_candidate_factss0_0B6_
FN:329,_RNCNvMNtCscF0MZJB4Qop_10bingo_core16lazy_aggregationNtB4_21LazyAggregationResult25compute_aggregation_value0B6_
FN:334,_RNCNvMNtCscF0MZJB4Qop_10bingo_core16lazy_aggregationNtB4_21LazyAggregationResult25compute_aggregation_values_0B6_
FN:570,_RNvNtNtCscF0MZJB4Qop_10bingo_core16lazy_aggregation5tests16create_test_fact
FN:583,_RNvNtNtCscF0MZJB4Qop_10bingo_core16lazy_aggregation5tests28create_test_aggregation_spec
FN:649,_RNvNtNtCscF0MZJB4Qop_10bingo_core16lazy_aggregation5testss_28test_early_termination_count
FN:595,_RNvNtNtCscF0MZJB4Qop_10bingo_core16lazy_aggregation5testss_29test_lazy_aggregation_caching
FN:622,_RNvNtNtCscF0MZJB4Qop_10bingo_core16lazy_aggregation5testss_29test_lazy_aggregation_manager
FNDA:0,_RNCNvMNtCs6Pl1wmeKPjF_10bingo_core16lazy_aggregationNtB4_21LazyAggregationResult19get_candidate_factss0_0B6_
FNDA:0,_RNCNvMNtCs6Pl1wmeKPjF_10bingo_core16lazy_aggregationNtB4_21LazyAggregationResult25compute_aggregation_value0B6_
FNDA:0,_RNCNvMNtCs6Pl1wmeKPjF_10bingo_core16lazy_aggregationNtB4_21LazyAggregationResult25compute_aggregation_values_0B6_
FNDA:0,_RNvMNtCs6Pl1wmeKPjF_10bingo_core16lazy_aggregationNtB2_21LazyAggregationResult14cache_hit_rate
FNDA:0,_RNvMNtCs6Pl1wmeKPjF_10bingo_core16lazy_aggregationNtB2_21LazyAggregationResult16invalidate_cache
FNDA:0,_RNvMNtCs6Pl1wmeKPjF_10bingo_core16lazy_aggregationNtB2_21LazyAggregationResult18fact_matches_group
FNDA:0,_RNvMNtCs6Pl1wmeKPjF_10bingo_core16lazy_aggregationNtB2_21LazyAggregationResult19compute_aggregation
FNDA:0,_RNvMNtCs6Pl1wmeKPjF_10bingo_core16lazy_aggregationNtB2_21LazyAggregationResult19get_candidate_facts
FNDA:0,_RNvMNtCs6Pl1wmeKPjF_10bingo_core16lazy_aggregationNtB2_21LazyAggregationResult20evaluate_having_lazy
FNDA:0,_RNvMNtCs6Pl1wmeKPjF_10bingo_core16lazy_aggregationNtB2_21LazyAggregationResult22early_termination_rate
FNDA:0,_RNvMNtCs6Pl1wmeKPjF_10bingo_core16lazy_aggregationNtB2_21LazyAggregationResult22has_any_matching_facts
FNDA:0,_RNvMNtCs6Pl1wmeKPjF_10bingo_core16lazy_aggregationNtB2_21LazyAggregationResult23has_any_positive_values
FNDA:0,_RNvMNtCs6Pl1wmeKPjF_10bingo_core16lazy_aggregationNtB2_21LazyAggregationResult24try_short_circuit_having
FNDA:0,_RNvMNtCs6Pl1wmeKPjF_10bingo_core16lazy_aggregationNtB2_21LazyAggregationResult25compute_aggregation_value
FNDA:0,_RNvMNtCs6Pl1wmeKPjF_10bingo_core16lazy_aggregationNtB2_21LazyAggregationResult26evaluate_condition_on_fact
FNDA:0,_RNvMNtCs6Pl1wmeKPjF_10bingo_core16lazy_aggregationNtB2_21LazyAggregationResult34try_short_circuit_simple_condition
FNDA:0,_RNvMNtCs6Pl1wmeKPjF_10bingo_core16lazy_aggregationNtB2_21LazyAggregationResult3new
FNDA:0,_RNvMNtCs6Pl1wmeKPjF_10bingo_core16lazy_aggregationNtB2_21LazyAggregationResult9get_stats
FNDA:0,_RNvMNtCs6Pl1wmeKPjF_10bingo_core16lazy_aggregationNtB2_21LazyAggregationResult9get_value
FNDA:0,_RNvMNtCs6Pl1wmeKPjF_10bingo_core16lazy_aggregationNtB2_21LazyAggregationResult9is_cached
FNDA:0,_RNvMs_NtCs6Pl1wmeKPjF_10bingo_core16lazy_aggregationNtB4_22LazyAggregationManager15get_aggregation
FNDA:0,_RNvMs_NtCs6Pl1wmeKPjF_10bingo_core16lazy_aggregationNtB4_22LazyAggregationManager21invalidate_all_caches
FNDA:0,_RNvMs_NtCs6Pl1wmeKPjF_10bingo_core16lazy_aggregationNtB4_22LazyAggregationManager24generate_aggregation_key
FNDA:0,_RNvMs_NtCs6Pl1wmeKPjF_10bingo_core16lazy_aggregationNtB4_22LazyAggregationManager25get_or_create_aggregation
FNDA:0,_RNvMs_NtCs6Pl1wmeKPjF_10bingo_core16lazy_aggregationNtB4_22LazyAggregationManager29cleanup_inactive_aggregations
FNDA:0,_RNvMs_NtCs6Pl1wmeKPjF_10bingo_core16lazy_aggregationNtB4_22LazyAggregationManager3new
FNDA:0,_RNvMs_NtCs6Pl1wmeKPjF_10bingo_core16lazy_aggregationNtB4_22LazyAggregationManager9get_stats
FNDA:0,_RNvXs0_NtCs6Pl1wmeKPjF_10bingo_core16lazy_aggregationNtB5_21LazyAggregationResultNtNtCsd2KPTObkMr_4core5clone5Clone5clone
FNDA:0,_RNvMNtCscF0MZJB4Qop_10bingo_core16lazy_aggregationNtB2_21LazyAggregationResult14cache_hit_rate
FNDA:0,_RNvMNtCscF0MZJB4Qop_10bingo_core16lazy_aggregationNtB2_21LazyAggregationResult16invalidate_cache
FNDA:0,_RNvMNtCscF0MZJB4Qop_10bingo_core16lazy_aggregationNtB2_21LazyAggregationResult20evaluate_having_lazy
FNDA:0,_RNvMNtCscF0MZJB4Qop_10bingo_core16lazy_aggregationNtB2_21LazyAggregationResult22early_termination_rate
FNDA:0,_RNvMNtCscF0MZJB4Qop_10bingo_core16lazy_aggregationNtB2_21LazyAggregationResult23has_any_positive_values
FNDA:0,_RNvMNtCscF0MZJB4Qop_10bingo_core16lazy_aggregationNtB2_21LazyAggregationResult24try_short_circuit_having
FNDA:0,_RNvMNtCscF0MZJB4Qop_10bingo_core16lazy_aggregationNtB2_21LazyAggregationResult26evaluate_condition_on_fact
FNDA:0,_RNvMNtCscF0MZJB4Qop_10bingo_core16lazy_aggregationNtB2_21LazyAggregationResult34try_short_circuit_simple_condition
FNDA:0,_RNvMNtCscF0MZJB4Qop_10bingo_core16lazy_aggregationNtB2_21LazyAggregationResult9is_cached
FNDA:0,_RNvMs_NtCscF0MZJB4Qop_10bingo_core16lazy_aggregationNtB4_22LazyAggregationManager15get_aggregation
FNDA:0,_RNvMs_NtCscF0MZJB4Qop_10bingo_core16lazy_aggregationNtB4_22LazyAggregationManager21invalidate_all_caches
FNDA:0,_RNvMs_NtCscF0MZJB4Qop_10bingo_core16lazy_aggregationNtB4_22LazyAggregationManager29cleanup_inactive_aggregations
FNDA:0,_RNvXs0_NtCscF0MZJB4Qop_10bingo_core16lazy_aggregationNtB5_21LazyAggregationResultNtNtCsd2KPTObkMr_4core5clone5Clone5clone
FNDA:1,_RNvMNtCscF0MZJB4Qop_10bingo_core16lazy_aggregationNtB2_21LazyAggregationResult18fact_matches_group
FNDA:1,_RNvMNtCscF0MZJB4Qop_10bingo_core16lazy_aggregationNtB2_21LazyAggregationResult19compute_aggregation
FNDA:2,_RNvMNtCscF0MZJB4Qop_10bingo_core16lazy_aggregationNtB2_21LazyAggregationResult19get_candidate_facts
FNDA:1,_RNvMNtCscF0MZJB4Qop_10bingo_core16lazy_aggregationNtB2_21LazyAggregationResult22has_any_matching_facts
FNDA:0,_RNvMNtCscF0MZJB4Qop_10bingo_core16lazy_aggregationNtB2_21LazyAggregationResult25compute_aggregation_value
FNDA:3,_RNvMNtCscF0MZJB4Qop_10bingo_core16lazy_aggregationNtB2_21LazyAggregationResult3new
FNDA:3,_RNvMNtCscF0MZJB4Qop_10bingo_core16lazy_aggregationNtB2_21LazyAggregationResult9get_stats
FNDA:2,_RNvMNtCscF0MZJB4Qop_10bingo_core16lazy_aggregationNtB2_21LazyAggregationResult9get_value
FNDA:2,_RNvMs_NtCscF0MZJB4Qop_10bingo_core16lazy_aggregationNtB4_22LazyAggregationManager24generate_aggregation_key
FNDA:2,_RNvMs_NtCscF0MZJB4Qop_10bingo_core16lazy_aggregationNtB4_22LazyAggregationManager25get_or_create_aggregation
FNDA:1,_RNvMs_NtCscF0MZJB4Qop_10bingo_core16lazy_aggregationNtB4_22LazyAggregationManager3new
FNDA:1,_RNvMs_NtCscF0MZJB4Qop_10bingo_core16lazy_aggregationNtB4_22LazyAggregationManager9get_stats
FNDA:0,_RNCNvMNtCscF0MZJB4Qop_10bingo_core16lazy_aggregationNtB4_21LazyAggregationResult19get_candidate_factss0_0B6_
FNDA:0,_RNCNvMNtCscF0MZJB4Qop_10bingo_core16lazy_aggregationNtB4_21LazyAggregationResult25compute_aggregation_value0B6_
FNDA:0,_RNCNvMNtCscF0MZJB4Qop_10bingo_core16lazy_aggregationNtB4_21LazyAggregationResult25compute_aggregation_values_0B6_
FNDA:5,_RNvNtNtCscF0MZJB4Qop_10bingo_core16lazy_aggregation5tests16create_test_fact
FNDA:3,_RNvNtNtCscF0MZJB4Qop_10bingo_core16lazy_aggregation5tests28create_test_aggregation_spec
FNDA:1,_RNvNtNtCscF0MZJB4Qop_10bingo_core16lazy_aggregation5testss_28test_early_termination_count
FNDA:1,_RNvNtNtCscF0MZJB4Qop_10bingo_core16lazy_aggregation5testss_29test_lazy_aggregation_caching
FNDA:1,_RNvNtNtCscF0MZJB4Qop_10bingo_core16lazy_aggregation5testss_29test_lazy_aggregation_manager
FNF:33
FNH:16
DA:51,3
DA:52,3
DA:53,3
DA:54,3
DA:55,3
DA:56,3
DA:57,3
DA:58,3
DA:59,3
DA:60,3
DA:61,3
DA:62,3
DA:63,3
DA:64,3
DA:65,3
DA:68,2
DA:70,2
DA:71,1
DA:72,1
DA:73,1
DA:75,1
DA:78,1
DA:81,1
DA:83,1
DA:84,2
DA:87,0
DA:89,0
DA:90,0
DA:91,0
DA:92,0
DA:95,0
DA:98,0
DA:99,0
DA:101,0
DA:102,0
DA:103,0
DA:104,0
DA:105,0
DA:106,0
DA:109,0
DA:112,0
DA:114,0
DA:115,0
DA:118,0
DA:119,0
DA:121,0
DA:122,0
DA:123,0
DA:124,0
DA:125,0
DA:126,0
DA:129,0
DA:130,0
DA:131,0
DA:132,0
DA:133,0
DA:136,0
DA:139,0
DA:140,0
DA:142,0
DA:143,0
DA:144,0
DA:147,0
DA:148,0
DA:150,0
DA:151,0
DA:152,0
DA:156,0
DA:157,0
DA:159,0
DA:160,0
DA:161,0
DA:164,0
DA:167,0
DA:168,0
DA:171,1
DA:172,1
DA:174,1
DA:175,1
DA:176,1
DA:177,1
DA:178,1
DA:179,0
DA:180,0
DA:183,0
DA:184,1
DA:187,0
DA:188,0
DA:190,0
DA:191,0
DA:192,0
DA:193,0
DA:195,0
DA:196,0
DA:197,0
DA:198,0
DA:199,0
DA:200,0
DA:201,0
DA:202,0
DA:203,0
DA:204,0
DA:207,0
DA:208,0
DA:211,2
DA:212,2
DA:213,0
DA:214,0
DA:215,0
DA:216,0
DA:217,0
DA:218,0
DA:220,0
DA:222,0
DA:223,0
DA:224,0
DA:225,0
DA:227,0
DA:230,0
DA:232,0
DA:233,0
DA:234,0
DA:235,0
DA:237,0
DA:238,0
DA:239,0
DA:240,0
DA:245,0
DA:249,2
DA:252,2
DA:253,2
DA:256,1
DA:257,2
DA:258,1
DA:259,1
DA:260,1
DA:261,0
DA:262,1
DA:264,1
DA:265,1
DA:268,1
DA:269,1
DA:271,1
DA:272,1
DA:275,1
DA:276,0
DA:278,0
DA:279,0
DA:280,0
DA:282,0
DA:283,0
DA:284,0
DA:285,0
DA:286,0
DA:287,0
DA:290,1
DA:292,1
DA:293,0
DA:294,1
DA:295,0
DA:296,0
DA:297,0
DA:298,0
DA:301,0
DA:305,1
DA:307,1
DA:308,1
DA:311,0
DA:314,0
DA:315,0
DA:316,0
DA:317,0
DA:319,0
DA:320,0
DA:323,0
DA:324,0
DA:327,0
DA:328,0
DA:329,0
DA:330,0
DA:332,0
DA:333,0
DA:334,0
DA:335,0
DA:336,0
DA:337,0
DA:338,0
DA:339,0
DA:341,0
DA:342,0
DA:344,0
DA:348,0
DA:349,0
DA:352,0
DA:353,0
DA:354,0
DA:355,0
DA:357,0
DA:358,0
DA:360,0
DA:361,0
DA:362,0
DA:363,0
DA:364,0
DA:365,0
DA:366,0
DA:367,0
DA:368,0
DA:369,0
DA:371,0
DA:373,0
DA:374,0
DA:375,0
DA:377,0
DA:379,0
DA:380,0
DA:381,0
DA:383,0
DA:386,0
DA:388,0
DA:392,0
DA:394,0
DA:397,3
DA:398,3
DA:399,3
DA:402,0
DA:403,0
DA:404,0
DA:407,0
DA:408,0
DA:409,0
DA:412,0
DA:413,0
DA:414,0
DA:415,0
DA:416,0
DA:418,0
DA:420,0
DA:423,0
DA:424,0
DA:425,0
DA:426,0
DA:427,0
DA:429,0
DA:431,0
DA:457,1
DA:458,1
DA:459,1
DA:460,1
DA:461,1
DA:462,1
DA:463,1
DA:466,2
DA:467,2
DA:468,2
DA:469,2
DA:470,2
DA:471,2
DA:473,2
DA:475,2
DA:476,2
DA:478,2
DA:479,1
DA:480,1
DA:481,1
DA:482,1
DA:483,1
DA:484,1
DA:485,1
DA:486,1
DA:487,1
DA:488,1
DA:489,1
DA:491,2
DA:492,2
DA:495,0
DA:498,0
DA:499,0
DA:502,0
DA:503,0
DA:504,0
DA:506,0
DA:507,0
DA:508,0
DA:509,0
DA:512,0
DA:515,0
DA:516,0
DA:519,2
DA:521,2
DA:522,2
DA:523,2
DA:524,2
DA:528,4
DA:529,2
DA:530,2
DA:531,2
DA:535,2
DA:536,0
DA:537,2
DA:539,2
DA:540,2
DA:543,1
DA:544,1
DA:545,1
DA:549,0
DA:550,0
DA:551,0
DA:552,0
DA:553,0
DA:554,0
DA:555,0
DA:556,0
DA:557,0
DA:558,0
DA:570,5
DA:571,5
DA:572,5
DA:573,5
DA:575,5
DA:576,5
DA:577,5
DA:578,5
DA:579,5
DA:580,5
DA:581,5
DA:583,3
DA:584,3
DA:585,3
DA:586,3
DA:587,3
DA:588,3
DA:589,3
DA:590,3
DA:591,3
DA:592,3
DA:595,1
DA:596,1
DA:598,1
DA:600,1
DA:601,1
DA:603,1
DA:606,1
DA:607,1
DA:608,1
DA:609,1
DA:612,1
DA:613,1
DA:614,1
DA:615,1
DA:618,1
DA:619,1
DA:622,1
DA:624,1
DA:625,1
DA:626,1
DA:628,1
DA:629,1
DA:632,1
DA:633,1
DA:634,1
DA:635,1
DA:639,1
DA:641,1
DA:643,1
DA:644,1
DA:645,1
DA:646,1
DA:649,1
DA:650,1
DA:651,1
DA:652,1
DA:655,1
DA:656,1
DA:658,1
DA:659,1
DA:661,1
DA:663,1
DA:666,1
DA:667,1
DA:669,1
DA:670,1
DA:671,1
BRF:0
BRH:0
LF:386
LH:174
end_of_record
SF:/Users/hl/Projects/private/bingo/crates/bingo-core/src/lib.rs
FN:250,_RNvCscF0MZJB4Qop_10bingo_core4init
FNDA:0,_RNvCscF0MZJB4Qop_10bingo_core4init
FNF:1
FNH:0
DA:250,0
DA:251,0
DA:252,0
DA:253,0
BRF:0
BRH:0
LF:4
LH:0
end_of_record
SF:/Users/hl/Projects/private/bingo/crates/bingo-core/src/memory.rs
FN:175,_RNvNtNtCscF0MZJB4Qop_10bingo_core6memory5testss_17test_memory_stats
FN:165,_RNvNtNtCscF0MZJB4Qop_10bingo_core6memory5testss_17test_memory_usage
FN:184,_RNvNtNtCscF0MZJB4Qop_10bingo_core6memory5testss_19test_memory_tracker
FN:124,_RNvMNtCscF0MZJB4Qop_10bingo_core6memoryNtB2_11MemoryStats10delta_from
FN:129,_RNvMNtCscF0MZJB4Qop_10bingo_core6memoryNtB2_11MemoryStats10format_rss
FN:119,_RNvMNtCscF0MZJB4Qop_10bingo_core6memoryNtB2_11MemoryStats7current
FN:147,_RNvMs_NtCscF0MZJB4Qop_10bingo_core6memoryNtB4_13MemoryTracker13current_delta
FN:142,_RNvMs_NtCscF0MZJB4Qop_10bingo_core6memoryNtB4_13MemoryTracker5start
FN:153,_RNvMs_NtCscF0MZJB4Qop_10bingo_core6memoryNtB4_13MemoryTracker6finish
FN:2,_RNvNtCscF0MZJB4Qop_10bingo_core6memory16get_memory_usage
FNDA:1,_RNvNtNtCscF0MZJB4Qop_10bingo_core6memory5testss_17test_memory_stats
FNDA:1,_RNvNtNtCscF0MZJB4Qop_10bingo_core6memory5testss_17test_memory_usage
FNDA:1,_RNvNtNtCscF0MZJB4Qop_10bingo_core6memory5testss_19test_memory_tracker
FNDA:2,_RNvMNtCscF0MZJB4Qop_10bingo_core6memoryNtB2_11MemoryStats10delta_from
FNDA:3,_RNvMNtCscF0MZJB4Qop_10bingo_core6memoryNtB2_11MemoryStats10format_rss
FNDA:4,_RNvMNtCscF0MZJB4Qop_10bingo_core6memoryNtB2_11MemoryStats7current
FNDA:1,_RNvMs_NtCscF0MZJB4Qop_10bingo_core6memoryNtB4_13MemoryTracker13current_delta
FNDA:1,_RNvMs_NtCscF0MZJB4Qop_10bingo_core6memoryNtB4_13MemoryTracker5start
FNDA:1,_RNvMs_NtCscF0MZJB4Qop_10bingo_core6memoryNtB4_13MemoryTracker6finish
FNDA:5,_RNvNtCscF0MZJB4Qop_10bingo_core6memory16get_memory_usage
FNF:10
FNH:10
DA:2,5
DA:28,5
DA:29,5
DA:30,5
DA:32,5
DA:34,0
DA:38,5
DA:39,5
DA:40,5
DA:41,5
DA:42,0
DA:44,0
DA:108,5
DA:119,4
DA:120,4
DA:121,4
DA:124,2
DA:125,2
DA:126,2
DA:129,3
DA:130,3
DA:131,3
DA:132,3
DA:142,1
DA:143,1
DA:144,1
DA:147,1
DA:148,1
DA:149,1
DA:150,1
DA:153,1
DA:154,1
DA:155,1
DA:156,1
DA:157,1
DA:165,1
DA:166,1
DA:168,1
DA:169,1
DA:170,0
DA:172,1
DA:175,1
DA:176,1
DA:177,1
DA:179,1
DA:180,1
DA:181,1
DA:184,1
DA:185,1
DA:188,1
DA:190,1
DA:194,1
DA:195,1
DA:196,1
DA:198,1
DA:199,1
DA:200,1
DA:201,1
DA:204,1
BRF:0
BRH:0
LF:59
LH:55
end_of_record
SF:/Users/hl/Projects/private/bingo/crates/bingo-core/src/memory_pools.rs
FN:56,_RNvMNtCs6Pl1wmeKPjF_10bingo_core12memory_poolsNtB2_23RuleExecutionResultPool10return_vec
FN:28,_RNvMNtCs6Pl1wmeKPjF_10bingo_core12memory_poolsNtB2_23RuleExecutionResultPool13with_capacity
FN:38,_RNvMNtCs6Pl1wmeKPjF_10bingo_core12memory_poolsNtB2_23RuleExecutionResultPool3get
FN:24,_RNvMNtCs6Pl1wmeKPjF_10bingo_core12memory_poolsNtB2_23RuleExecutionResultPool3new
FN:66,_RNvMNtCs6Pl1wmeKPjF_10bingo_core12memory_poolsNtB2_23RuleExecutionResultPool5stats
FN:74,_RNvMNtCs6Pl1wmeKPjF_10bingo_core12memory_poolsNtB2_23RuleExecutionResultPool8hit_rate
FN:133,_RNvMs0_NtCs6Pl1wmeKPjF_10bingo_core12memory_poolsNtB5_13RuleIdVecPool10return_vec
FN:105,_RNvMs0_NtCs6Pl1wmeKPjF_10bingo_core12memory_poolsNtB5_13RuleIdVecPool13with_capacity
FN:115,_RNvMs0_NtCs6Pl1wmeKPjF_10bingo_core12memory_poolsNtB5_13RuleIdVecPool3get
FN:101,_RNvMs0_NtCs6Pl1wmeKPjF_10bingo_core12memory_poolsNtB5_13RuleIdVecPool3new
FN:143,_RNvMs0_NtCs6Pl1wmeKPjF_10bingo_core12memory_poolsNtB5_13RuleIdVecPool5stats
FN:151,_RNvMs0_NtCs6Pl1wmeKPjF_10bingo_core12memory_poolsNtB5_13RuleIdVecPool8hit_rate
FN:210,_RNvMs2_NtCs6Pl1wmeKPjF_10bingo_core12memory_poolsNtB5_13FactIdVecPool10return_vec
FN:182,_RNvMs2_NtCs6Pl1wmeKPjF_10bingo_core12memory_poolsNtB5_13FactIdVecPool13with_capacity
FN:192,_RNvMs2_NtCs6Pl1wmeKPjF_10bingo_core12memory_poolsNtB5_13FactIdVecPool3get
FN:178,_RNvMs2_NtCs6Pl1wmeKPjF_10bingo_core12memory_poolsNtB5_13FactIdVecPool3new
FN:220,_RNvMs2_NtCs6Pl1wmeKPjF_10bingo_core12memory_poolsNtB5_13FactIdVecPool5stats
FN:228,_RNvMs2_NtCs6Pl1wmeKPjF_10bingo_core12memory_poolsNtB5_13FactIdVecPool8hit_rate
FN:287,_RNvMs4_NtCs6Pl1wmeKPjF_10bingo_core12memory_poolsNtB5_16FactFieldMapPool10return_map
FN:259,_RNvMs4_NtCs6Pl1wmeKPjF_10bingo_core12memory_poolsNtB5_16FactFieldMapPool13with_capacity
FN:269,_RNvMs4_NtCs6Pl1wmeKPjF_10bingo_core12memory_poolsNtB5_16FactFieldMapPool3get
FN:255,_RNvMs4_NtCs6Pl1wmeKPjF_10bingo_core12memory_poolsNtB5_16FactFieldMapPool3new
FN:297,_RNvMs4_NtCs6Pl1wmeKPjF_10bingo_core12memory_poolsNtB5_16FactFieldMapPool5stats
FN:305,_RNvMs4_NtCs6Pl1wmeKPjF_10bingo_core12memory_poolsNtB5_16FactFieldMapPool8hit_rate
FN:364,_RNvMs6_NtCs6Pl1wmeKPjF_10bingo_core12memory_poolsNtB5_14NumericVecPool10return_vec
FN:336,_RNvMs6_NtCs6Pl1wmeKPjF_10bingo_core12memory_poolsNtB5_14NumericVecPool13with_capacity
FN:346,_RNvMs6_NtCs6Pl1wmeKPjF_10bingo_core12memory_poolsNtB5_14NumericVecPool3get
FN:332,_RNvMs6_NtCs6Pl1wmeKPjF_10bingo_core12memory_poolsNtB5_14NumericVecPool3new
FN:374,_RNvMs6_NtCs6Pl1wmeKPjF_10bingo_core12memory_poolsNtB5_14NumericVecPool5stats
FN:382,_RNvMs6_NtCs6Pl1wmeKPjF_10bingo_core12memory_poolsNtB5_14NumericVecPool8hit_rate
FN:441,_RNvMs8_NtCs6Pl1wmeKPjF_10bingo_core12memory_poolsNtB5_12TokenVecPool10return_vec
FN:413,_RNvMs8_NtCs6Pl1wmeKPjF_10bingo_core12memory_poolsNtB5_12TokenVecPool13with_capacity
FN:423,_RNvMs8_NtCs6Pl1wmeKPjF_10bingo_core12memory_poolsNtB5_12TokenVecPool3get
FN:409,_RNvMs8_NtCs6Pl1wmeKPjF_10bingo_core12memory_poolsNtB5_12TokenVecPool3new
FN:451,_RNvMs8_NtCs6Pl1wmeKPjF_10bingo_core12memory_poolsNtB5_12TokenVecPool5stats
FN:459,_RNvMs8_NtCs6Pl1wmeKPjF_10bingo_core12memory_poolsNtB5_12TokenVecPool8hit_rate
FN:568,_RNvMsa_NtCs6Pl1wmeKPjF_10bingo_core12memory_poolsNtB5_17MemoryPoolManager18overall_efficiency
FN:519,_RNvMsa_NtCs6Pl1wmeKPjF_10bingo_core12memory_poolsNtB5_17MemoryPoolManager23get_comprehensive_stats
FN:505,_RNvMsa_NtCs6Pl1wmeKPjF_10bingo_core12memory_poolsNtB5_17MemoryPoolManager27with_high_throughput_config
FN:491,_RNvMsa_NtCs6Pl1wmeKPjF_10bingo_core12memory_poolsNtB5_17MemoryPoolManager3new
FN:634,_RNvMsc_NtCs6Pl1wmeKPjF_10bingo_core12memory_poolsNtB5_15MemoryPoolStats22total_pool_utilization
FN:621,_RNvMsc_NtCs6Pl1wmeKPjF_10bingo_core12memory_poolsNtB5_15MemoryPoolStats28estimated_memory_saved_bytes
FN:689,_RNvMsd_NtCs6Pl1wmeKPjF_10bingo_core12memory_poolsNtB5_33ConcurrentRuleExecutionResultPool10return_vec
FN:666,_RNvMsd_NtCs6Pl1wmeKPjF_10bingo_core12memory_poolsNtB5_33ConcurrentRuleExecutionResultPool13with_capacity
FN:676,_RNvMsd_NtCs6Pl1wmeKPjF_10bingo_core12memory_poolsNtB5_33ConcurrentRuleExecutionResultPool3get
FN:662,_RNvMsd_NtCs6Pl1wmeKPjF_10bingo_core12memory_poolsNtB5_33ConcurrentRuleExecutionResultPool3new
FN:698,_RNvMsd_NtCs6Pl1wmeKPjF_10bingo_core12memory_poolsNtB5_33ConcurrentRuleExecutionResultPool5stats
FN:708,_RNvMsd_NtCs6Pl1wmeKPjF_10bingo_core12memory_poolsNtB5_33ConcurrentRuleExecutionResultPool8hit_rate
FN:774,_RNvMsg_NtCs6Pl1wmeKPjF_10bingo_core12memory_poolsNtB5_23ConcurrentRuleIdVecPool10return_vec
FN:751,_RNvMsg_NtCs6Pl1wmeKPjF_10bingo_core12memory_poolsNtB5_23ConcurrentRuleIdVecPool13with_capacity
FN:761,_RNvMsg_NtCs6Pl1wmeKPjF_10bingo_core12memory_poolsNtB5_23ConcurrentRuleIdVecPool3get
FN:747,_RNvMsg_NtCs6Pl1wmeKPjF_10bingo_core12memory_poolsNtB5_23ConcurrentRuleIdVecPool3new
FN:783,_RNvMsg_NtCs6Pl1wmeKPjF_10bingo_core12memory_poolsNtB5_23ConcurrentRuleIdVecPool5stats
FN:793,_RNvMsg_NtCs6Pl1wmeKPjF_10bingo_core12memory_poolsNtB5_23ConcurrentRuleIdVecPool8hit_rate
FN:855,_RNvMsj_NtCs6Pl1wmeKPjF_10bingo_core12memory_poolsNtB5_27ConcurrentMemoryPoolManager10is_enabled
FN:850,_RNvMsj_NtCs6Pl1wmeKPjF_10bingo_core12memory_poolsNtB5_27ConcurrentMemoryPoolManager11set_enabled
FN:882,_RNvMsj_NtCs6Pl1wmeKPjF_10bingo_core12memory_poolsNtB5_27ConcurrentMemoryPoolManager16total_efficiency
FN:860,_RNvMsj_NtCs6Pl1wmeKPjF_10bingo_core12memory_poolsNtB5_27ConcurrentMemoryPoolManager20get_concurrent_stats
FN:841,_RNvMsj_NtCs6Pl1wmeKPjF_10bingo_core12memory_poolsNtB5_27ConcurrentMemoryPoolManager27with_high_throughput_config
FN:832,_RNvMsj_NtCs6Pl1wmeKPjF_10bingo_core12memory_poolsNtB5_27ConcurrentMemoryPoolManager3new
FN:938,_RNvMsm_NtCs6Pl1wmeKPjF_10bingo_core12memory_poolsNtB5_25ConcurrentMemoryPoolStats16average_hit_rate
FN:943,_RNvMsm_NtCs6Pl1wmeKPjF_10bingo_core12memory_poolsNtB5_25ConcurrentMemoryPoolStats22total_pool_utilization
FN:931,_RNvMsm_NtCs6Pl1wmeKPjF_10bingo_core12memory_poolsNtB5_25ConcurrentMemoryPoolStats28estimated_memory_saved_bytes
FN:1075,_RNvMsn_NtCs6Pl1wmeKPjF_10bingo_core12memory_poolsNtB5_16ConditionVecPool10return_vec
FN:1050,_RNvMsn_NtCs6Pl1wmeKPjF_10bingo_core12memory_poolsNtB5_16ConditionVecPool13with_capacity
FN:1059,_RNvMsn_NtCs6Pl1wmeKPjF_10bingo_core12memory_poolsNtB5_16ConditionVecPool3get
FN:1046,_RNvMsn_NtCs6Pl1wmeKPjF_10bingo_core12memory_poolsNtB5_16ConditionVecPool3new
FN:1083,_RNvMsn_NtCs6Pl1wmeKPjF_10bingo_core12memory_poolsNtB5_16ConditionVecPool5stats
FN:1090,_RNvMsn_NtCs6Pl1wmeKPjF_10bingo_core12memory_poolsNtB5_16ConditionVecPool8hit_rate
FN:1146,_RNvMsp_NtCs6Pl1wmeKPjF_10bingo_core12memory_poolsNtB5_26StringFactValueHashMapPool10return_map
FN:1121,_RNvMsp_NtCs6Pl1wmeKPjF_10bingo_core12memory_poolsNtB5_26StringFactValueHashMapPool13with_capacity
FN:1130,_RNvMsp_NtCs6Pl1wmeKPjF_10bingo_core12memory_poolsNtB5_26StringFactValueHashMapPool3get
FN:1117,_RNvMsp_NtCs6Pl1wmeKPjF_10bingo_core12memory_poolsNtB5_26StringFactValueHashMapPool3new
FN:1154,_RNvMsp_NtCs6Pl1wmeKPjF_10bingo_core12memory_poolsNtB5_26StringFactValueHashMapPool5stats
FN:1161,_RNvMsp_NtCs6Pl1wmeKPjF_10bingo_core12memory_poolsNtB5_26StringFactValueHashMapPool8hit_rate
FN:163,_RNvXs1_NtCs6Pl1wmeKPjF_10bingo_core12memory_poolsNtB5_13RuleIdVecPoolNtNtCsd2KPTObkMr_4core7default7Default7default
FN:240,_RNvXs3_NtCs6Pl1wmeKPjF_10bingo_core12memory_poolsNtB5_13FactIdVecPoolNtNtCsd2KPTObkMr_4core7default7Default7default
FN:317,_RNvXs5_NtCs6Pl1wmeKPjF_10bingo_core12memory_poolsNtB5_16FactFieldMapPoolNtNtCsd2KPTObkMr_4core7default7Default7default
FN:394,_RNvXs7_NtCs6Pl1wmeKPjF_10bingo_core12memory_poolsNtB5_14NumericVecPoolNtNtCsd2KPTObkMr_4core7default7Default7default
FN:471,_RNvXs9_NtCs6Pl1wmeKPjF_10bingo_core12memory_poolsNtB5_12TokenVecPoolNtNtCsd2KPTObkMr_4core7default7Default7default
FN:86,_RNvXs_NtCs6Pl1wmeKPjF_10bingo_core12memory_poolsNtB4_23RuleExecutionResultPoolNtNtCsd2KPTObkMr_4core7default7Default7default
FN:594,_RNvXsb_NtCs6Pl1wmeKPjF_10bingo_core12memory_poolsNtB5_17MemoryPoolManagerNtNtCsd2KPTObkMr_4core7default7Default7default
FN:721,_RNvXse_NtCs6Pl1wmeKPjF_10bingo_core12memory_poolsNtB5_33ConcurrentRuleExecutionResultPoolNtNtCsd2KPTObkMr_4core5clone5Clone5clone
FN:732,_RNvXsf_NtCs6Pl1wmeKPjF_10bingo_core12memory_poolsNtB5_33ConcurrentRuleExecutionResultPoolNtNtCsd2KPTObkMr_4core7default7Default7default
FN:806,_RNvXsh_NtCs6Pl1wmeKPjF_10bingo_core12memory_poolsNtB5_23ConcurrentRuleIdVecPoolNtNtCsd2KPTObkMr_4core5clone5Clone5clone
FN:817,_RNvXsi_NtCs6Pl1wmeKPjF_10bingo_core12memory_poolsNtB5_23ConcurrentRuleIdVecPoolNtNtCsd2KPTObkMr_4core7default7Default7default
FN:897,_RNvXsk_NtCs6Pl1wmeKPjF_10bingo_core12memory_poolsNtB5_27ConcurrentMemoryPoolManagerNtNtCsd2KPTObkMr_4core5clone5Clone5clone
FN:907,_RNvXsl_NtCs6Pl1wmeKPjF_10bingo_core12memory_poolsNtB5_27ConcurrentMemoryPoolManagerNtNtCsd2KPTObkMr_4core7default7Default7default
FN:1102,_RNvXso_NtCs6Pl1wmeKPjF_10bingo_core12memory_poolsNtB5_16ConditionVecPoolNtNtCsd2KPTObkMr_4core7default7Default7default
FN:1173,_RNvXsq_NtCs6Pl1wmeKPjF_10bingo_core12memory_poolsNtB5_26StringFactValueHashMapPoolNtNtCsd2KPTObkMr_4core7default7Default7default
FN:69,_RNCNvMNtCs6Pl1wmeKPjF_10bingo_core12memory_poolsNtB4_23RuleExecutionResultPool5stats0B6_
FN:146,_RNCNvMs0_NtCs6Pl1wmeKPjF_10bingo_core12memory_poolsNtB7_13RuleIdVecPool5stats0B9_
FN:223,_RNCNvMs2_NtCs6Pl1wmeKPjF_10bingo_core12memory_poolsNtB7_13FactIdVecPool5stats0B9_
FN:300,_RNCNvMs4_NtCs6Pl1wmeKPjF_10bingo_core12memory_poolsNtB7_16FactFieldMapPool5stats0B9_
FN:377,_RNCNvMs6_NtCs6Pl1wmeKPjF_10bingo_core12memory_poolsNtB7_14NumericVecPool5stats0B9_
FN:454,_RNCNvMs8_NtCs6Pl1wmeKPjF_10bingo_core12memory_poolsNtB7_12TokenVecPool5stats0B9_
FN:699,_RNCNvMsd_NtCs6Pl1wmeKPjF_10bingo_core12memory_poolsNtB7_33ConcurrentRuleExecutionResultPool5stats0B9_
FN:784,_RNCNvMsg_NtCs6Pl1wmeKPjF_10bingo_core12memory_poolsNtB7_23ConcurrentRuleIdVecPool5stats0B9_
FN:1086,_RNCNvMsn_NtCs6Pl1wmeKPjF_10bingo_core12memory_poolsNtB7_16ConditionVecPool5stats0B9_
FN:1157,_RNCNvMsp_NtCs6Pl1wmeKPjF_10bingo_core12memory_poolsNtB7_26StringFactValueHashMapPool5stats0B9_
FN:699,_RNCNvMsd_NtCscF0MZJB4Qop_10bingo_core12memory_poolsNtB7_33ConcurrentRuleExecutionResultPool5stats0B9_
FN:784,_RNCNvMsg_NtCscF0MZJB4Qop_10bingo_core12memory_poolsNtB7_23ConcurrentRuleIdVecPool5stats0B9_
FN:1086,_RNCNvMsn_NtCscF0MZJB4Qop_10bingo_core12memory_poolsNtB7_16ConditionVecPool5stats0B9_
FN:1157,_RNCNvMsp_NtCscF0MZJB4Qop_10bingo_core12memory_poolsNtB7_26StringFactValueHashMapPool5stats0B9_
FN:210,_RNvMs2_NtCscF0MZJB4Qop_10bingo_core12memory_poolsNtB5_13FactIdVecPool10return_vec
FN:287,_RNvMs4_NtCscF0MZJB4Qop_10bingo_core12memory_poolsNtB5_16FactFieldMapPool10return_map
FN:634,_RNvMsc_NtCscF0MZJB4Qop_10bingo_core12memory_poolsNtB5_15MemoryPoolStats22total_pool_utilization
FN:689,_RNvMsd_NtCscF0MZJB4Qop_10bingo_core12memory_poolsNtB5_33ConcurrentRuleExecutionResultPool10return_vec
FN:666,_RNvMsd_NtCscF0MZJB4Qop_10bingo_core12memory_poolsNtB5_33ConcurrentRuleExecutionResultPool13with_capacity
FN:676,_RNvMsd_NtCscF0MZJB4Qop_10bingo_core12memory_poolsNtB5_33ConcurrentRuleExecutionResultPool3get
FN:662,_RNvMsd_NtCscF0MZJB4Qop_10bingo_core12memory_poolsNtB5_33ConcurrentRuleExecutionResultPool3new
FN:698,_RNvMsd_NtCscF0MZJB4Qop_10bingo_core12memory_poolsNtB5_33ConcurrentRuleExecutionResultPool5stats
FN:708,_RNvMsd_NtCscF0MZJB4Qop_10bingo_core12memory_poolsNtB5_33ConcurrentRuleExecutionResultPool8hit_rate
FN:774,_RNvMsg_NtCscF0MZJB4Qop_10bingo_core12memory_poolsNtB5_23ConcurrentRuleIdVecPool10return_vec
FN:751,_RNvMsg_NtCscF0MZJB4Qop_10bingo_core12memory_poolsNtB5_23ConcurrentRuleIdVecPool13with_capacity
FN:761,_RNvMsg_NtCscF0MZJB4Qop_10bingo_core12memory_poolsNtB5_23ConcurrentRuleIdVecPool3get
FN:747,_RNvMsg_NtCscF0MZJB4Qop_10bingo_core12memory_poolsNtB5_23ConcurrentRuleIdVecPool3new
FN:783,_RNvMsg_NtCscF0MZJB4Qop_10bingo_core12memory_poolsNtB5_23ConcurrentRuleIdVecPool5stats
FN:793,_RNvMsg_NtCscF0MZJB4Qop_10bingo_core12memory_poolsNtB5_23ConcurrentRuleIdVecPool8hit_rate
FN:855,_RNvMsj_NtCscF0MZJB4Qop_10bingo_core12memory_poolsNtB5_27ConcurrentMemoryPoolManager10is_enabled
FN:850,_RNvMsj_NtCscF0MZJB4Qop_10bingo_core12memory_poolsNtB5_27ConcurrentMemoryPoolManager11set_enabled
FN:882,_RNvMsj_NtCscF0MZJB4Qop_10bingo_core12memory_poolsNtB5_27ConcurrentMemoryPoolManager16total_efficiency
FN:860,_RNvMsj_NtCscF0MZJB4Qop_10bingo_core12memory_poolsNtB5_27ConcurrentMemoryPoolManager20get_concurrent_stats
FN:841,_RNvMsj_NtCscF0MZJB4Qop_10bingo_core12memory_poolsNtB5_27ConcurrentMemoryPoolManager27with_high_throughput_config
FN:832,_RNvMsj_NtCscF0MZJB4Qop_10bingo_core12memory_poolsNtB5_27ConcurrentMemoryPoolManager3new
FN:938,_RNvMsm_NtCscF0MZJB4Qop_10bingo_core12memory_poolsNtB5_25ConcurrentMemoryPoolStats16average_hit_rate
FN:943,_RNvMsm_NtCscF0MZJB4Qop_10bingo_core12memory_poolsNtB5_25ConcurrentMemoryPoolStats22total_pool_utilization
FN:931,_RNvMsm_NtCscF0MZJB4Qop_10bingo_core12memory_poolsNtB5_25ConcurrentMemoryPoolStats28estimated_memory_saved_bytes
FN:1075,_RNvMsn_NtCscF0MZJB4Qop_10bingo_core12memory_poolsNtB5_16ConditionVecPool10return_vec
FN:1059,_RNvMsn_NtCscF0MZJB4Qop_10bingo_core12memory_poolsNtB5_16ConditionVecPool3get
FN:1083,_RNvMsn_NtCscF0MZJB4Qop_10bingo_core12memory_poolsNtB5_16ConditionVecPool5stats
FN:1090,_RNvMsn_NtCscF0MZJB4Qop_10bingo_core12memory_poolsNtB5_16ConditionVecPool8hit_rate
FN:1146,_RNvMsp_NtCscF0MZJB4Qop_10bingo_core12memory_poolsNtB5_26StringFactValueHashMapPool10return_map
FN:1130,_RNvMsp_NtCscF0MZJB4Qop_10bingo_core12memory_poolsNtB5_26StringFactValueHashMapPool3get
FN:1154,_RNvMsp_NtCscF0MZJB4Qop_10bingo_core12memory_poolsNtB5_26StringFactValueHashMapPool5stats
FN:1161,_RNvMsp_NtCscF0MZJB4Qop_10bingo_core12memory_poolsNtB5_26StringFactValueHashMapPool8hit_rate
FN:163,_RNvXs1_NtCscF0MZJB4Qop_10bingo_core12memory_poolsNtB5_13RuleIdVecPoolNtNtCsd2KPTObkMr_4core7default7Default7default
FN:240,_RNvXs3_NtCscF0MZJB4Qop_10bingo_core12memory_poolsNtB5_13FactIdVecPoolNtNtCsd2KPTObkMr_4core7default7Default7default
FN:317,_RNvXs5_NtCscF0MZJB4Qop_10bingo_core12memory_poolsNtB5_16FactFieldMapPoolNtNtCsd2KPTObkMr_4core7default7Default7default
FN:394,_RNvXs7_NtCscF0MZJB4Qop_10bingo_core12memory_poolsNtB5_14NumericVecPoolNtNtCsd2KPTObkMr_4core7default7Default7default
FN:471,_RNvXs9_NtCscF0MZJB4Qop_10bingo_core12memory_poolsNtB5_12TokenVecPoolNtNtCsd2KPTObkMr_4core7default7Default7default
FN:86,_RNvXs_NtCscF0MZJB4Qop_10bingo_core12memory_poolsNtB4_23RuleExecutionResultPoolNtNtCsd2KPTObkMr_4core7default7Default7default
FN:594,_RNvXsb_NtCscF0MZJB4Qop_10bingo_core12memory_poolsNtB5_17MemoryPoolManagerNtNtCsd2KPTObkMr_4core7default7Default7default
FN:721,_RNvXse_NtCscF0MZJB4Qop_10bingo_core12memory_poolsNtB5_33ConcurrentRuleExecutionResultPoolNtNtCsd2KPTObkMr_4core5clone5Clone5clone
FN:732,_RNvXsf_NtCscF0MZJB4Qop_10bingo_core12memory_poolsNtB5_33ConcurrentRuleExecutionResultPoolNtNtCsd2KPTObkMr_4core7default7Default7default
FN:806,_RNvXsh_NtCscF0MZJB4Qop_10bingo_core12memory_poolsNtB5_23ConcurrentRuleIdVecPoolNtNtCsd2KPTObkMr_4core5clone5Clone5clone
FN:817,_RNvXsi_NtCscF0MZJB4Qop_10bingo_core12memory_poolsNtB5_23ConcurrentRuleIdVecPoolNtNtCsd2KPTObkMr_4core7default7Default7default
FN:897,_RNvXsk_NtCscF0MZJB4Qop_10bingo_core12memory_poolsNtB5_27ConcurrentMemoryPoolManagerNtNtCsd2KPTObkMr_4core5clone5Clone5clone
FN:907,_RNvXsl_NtCscF0MZJB4Qop_10bingo_core12memory_poolsNtB5_27ConcurrentMemoryPoolManagerNtNtCsd2KPTObkMr_4core7default7Default7default
FN:1102,_RNvXso_NtCscF0MZJB4Qop_10bingo_core12memory_poolsNtB5_16ConditionVecPoolNtNtCsd2KPTObkMr_4core7default7Default7default
FN:1173,_RNvXsq_NtCscF0MZJB4Qop_10bingo_core12memory_poolsNtB5_26StringFactValueHashMapPoolNtNtCsd2KPTObkMr_4core7default7Default7default
FN:69,_RNCNvMNtCscF0MZJB4Qop_10bingo_core12memory_poolsNtB4_23RuleExecutionResultPool5stats0B6_
FN:146,_RNCNvMs0_NtCscF0MZJB4Qop_10bingo_core12memory_poolsNtB7_13RuleIdVecPool5stats0B9_
FN:223,_RNCNvMs2_NtCscF0MZJB4Qop_10bingo_core12memory_poolsNtB7_13FactIdVecPool5stats0B9_
FN:300,_RNCNvMs4_NtCscF0MZJB4Qop_10bingo_core12memory_poolsNtB7_16FactFieldMapPool5stats0B9_
FN:377,_RNCNvMs6_NtCscF0MZJB4Qop_10bingo_core12memory_poolsNtB7_14NumericVecPool5stats0B9_
FN:454,_RNCNvMs8_NtCscF0MZJB4Qop_10bingo_core12memory_poolsNtB7_12TokenVecPool5stats0B9_
FN:56,_RNvMNtCscF0MZJB4Qop_10bingo_core12memory_poolsNtB2_23RuleExecutionResultPool10return_vec
FN:28,_RNvMNtCscF0MZJB4Qop_10bingo_core12memory_poolsNtB2_23RuleExecutionResultPool13with_capacity
FN:38,_RNvMNtCscF0MZJB4Qop_10bingo_core12memory_poolsNtB2_23RuleExecutionResultPool3get
FN:24,_RNvMNtCscF0MZJB4Qop_10bingo_core12memory_poolsNtB2_23RuleExecutionResultPool3new
FN:66,_RNvMNtCscF0MZJB4Qop_10bingo_core12memory_poolsNtB2_23RuleExecutionResultPool5stats
FN:74,_RNvMNtCscF0MZJB4Qop_10bingo_core12memory_poolsNtB2_23RuleExecutionResultPool8hit_rate
FN:133,_RNvMs0_NtCscF0MZJB4Qop_10bingo_core12memory_poolsNtB5_13RuleIdVecPool10return_vec
FN:105,_RNvMs0_NtCscF0MZJB4Qop_10bingo_core12memory_poolsNtB5_13RuleIdVecPool13with_capacity
FN:115,_RNvMs0_NtCscF0MZJB4Qop_10bingo_core12memory_poolsNtB5_13RuleIdVecPool3get
FN:101,_RNvMs0_NtCscF0MZJB4Qop_10bingo_core12memory_poolsNtB5_13RuleIdVecPool3new
FN:143,_RNvMs0_NtCscF0MZJB4Qop_10bingo_core12memory_poolsNtB5_13RuleIdVecPool5stats
FN:151,_RNvMs0_NtCscF0MZJB4Qop_10bingo_core12memory_poolsNtB5_13RuleIdVecPool8hit_rate
FN:182,_RNvMs2_NtCscF0MZJB4Qop_10bingo_core12memory_poolsNtB5_13FactIdVecPool13with_capacity
FN:192,_RNvMs2_NtCscF0MZJB4Qop_10bingo_core12memory_poolsNtB5_13FactIdVecPool3get
FN:178,_RNvMs2_NtCscF0MZJB4Qop_10bingo_core12memory_poolsNtB5_13FactIdVecPool3new
FN:220,_RNvMs2_NtCscF0MZJB4Qop_10bingo_core12memory_poolsNtB5_13FactIdVecPool5stats
FN:228,_RNvMs2_NtCscF0MZJB4Qop_10bingo_core12memory_poolsNtB5_13FactIdVecPool8hit_rate
FN:259,_RNvMs4_NtCscF0MZJB4Qop_10bingo_core12memory_poolsNtB5_16FactFieldMapPool13with_capacity
FN:269,_RNvMs4_NtCscF0MZJB4Qop_10bingo_core12memory_poolsNtB5_16FactFieldMapPool3get
FN:255,_RNvMs4_NtCscF0MZJB4Qop_10bingo_core12memory_poolsNtB5_16FactFieldMapPool3new
FN:297,_RNvMs4_NtCscF0MZJB4Qop_10bingo_core12memory_poolsNtB5_16FactFieldMapPool5stats
FN:305,_RNvMs4_NtCscF0MZJB4Qop_10bingo_core12memory_poolsNtB5_16FactFieldMapPool8hit_rate
FN:364,_RNvMs6_NtCscF0MZJB4Qop_10bingo_core12memory_poolsNtB5_14NumericVecPool10return_vec
FN:336,_RNvMs6_NtCscF0MZJB4Qop_10bingo_core12memory_poolsNtB5_14NumericVecPool13with_capacity
FN:346,_RNvMs6_NtCscF0MZJB4Qop_10bingo_core12memory_poolsNtB5_14NumericVecPool3get
FN:332,_RNvMs6_NtCscF0MZJB4Qop_10bingo_core12memory_poolsNtB5_14NumericVecPool3new
FN:374,_RNvMs6_NtCscF0MZJB4Qop_10bingo_core12memory_poolsNtB5_14NumericVecPool5stats
FN:382,_RNvMs6_NtCscF0MZJB4Qop_10bingo_core12memory_poolsNtB5_14NumericVecPool8hit_rate
FN:441,_RNvMs8_NtCscF0MZJB4Qop_10bingo_core12memory_poolsNtB5_12TokenVecPool10return_vec
FN:413,_RNvMs8_NtCscF0MZJB4Qop_10bingo_core12memory_poolsNtB5_12TokenVecPool13with_capacity
FN:423,_RNvMs8_NtCscF0MZJB4Qop_10bingo_core12memory_poolsNtB5_12TokenVecPool3get
FN:409,_RNvMs8_NtCscF0MZJB4Qop_10bingo_core12memory_poolsNtB5_12TokenVecPool3new
FN:451,_RNvMs8_NtCscF0MZJB4Qop_10bingo_core12memory_poolsNtB5_12TokenVecPool5stats
FN:459,_RNvMs8_NtCscF0MZJB4Qop_10bingo_core12memory_poolsNtB5_12TokenVecPool8hit_rate
FN:568,_RNvMsa_NtCscF0MZJB4Qop_10bingo_core12memory_poolsNtB5_17MemoryPoolManager18overall_efficiency
FN:519,_RNvMsa_NtCscF0MZJB4Qop_10bingo_core12memory_poolsNtB5_17MemoryPoolManager23get_comprehensive_stats
FN:505,_RNvMsa_NtCscF0MZJB4Qop_10bingo_core12memory_poolsNtB5_17MemoryPoolManager27with_high_throughput_config
FN:491,_RNvMsa_NtCscF0MZJB4Qop_10bingo_core12memory_poolsNtB5_17MemoryPoolManager3new
FN:621,_RNvMsc_NtCscF0MZJB4Qop_10bingo_core12memory_poolsNtB5_15MemoryPoolStats28estimated_memory_saved_bytes
FN:1050,_RNvMsn_NtCscF0MZJB4Qop_10bingo_core12memory_poolsNtB5_16ConditionVecPool13with_capacity
FN:1046,_RNvMsn_NtCscF0MZJB4Qop_10bingo_core12memory_poolsNtB5_16ConditionVecPool3new
FN:1121,_RNvMsp_NtCscF0MZJB4Qop_10bingo_core12memory_poolsNtB5_26StringFactValueHashMapPool13with_capacity
FN:1117,_RNvMsp_NtCscF0MZJB4Qop_10bingo_core12memory_poolsNtB5_26StringFactValueHashMapPool3new
FN:979,_RNvNtNtCscF0MZJB4Qop_10bingo_core12memory_pools5testss_24test_memory_pool_manager
FN:1005,_RNvNtNtCscF0MZJB4Qop_10bingo_core12memory_pools5testss_27test_high_throughput_config
FN:1019,_RNvNtNtCscF0MZJB4Qop_10bingo_core12memory_pools5testss_30test_memory_savings_estimation
FN:956,_RNvNtNtCscF0MZJB4Qop_10bingo_core12memory_pools5testss_31test_rule_execution_result_pool
FNDA:0,_RNvMNtCs6Pl1wmeKPjF_10bingo_core12memory_poolsNtB2_23RuleExecutionResultPool10return_vec
FNDA:0,_RNvMNtCs6Pl1wmeKPjF_10bingo_core12memory_poolsNtB2_23RuleExecutionResultPool13with_capacity
FNDA:0,_RNvMNtCs6Pl1wmeKPjF_10bingo_core12memory_poolsNtB2_23RuleExecutionResultPool3get
FNDA:0,_RNvMNtCs6Pl1wmeKPjF_10bingo_core12memory_poolsNtB2_23RuleExecutionResultPool3new
FNDA:0,_RNvMNtCs6Pl1wmeKPjF_10bingo_core12memory_poolsNtB2_23RuleExecutionResultPool5stats
FNDA:0,_RNvMNtCs6Pl1wmeKPjF_10bingo_core12memory_poolsNtB2_23RuleExecutionResultPool8hit_rate
FNDA:0,_RNvMs0_NtCs6Pl1wmeKPjF_10bingo_core12memory_poolsNtB5_13RuleIdVecPool10return_vec
FNDA:0,_RNvMs0_NtCs6Pl1wmeKPjF_10bingo_core12memory_poolsNtB5_13RuleIdVecPool13with_capacity
FNDA:0,_RNvMs0_NtCs6Pl1wmeKPjF_10bingo_core12memory_poolsNtB5_13RuleIdVecPool3get
FNDA:0,_RNvMs0_NtCs6Pl1wmeKPjF_10bingo_core12memory_poolsNtB5_13RuleIdVecPool3new
FNDA:0,_RNvMs0_NtCs6Pl1wmeKPjF_10bingo_core12memory_poolsNtB5_13RuleIdVecPool5stats
FNDA:0,_RNvMs0_NtCs6Pl1wmeKPjF_10bingo_core12memory_poolsNtB5_13RuleIdVecPool8hit_rate
FNDA:0,_RNvMs2_NtCs6Pl1wmeKPjF_10bingo_core12memory_poolsNtB5_13FactIdVecPool10return_vec
FNDA:0,_RNvMs2_NtCs6Pl1wmeKPjF_10bingo_core12memory_poolsNtB5_13FactIdVecPool13with_capacity
FNDA:0,_RNvMs2_NtCs6Pl1wmeKPjF_10bingo_core12memory_poolsNtB5_13FactIdVecPool3get
FNDA:0,_RNvMs2_NtCs6Pl1wmeKPjF_10bingo_core12memory_poolsNtB5_13FactIdVecPool3new
FNDA:0,_RNvMs2_NtCs6Pl1wmeKPjF_10bingo_core12memory_poolsNtB5_13FactIdVecPool5stats
FNDA:0,_RNvMs2_NtCs6Pl1wmeKPjF_10bingo_core12memory_poolsNtB5_13FactIdVecPool8hit_rate
FNDA:0,_RNvMs4_NtCs6Pl1wmeKPjF_10bingo_core12memory_poolsNtB5_16FactFieldMapPool10return_map
FNDA:0,_RNvMs4_NtCs6Pl1wmeKPjF_10bingo_core12memory_poolsNtB5_16FactFieldMapPool13with_capacity
FNDA:0,_RNvMs4_NtCs6Pl1wmeKPjF_10bingo_core12memory_poolsNtB5_16FactFieldMapPool3get
FNDA:0,_RNvMs4_NtCs6Pl1wmeKPjF_10bingo_core12memory_poolsNtB5_16FactFieldMapPool3new
FNDA:0,_RNvMs4_NtCs6Pl1wmeKPjF_10bingo_core12memory_poolsNtB5_16FactFieldMapPool5stats
FNDA:0,_RNvMs4_NtCs6Pl1wmeKPjF_10bingo_core12memory_poolsNtB5_16FactFieldMapPool8hit_rate
FNDA:0,_RNvMs6_NtCs6Pl1wmeKPjF_10bingo_core12memory_poolsNtB5_14NumericVecPool10return_vec
FNDA:0,_RNvMs6_NtCs6Pl1wmeKPjF_10bingo_core12memory_poolsNtB5_14NumericVecPool13with_capacity
FNDA:0,_RNvMs6_NtCs6Pl1wmeKPjF_10bingo_core12memory_poolsNtB5_14NumericVecPool3get
FNDA:0,_RNvMs6_NtCs6Pl1wmeKPjF_10bingo_core12memory_poolsNtB5_14NumericVecPool3new
FNDA:0,_RNvMs6_NtCs6Pl1wmeKPjF_10bingo_core12memory_poolsNtB5_14NumericVecPool5stats
FNDA:0,_RNvMs6_NtCs6Pl1wmeKPjF_10bingo_core12memory_poolsNtB5_14NumericVecPool8hit_rate
FNDA:0,_RNvMs8_NtCs6Pl1wmeKPjF_10bingo_core12memory_poolsNtB5_12TokenVecPool10return_vec
FNDA:0,_RNvMs8_NtCs6Pl1wmeKPjF_10bingo_core12memory_poolsNtB5_12TokenVecPool13with_capacity
FNDA:0,_RNvMs8_NtCs6Pl1wmeKPjF_10bingo_core12memory_poolsNtB5_12TokenVecPool3get
FNDA:0,_RNvMs8_NtCs6Pl1wmeKPjF_10bingo_core12memory_poolsNtB5_12TokenVecPool3new
FNDA:0,_RNvMs8_NtCs6Pl1wmeKPjF_10bingo_core12memory_poolsNtB5_12TokenVecPool5stats
FNDA:0,_RNvMs8_NtCs6Pl1wmeKPjF_10bingo_core12memory_poolsNtB5_12TokenVecPool8hit_rate
FNDA:0,_RNvMsa_NtCs6Pl1wmeKPjF_10bingo_core12memory_poolsNtB5_17MemoryPoolManager18overall_efficiency
FNDA:0,_RNvMsa_NtCs6Pl1wmeKPjF_10bingo_core12memory_poolsNtB5_17MemoryPoolManager23get_comprehensive_stats
FNDA:0,_RNvMsa_NtCs6Pl1wmeKPjF_10bingo_core12memory_poolsNtB5_17MemoryPoolManager27with_high_throughput_config
FNDA:0,_RNvMsa_NtCs6Pl1wmeKPjF_10bingo_core12memory_poolsNtB5_17MemoryPoolManager3new
FNDA:0,_RNvMsc_NtCs6Pl1wmeKPjF_10bingo_core12memory_poolsNtB5_15MemoryPoolStats22total_pool_utilization
FNDA:0,_RNvMsc_NtCs6Pl1wmeKPjF_10bingo_core12memory_poolsNtB5_15MemoryPoolStats28estimated_memory_saved_bytes
FNDA:0,_RNvMsd_NtCs6Pl1wmeKPjF_10bingo_core12memory_poolsNtB5_33ConcurrentRuleExecutionResultPool10return_vec
FNDA:0,_RNvMsd_NtCs6Pl1wmeKPjF_10bingo_core12memory_poolsNtB5_33ConcurrentRuleExecutionResultPool13with_capacity
FNDA:0,_RNvMsd_NtCs6Pl1wmeKPjF_10bingo_core12memory_poolsNtB5_33ConcurrentRuleExecutionResultPool3get
FNDA:0,_RNvMsd_NtCs6Pl1wmeKPjF_10bingo_core12memory_poolsNtB5_33ConcurrentRuleExecutionResultPool3new
FNDA:0,_RNvMsd_NtCs6Pl1wmeKPjF_10bingo_core12memory_poolsNtB5_33ConcurrentRuleExecutionResultPool5stats
FNDA:0,_RNvMsd_NtCs6Pl1wmeKPjF_10bingo_core12memory_poolsNtB5_33ConcurrentRuleExecutionResultPool8hit_rate
FNDA:0,_RNvMsg_NtCs6Pl1wmeKPjF_10bingo_core12memory_poolsNtB5_23ConcurrentRuleIdVecPool10return_vec
FNDA:0,_RNvMsg_NtCs6Pl1wmeKPjF_10bingo_core12memory_poolsNtB5_23ConcurrentRuleIdVecPool13with_capacity
FNDA:0,_RNvMsg_NtCs6Pl1wmeKPjF_10bingo_core12memory_poolsNtB5_23ConcurrentRuleIdVecPool3get
FNDA:0,_RNvMsg_NtCs6Pl1wmeKPjF_10bingo_core12memory_poolsNtB5_23ConcurrentRuleIdVecPool3new
FNDA:0,_RNvMsg_NtCs6Pl1wmeKPjF_10bingo_core12memory_poolsNtB5_23ConcurrentRuleIdVecPool5stats
FNDA:0,_RNvMsg_NtCs6Pl1wmeKPjF_10bingo_core12memory_poolsNtB5_23ConcurrentRuleIdVecPool8hit_rate
FNDA:0,_RNvMsj_NtCs6Pl1wmeKPjF_10bingo_core12memory_poolsNtB5_27ConcurrentMemoryPoolManager10is_enabled
FNDA:0,_RNvMsj_NtCs6Pl1wmeKPjF_10bingo_core12memory_poolsNtB5_27ConcurrentMemoryPoolManager11set_enabled
FNDA:0,_RNvMsj_NtCs6Pl1wmeKPjF_10bingo_core12memory_poolsNtB5_27ConcurrentMemoryPoolManager16total_efficiency
FNDA:0,_RNvMsj_NtCs6Pl1wmeKPjF_10bingo_core12memory_poolsNtB5_27ConcurrentMemoryPoolManager20get_concurrent_stats
FNDA:0,_RNvMsj_NtCs6Pl1wmeKPjF_10bingo_core12memory_poolsNtB5_27ConcurrentMemoryPoolManager27with_high_throughput_config
FNDA:0,_RNvMsj_NtCs6Pl1wmeKPjF_10bingo_core12memory_poolsNtB5_27ConcurrentMemoryPoolManager3new
FNDA:0,_RNvMsm_NtCs6Pl1wmeKPjF_10bingo_core12memory_poolsNtB5_25ConcurrentMemoryPoolStats16average_hit_rate
FNDA:0,_RNvMsm_NtCs6Pl1wmeKPjF_10bingo_core12memory_poolsNtB5_25ConcurrentMemoryPoolStats22total_pool_utilization
FNDA:0,_RNvMsm_NtCs6Pl1wmeKPjF_10bingo_core12memory_poolsNtB5_25ConcurrentMemoryPoolStats28estimated_memory_saved_bytes
FNDA:0,_RNvMsn_NtCs6Pl1wmeKPjF_10bingo_core12memory_poolsNtB5_16ConditionVecPool10return_vec
FNDA:0,_RNvMsn_NtCs6Pl1wmeKPjF_10bingo_core12memory_poolsNtB5_16ConditionVecPool13with_capacity
FNDA:0,_RNvMsn_NtCs6Pl1wmeKPjF_10bingo_core12memory_poolsNtB5_16ConditionVecPool3get
FNDA:0,_RNvMsn_NtCs6Pl1wmeKPjF_10bingo_core12memory_poolsNtB5_16ConditionVecPool3new
FNDA:0,_RNvMsn_NtCs6Pl1wmeKPjF_10bingo_core12memory_poolsNtB5_16ConditionVecPool5stats
FNDA:0,_RNvMsn_NtCs6Pl1wmeKPjF_10bingo_core12memory_poolsNtB5_16ConditionVecPool8hit_rate
FNDA:0,_RNvMsp_NtCs6Pl1wmeKPjF_10bingo_core12memory_poolsNtB5_26StringFactValueHashMapPool10return_map
FNDA:0,_RNvMsp_NtCs6Pl1wmeKPjF_10bingo_core12memory_poolsNtB5_26StringFactValueHashMapPool13with_capacity
FNDA:0,_RNvMsp_NtCs6Pl1wmeKPjF_10bingo_core12memory_poolsNtB5_26StringFactValueHashMapPool3get
FNDA:0,_RNvMsp_NtCs6Pl1wmeKPjF_10bingo_core12memory_poolsNtB5_26StringFactValueHashMapPool3new
FNDA:0,_RNvMsp_NtCs6Pl1wmeKPjF_10bingo_core12memory_poolsNtB5_26StringFactValueHashMapPool5stats
FNDA:0,_RNvMsp_NtCs6Pl1wmeKPjF_10bingo_core12memory_poolsNtB5_26StringFactValueHashMapPool8hit_rate
FNDA:0,_RNvXs1_NtCs6Pl1wmeKPjF_10bingo_core12memory_poolsNtB5_13RuleIdVecPoolNtNtCsd2KPTObkMr_4core7default7Default7default
FNDA:0,_RNvXs3_NtCs6Pl1wmeKPjF_10bingo_core12memory_poolsNtB5_13FactIdVecPoolNtNtCsd2KPTObkMr_4core7default7Default7default
FNDA:0,_RNvXs5_NtCs6Pl1wmeKPjF_10bingo_core12memory_poolsNtB5_16FactFieldMapPoolNtNtCsd2KPTObkMr_4core7default7Default7default
FNDA:0,_RNvXs7_NtCs6Pl1wmeKPjF_10bingo_core12memory_poolsNtB5_14NumericVecPoolNtNtCsd2KPTObkMr_4core7default7Default7default
FNDA:0,_RNvXs9_NtCs6Pl1wmeKPjF_10bingo_core12memory_poolsNtB5_12TokenVecPoolNtNtCsd2KPTObkMr_4core7default7Default7default
FNDA:0,_RNvXs_NtCs6Pl1wmeKPjF_10bingo_core12memory_poolsNtB4_23RuleExecutionResultPoolNtNtCsd2KPTObkMr_4core7default7Default7default
FNDA:0,_RNvXsb_NtCs6Pl1wmeKPjF_10bingo_core12memory_poolsNtB5_17MemoryPoolManagerNtNtCsd2KPTObkMr_4core7default7Default7default
FNDA:0,_RNvXse_NtCs6Pl1wmeKPjF_10bingo_core12memory_poolsNtB5_33ConcurrentRuleExecutionResultPoolNtNtCsd2KPTObkMr_4core5clone5Clone5clone
FNDA:0,_RNvXsf_NtCs6Pl1wmeKPjF_10bingo_core12memory_poolsNtB5_33ConcurrentRuleExecutionResultPoolNtNtCsd2KPTObkMr_4core7default7Default7default
FNDA:0,_RNvXsh_NtCs6Pl1wmeKPjF_10bingo_core12memory_poolsNtB5_23ConcurrentRuleIdVecPoolNtNtCsd2KPTObkMr_4core5clone5Clone5clone
FNDA:0,_RNvXsi_NtCs6Pl1wmeKPjF_10bingo_core12memory_poolsNtB5_23ConcurrentRuleIdVecPoolNtNtCsd2KPTObkMr_4core7default7Default7default
FNDA:0,_RNvXsk_NtCs6Pl1wmeKPjF_10bingo_core12memory_poolsNtB5_27ConcurrentMemoryPoolManagerNtNtCsd2KPTObkMr_4core5clone5Clone5clone
FNDA:0,_RNvXsl_NtCs6Pl1wmeKPjF_10bingo_core12memory_poolsNtB5_27ConcurrentMemoryPoolManagerNtNtCsd2KPTObkMr_4core7default7Default7default
FNDA:0,_RNvXso_NtCs6Pl1wmeKPjF_10bingo_core12memory_poolsNtB5_16ConditionVecPoolNtNtCsd2KPTObkMr_4core7default7Default7default
FNDA:0,_RNvXsq_NtCs6Pl1wmeKPjF_10bingo_core12memory_poolsNtB5_26StringFactValueHashMapPoolNtNtCsd2KPTObkMr_4core7default7Default7default
FNDA:0,_RNCNvMNtCs6Pl1wmeKPjF_10bingo_core12memory_poolsNtB4_23RuleExecutionResultPool5stats0B6_
FNDA:0,_RNCNvMs0_NtCs6Pl1wmeKPjF_10bingo_core12memory_poolsNtB7_13RuleIdVecPool5stats0B9_
FNDA:0,_RNCNvMs2_NtCs6Pl1wmeKPjF_10bingo_core12memory_poolsNtB7_13FactIdVecPool5stats0B9_
FNDA:0,_RNCNvMs4_NtCs6Pl1wmeKPjF_10bingo_core12memory_poolsNtB7_16FactFieldMapPool5stats0B9_
FNDA:0,_RNCNvMs6_NtCs6Pl1wmeKPjF_10bingo_core12memory_poolsNtB7_14NumericVecPool5stats0B9_
FNDA:0,_RNCNvMs8_NtCs6Pl1wmeKPjF_10bingo_core12memory_poolsNtB7_12TokenVecPool5stats0B9_
FNDA:0,_RNCNvMsd_NtCs6Pl1wmeKPjF_10bingo_core12memory_poolsNtB7_33ConcurrentRuleExecutionResultPool5stats0B9_
FNDA:0,_RNCNvMsg_NtCs6Pl1wmeKPjF_10bingo_core12memory_poolsNtB7_23ConcurrentRuleIdVecPool5stats0B9_
FNDA:0,_RNCNvMsn_NtCs6Pl1wmeKPjF_10bingo_core12memory_poolsNtB7_16ConditionVecPool5stats0B9_
FNDA:0,_RNCNvMsp_NtCs6Pl1wmeKPjF_10bingo_core12memory_poolsNtB7_26StringFactValueHashMapPool5stats0B9_
FNDA:0,_RNCNvMsd_NtCscF0MZJB4Qop_10bingo_core12memory_poolsNtB7_33ConcurrentRuleExecutionResultPool5stats0B9_
FNDA:0,_RNCNvMsg_NtCscF0MZJB4Qop_10bingo_core12memory_poolsNtB7_23ConcurrentRuleIdVecPool5stats0B9_
FNDA:0,_RNCNvMsn_NtCscF0MZJB4Qop_10bingo_core12memory_poolsNtB7_16ConditionVecPool5stats0B9_
FNDA:0,_RNCNvMsp_NtCscF0MZJB4Qop_10bingo_core12memory_poolsNtB7_26StringFactValueHashMapPool5stats0B9_
FNDA:0,_RNvMs2_NtCscF0MZJB4Qop_10bingo_core12memory_poolsNtB5_13FactIdVecPool10return_vec
FNDA:0,_RNvMs4_NtCscF0MZJB4Qop_10bingo_core12memory_poolsNtB5_16FactFieldMapPool10return_map
FNDA:0,_RNvMsc_NtCscF0MZJB4Qop_10bingo_core12memory_poolsNtB5_15MemoryPoolStats22total_pool_utilization
FNDA:0,_RNvMsd_NtCscF0MZJB4Qop_10bingo_core12memory_poolsNtB5_33ConcurrentRuleExecutionResultPool10return_vec
FNDA:0,_RNvMsd_NtCscF0MZJB4Qop_10bingo_core12memory_poolsNtB5_33ConcurrentRuleExecutionResultPool13with_capacity
FNDA:0,_RNvMsd_NtCscF0MZJB4Qop_10bingo_core12memory_poolsNtB5_33ConcurrentRuleExecutionResultPool3get
FNDA:0,_RNvMsd_NtCscF0MZJB4Qop_10bingo_core12memory_poolsNtB5_33ConcurrentRuleExecutionResultPool3new
FNDA:0,_RNvMsd_NtCscF0MZJB4Qop_10bingo_core12memory_poolsNtB5_33ConcurrentRuleExecutionResultPool5stats
FNDA:0,_RNvMsd_NtCscF0MZJB4Qop_10bingo_core12memory_poolsNtB5_33ConcurrentRuleExecutionResultPool8hit_rate
FNDA:0,_RNvMsg_NtCscF0MZJB4Qop_10bingo_core12memory_poolsNtB5_23ConcurrentRuleIdVecPool10return_vec
FNDA:0,_RNvMsg_NtCscF0MZJB4Qop_10bingo_core12memory_poolsNtB5_23ConcurrentRuleIdVecPool13with_capacity
FNDA:0,_RNvMsg_NtCscF0MZJB4Qop_10bingo_core12memory_poolsNtB5_23ConcurrentRuleIdVecPool3get
FNDA:0,_RNvMsg_NtCscF0MZJB4Qop_10bingo_core12memory_poolsNtB5_23ConcurrentRuleIdVecPool3new
FNDA:0,_RNvMsg_NtCscF0MZJB4Qop_10bingo_core12memory_poolsNtB5_23ConcurrentRuleIdVecPool5stats
FNDA:0,_RNvMsg_NtCscF0MZJB4Qop_10bingo_core12memory_poolsNtB5_23ConcurrentRuleIdVecPool8hit_rate
FNDA:0,_RNvMsj_NtCscF0MZJB4Qop_10bingo_core12memory_poolsNtB5_27ConcurrentMemoryPoolManager10is_enabled
FNDA:0,_RNvMsj_NtCscF0MZJB4Qop_10bingo_core12memory_poolsNtB5_27ConcurrentMemoryPoolManager11set_enabled
FNDA:0,_RNvMsj_NtCscF0MZJB4Qop_10bingo_core12memory_poolsNtB5_27ConcurrentMemoryPoolManager16total_efficiency
FNDA:0,_RNvMsj_NtCscF0MZJB4Qop_10bingo_core12memory_poolsNtB5_27ConcurrentMemoryPoolManager20get_concurrent_stats
FNDA:0,_RNvMsj_NtCscF0MZJB4Qop_10bingo_core12memory_poolsNtB5_27ConcurrentMemoryPoolManager27with_high_throughput_config
FNDA:0,_RNvMsj_NtCscF0MZJB4Qop_10bingo_core12memory_poolsNtB5_27ConcurrentMemoryPoolManager3new
FNDA:0,_RNvMsm_NtCscF0MZJB4Qop_10bingo_core12memory_poolsNtB5_25ConcurrentMemoryPoolStats16average_hit_rate
FNDA:0,_RNvMsm_NtCscF0MZJB4Qop_10bingo_core12memory_poolsNtB5_25ConcurrentMemoryPoolStats22total_pool_utilization
FNDA:0,_RNvMsm_NtCscF0MZJB4Qop_10bingo_core12memory_poolsNtB5_25ConcurrentMemoryPoolStats28estimated_memory_saved_bytes
FNDA:0,_RNvMsn_NtCscF0MZJB4Qop_10bingo_core12memory_poolsNtB5_16ConditionVecPool10return_vec
FNDA:0,_RNvMsn_NtCscF0MZJB4Qop_10bingo_core12memory_poolsNtB5_16ConditionVecPool3get
FNDA:0,_RNvMsn_NtCscF0MZJB4Qop_10bingo_core12memory_poolsNtB5_16ConditionVecPool5stats
FNDA:0,_RNvMsn_NtCscF0MZJB4Qop_10bingo_core12memory_poolsNtB5_16ConditionVecPool8hit_rate
FNDA:0,_RNvMsp_NtCscF0MZJB4Qop_10bingo_core12memory_poolsNtB5_26StringFactValueHashMapPool10return_map
FNDA:0,_RNvMsp_NtCscF0MZJB4Qop_10bingo_core12memory_poolsNtB5_26StringFactValueHashMapPool3get
FNDA:0,_RNvMsp_NtCscF0MZJB4Qop_10bingo_core12memory_poolsNtB5_26StringFactValueHashMapPool5stats
FNDA:0,_RNvMsp_NtCscF0MZJB4Qop_10bingo_core12memory_poolsNtB5_26StringFactValueHashMapPool8hit_rate
FNDA:0,_RNvXs1_NtCscF0MZJB4Qop_10bingo_core12memory_poolsNtB5_13RuleIdVecPoolNtNtCsd2KPTObkMr_4core7default7Default7default
FNDA:0,_RNvXs3_NtCscF0MZJB4Qop_10bingo_core12memory_poolsNtB5_13FactIdVecPoolNtNtCsd2KPTObkMr_4core7default7Default7default
FNDA:0,_RNvXs5_NtCscF0MZJB4Qop_10bingo_core12memory_poolsNtB5_16FactFieldMapPoolNtNtCsd2KPTObkMr_4core7default7Default7default
FNDA:0,_RNvXs7_NtCscF0MZJB4Qop_10bingo_core12memory_poolsNtB5_14NumericVecPoolNtNtCsd2KPTObkMr_4core7default7Default7default
FNDA:0,_RNvXs9_NtCscF0MZJB4Qop_10bingo_core12memory_poolsNtB5_12TokenVecPoolNtNtCsd2KPTObkMr_4core7default7Default7default
FNDA:0,_RNvXs_NtCscF0MZJB4Qop_10bingo_core12memory_poolsNtB4_23RuleExecutionResultPoolNtNtCsd2KPTObkMr_4core7default7Default7default
FNDA:0,_RNvXsb_NtCscF0MZJB4Qop_10bingo_core12memory_poolsNtB5_17MemoryPoolManagerNtNtCsd2KPTObkMr_4core7default7Default7default
FNDA:0,_RNvXse_NtCscF0MZJB4Qop_10bingo_core12memory_poolsNtB5_33ConcurrentRuleExecutionResultPoolNtNtCsd2KPTObkMr_4core5clone5Clone5clone
FNDA:0,_RNvXsf_NtCscF0MZJB4Qop_10bingo_core12memory_poolsNtB5_33ConcurrentRuleExecutionResultPoolNtNtCsd2KPTObkMr_4core7default7Default7default
FNDA:0,_RNvXsh_NtCscF0MZJB4Qop_10bingo_core12memory_poolsNtB5_23ConcurrentRuleIdVecPoolNtNtCsd2KPTObkMr_4core5clone5Clone5clone
FNDA:0,_RNvXsi_NtCscF0MZJB4Qop_10bingo_core12memory_poolsNtB5_23ConcurrentRuleIdVecPoolNtNtCsd2KPTObkMr_4core7default7Default7default
FNDA:0,_RNvXsk_NtCscF0MZJB4Qop_10bingo_core12memory_poolsNtB5_27ConcurrentMemoryPoolManagerNtNtCsd2KPTObkMr_4core5clone5Clone5clone
FNDA:0,_RNvXsl_NtCscF0MZJB4Qop_10bingo_core12memory_poolsNtB5_27ConcurrentMemoryPoolManagerNtNtCsd2KPTObkMr_4core7default7Default7default
FNDA:0,_RNvXso_NtCscF0MZJB4Qop_10bingo_core12memory_poolsNtB5_16ConditionVecPoolNtNtCsd2KPTObkMr_4core7default7Default7default
FNDA:0,_RNvXsq_NtCscF0MZJB4Qop_10bingo_core12memory_poolsNtB5_26StringFactValueHashMapPoolNtNtCsd2KPTObkMr_4core7default7Default7default
FNDA:6,_RNCNvMNtCscF0MZJB4Qop_10bingo_core12memory_poolsNtB4_23RuleExecutionResultPool5stats0B6_
FNDA:4,_RNCNvMs0_NtCscF0MZJB4Qop_10bingo_core12memory_poolsNtB7_13RuleIdVecPool5stats0B9_
FNDA:4,_RNCNvMs2_NtCscF0MZJB4Qop_10bingo_core12memory_poolsNtB7_13FactIdVecPool5stats0B9_
FNDA:4,_RNCNvMs4_NtCscF0MZJB4Qop_10bingo_core12memory_poolsNtB7_16FactFieldMapPool5stats0B9_
FNDA:4,_RNCNvMs6_NtCscF0MZJB4Qop_10bingo_core12memory_poolsNtB7_14NumericVecPool5stats0B9_
FNDA:4,_RNCNvMs8_NtCscF0MZJB4Qop_10bingo_core12memory_poolsNtB7_12TokenVecPool5stats0B9_
FNDA:811,_RNvMNtCscF0MZJB4Qop_10bingo_core12memory_poolsNtB2_23RuleExecutionResultPool10return_vec
FNDA:20,_RNvMNtCscF0MZJB4Qop_10bingo_core12memory_poolsNtB2_23RuleExecutionResultPool13with_capacity
FNDA:813,_RNvMNtCscF0MZJB4Qop_10bingo_core12memory_poolsNtB2_23RuleExecutionResultPool3get
FNDA:19,_RNvMNtCscF0MZJB4Qop_10bingo_core12memory_poolsNtB2_23RuleExecutionResultPool3new
FNDA:6,_RNvMNtCscF0MZJB4Qop_10bingo_core12memory_poolsNtB2_23RuleExecutionResultPool5stats
FNDA:5,_RNvMNtCscF0MZJB4Qop_10bingo_core12memory_poolsNtB2_23RuleExecutionResultPool8hit_rate
FNDA:900,_RNvMs0_NtCscF0MZJB4Qop_10bingo_core12memory_poolsNtB5_13RuleIdVecPool10return_vec
FNDA:19,_RNvMs0_NtCscF0MZJB4Qop_10bingo_core12memory_poolsNtB5_13RuleIdVecPool13with_capacity
FNDA:901,_RNvMs0_NtCscF0MZJB4Qop_10bingo_core12memory_poolsNtB5_13RuleIdVecPool3get
FNDA:18,_RNvMs0_NtCscF0MZJB4Qop_10bingo_core12memory_poolsNtB5_13RuleIdVecPool3new
FNDA:4,_RNvMs0_NtCscF0MZJB4Qop_10bingo_core12memory_poolsNtB5_13RuleIdVecPool5stats
FNDA:4,_RNvMs0_NtCscF0MZJB4Qop_10bingo_core12memory_poolsNtB5_13RuleIdVecPool8hit_rate
FNDA:19,_RNvMs2_NtCscF0MZJB4Qop_10bingo_core12memory_poolsNtB5_13FactIdVecPool13with_capacity
FNDA:1,_RNvMs2_NtCscF0MZJB4Qop_10bingo_core12memory_poolsNtB5_13FactIdVecPool3get
FNDA:18,_RNvMs2_NtCscF0MZJB4Qop_10bingo_core12memory_poolsNtB5_13FactIdVecPool3new
FNDA:4,_RNvMs2_NtCscF0MZJB4Qop_10bingo_core12memory_poolsNtB5_13FactIdVecPool5stats
FNDA:4,_RNvMs2_NtCscF0MZJB4Qop_10bingo_core12memory_poolsNtB5_13FactIdVecPool8hit_rate
FNDA:19,_RNvMs4_NtCscF0MZJB4Qop_10bingo_core12memory_poolsNtB5_16FactFieldMapPool13with_capacity
FNDA:1,_RNvMs4_NtCscF0MZJB4Qop_10bingo_core12memory_poolsNtB5_16FactFieldMapPool3get
FNDA:18,_RNvMs4_NtCscF0MZJB4Qop_10bingo_core12memory_poolsNtB5_16FactFieldMapPool3new
FNDA:4,_RNvMs4_NtCscF0MZJB4Qop_10bingo_core12memory_poolsNtB5_16FactFieldMapPool5stats
FNDA:4,_RNvMs4_NtCscF0MZJB4Qop_10bingo_core12memory_poolsNtB5_16FactFieldMapPool8hit_rate
FNDA:1,_RNvMs6_NtCscF0MZJB4Qop_10bingo_core12memory_poolsNtB5_14NumericVecPool10return_vec
FNDA:19,_RNvMs6_NtCscF0MZJB4Qop_10bingo_core12memory_poolsNtB5_14NumericVecPool13with_capacity
FNDA:2,_RNvMs6_NtCscF0MZJB4Qop_10bingo_core12memory_poolsNtB5_14NumericVecPool3get
FNDA:18,_RNvMs6_NtCscF0MZJB4Qop_10bingo_core12memory_poolsNtB5_14NumericVecPool3new
FNDA:4,_RNvMs6_NtCscF0MZJB4Qop_10bingo_core12memory_poolsNtB5_14NumericVecPool5stats
FNDA:4,_RNvMs6_NtCscF0MZJB4Qop_10bingo_core12memory_poolsNtB5_14NumericVecPool8hit_rate
FNDA:0,_RNvMs8_NtCscF0MZJB4Qop_10bingo_core12memory_poolsNtB5_12TokenVecPool10return_vec
FNDA:19,_RNvMs8_NtCscF0MZJB4Qop_10bingo_core12memory_poolsNtB5_12TokenVecPool13with_capacity
FNDA:1,_RNvMs8_NtCscF0MZJB4Qop_10bingo_core12memory_poolsNtB5_12TokenVecPool3get
FNDA:18,_RNvMs8_NtCscF0MZJB4Qop_10bingo_core12memory_poolsNtB5_12TokenVecPool3new
FNDA:4,_RNvMs8_NtCscF0MZJB4Qop_10bingo_core12memory_poolsNtB5_12TokenVecPool5stats
FNDA:4,_RNvMs8_NtCscF0MZJB4Qop_10bingo_core12memory_poolsNtB5_12TokenVecPool8hit_rate
FNDA:1,_RNvMsa_NtCscF0MZJB4Qop_10bingo_core12memory_poolsNtB5_17MemoryPoolManager18overall_efficiency
FNDA:4,_RNvMsa_NtCscF0MZJB4Qop_10bingo_core12memory_poolsNtB5_17MemoryPoolManager23get_comprehensive_stats
FNDA:1,_RNvMsa_NtCscF0MZJB4Qop_10bingo_core12memory_poolsNtB5_17MemoryPoolManager27with_high_throughput_config
FNDA:18,_RNvMsa_NtCscF0MZJB4Qop_10bingo_core12memory_poolsNtB5_17MemoryPoolManager3new
FNDA:1,_RNvMsc_NtCscF0MZJB4Qop_10bingo_core12memory_poolsNtB5_15MemoryPoolStats28estimated_memory_saved_bytes
FNDA:19,_RNvMsn_NtCscF0MZJB4Qop_10bingo_core12memory_poolsNtB5_16ConditionVecPool13with_capacity
FNDA:18,_RNvMsn_NtCscF0MZJB4Qop_10bingo_core12memory_poolsNtB5_16ConditionVecPool3new
FNDA:19,_RNvMsp_NtCscF0MZJB4Qop_10bingo_core12memory_poolsNtB5_26StringFactValueHashMapPool13with_capacity
FNDA:18,_RNvMsp_NtCscF0MZJB4Qop_10bingo_core12memory_poolsNtB5_26StringFactValueHashMapPool3new
FNDA:1,_RNvNtNtCscF0MZJB4Qop_10bingo_core12memory_pools5testss_24test_memory_pool_manager
FNDA:1,_RNvNtNtCscF0MZJB4Qop_10bingo_core12memory_pools5testss_27test_high_throughput_config
FNDA:1,_RNvNtNtCscF0MZJB4Qop_10bingo_core12memory_pools5testss_30test_memory_savings_estimation
FNDA:1,_RNvNtNtCscF0MZJB4Qop_10bingo_core12memory_pools5testss_31test_rule_execution_result_pool
FNF:104
FNH:52
DA:24,19
DA:25,19
DA:26,19
DA:28,20
DA:29,20
DA:30,20
DA:31,20
DA:32,20
DA:33,20
DA:34,20
DA:35,20
DA:38,813
DA:39,813
DA:40,813
DA:41,807
DA:42,807
DA:43,807
DA:45,6
DA:46,6
DA:50,0
DA:51,0
DA:53,813
DA:56,811
DA:57,811
DA:58,811
DA:59,811
DA:60,811
DA:61,0
DA:63,811
DA:66,6
DA:67,6
DA:68,6
DA:69,6
DA:70,6
DA:71,6
DA:74,5
DA:75,5
DA:76,5
DA:77,5
DA:78,4
DA:80,1
DA:82,5
DA:86,0
DA:87,0
DA:88,0
DA:101,18
DA:102,18
DA:103,18
DA:105,19
DA:106,19
DA:107,19
DA:108,19
DA:109,19
DA:110,19
DA:111,19
DA:112,19
DA:115,901
DA:116,901
DA:117,901
DA:118,896
DA:119,896
DA:120,896
DA:122,5
DA:123,5
DA:127,0
DA:128,0
DA:130,901
DA:133,900
DA:134,900
DA:135,900
DA:136,900
DA:137,900
DA:138,0
DA:140,900
DA:143,4
DA:144,4
DA:145,4
DA:146,4
DA:147,4
DA:148,4
DA:151,4
DA:152,4
DA:153,4
DA:154,4
DA:155,3
DA:157,1
DA:159,4
DA:163,0
DA:164,0
DA:165,0
DA:178,18
DA:179,18
DA:180,18
DA:182,19
DA:183,19
DA:184,19
DA:185,19
DA:186,19
DA:187,19
DA:188,19
DA:189,19
DA:192,1
DA:193,1
DA:194,1
DA:195,0
DA:196,0
DA:197,0
DA:199,1
DA:200,1
DA:204,0
DA:205,0
DA:207,1
DA:210,0
DA:211,0
DA:212,0
DA:213,0
DA:214,0
DA:215,0
DA:217,0
DA:220,4
DA:221,4
DA:222,4
DA:223,4
DA:224,4
DA:225,4
DA:228,4
DA:229,4
DA:230,4
DA:231,4
DA:232,2
DA:234,2
DA:236,4
DA:240,0
DA:241,0
DA:242,0
DA:255,18
DA:256,18
DA:257,18
DA:259,19
DA:260,19
DA:261,19
DA:262,19
DA:263,19
DA:264,19
DA:265,19
DA:266,19
DA:269,1
DA:270,1
DA:271,1
DA:272,0
DA:273,0
DA:274,0
DA:276,1
DA:277,1
DA:281,0
DA:282,0
DA:284,1
DA:287,0
DA:288,0
DA:289,0
DA:290,0
DA:291,0
DA:292,0
DA:294,0
DA:297,4
DA:298,4
DA:299,4
DA:300,4
DA:301,4
DA:302,4
DA:305,4
DA:306,4
DA:307,4
DA:308,4
DA:309,2
DA:311,2
DA:313,4
DA:317,0
DA:318,0
DA:319,0
DA:332,18
DA:333,18
DA:334,18
DA:336,19
DA:337,19
DA:338,19
DA:339,19
DA:340,19
DA:341,19
DA:342,19
DA:343,19
DA:346,2
DA:347,2
DA:348,2
DA:349,0
DA:350,0
DA:351,0
DA:353,2
DA:354,2
DA:358,0
DA:359,0
DA:361,2
DA:364,1
DA:365,1
DA:366,1
DA:367,1
DA:368,1
DA:369,0
DA:371,1
DA:374,4
DA:375,4
DA:376,4
DA:377,4
DA:378,4
DA:379,4
DA:382,4
DA:383,4
DA:384,4
DA:385,4
DA:386,2
DA:388,2
DA:390,4
DA:394,0
DA:395,0
DA:396,0
DA:409,18
DA:410,18
DA:411,18
DA:413,19
DA:414,19
DA:415,19
DA:416,19
DA:417,19
DA:418,19
DA:419,19
DA:420,19
DA:423,1
DA:424,1
DA:425,1
DA:426,0
DA:427,0
DA:428,0
DA:430,1
DA:431,1
DA:435,0
DA:436,0
DA:438,1
DA:441,0
DA:442,0
DA:443,0
DA:444,0
DA:445,0
DA:446,0
DA:448,0
DA:451,4
DA:452,4
DA:453,4
DA:454,4
DA:455,4
DA:456,4
DA:459,4
DA:460,4
DA:461,4
DA:462,4
DA:463,2
DA:465,2
DA:467,4
DA:471,0
DA:472,0
DA:473,0
DA:491,18
DA:492,18
DA:493,18
DA:494,18
DA:495,18
DA:496,18
DA:497,18
DA:498,18
DA:499,18
DA:500,18
DA:501,18
DA:502,18
DA:505,1
DA:506,1
DA:507,1
DA:508,1
DA:509,1
DA:510,1
DA:511,1
DA:512,1
DA:513,1
DA:514,1
DA:515,1
DA:516,1
DA:519,4
DA:520,4
DA:521,4
DA:522,4
DA:523,4
DA:524,4
DA:525,4
DA:527,4
DA:528,4
DA:529,4
DA:530,4
DA:531,4
DA:532,4
DA:533,4
DA:534,4
DA:535,4
DA:536,4
DA:537,4
DA:538,4
DA:539,4
DA:540,4
DA:541,4
DA:542,4
DA:543,4
DA:544,4
DA:545,4
DA:546,4
DA:547,4
DA:548,4
DA:549,4
DA:550,4
DA:551,4
DA:552,4
DA:553,4
DA:554,4
DA:555,4
DA:556,4
DA:557,4
DA:558,4
DA:559,4
DA:560,4
DA:561,4
DA:562,4
DA:563,4
DA:564,4
DA:565,4
DA:568,1
DA:569,1
DA:570,1
DA:571,1
DA:572,1
DA:573,1
DA:574,1
DA:575,1
DA:577,1
DA:578,1
DA:579,1
DA:580,1
DA:581,1
DA:582,1
DA:583,1
DA:585,1
DA:586,1
DA:588,0
DA:590,1
DA:594,0
DA:595,0
DA:596,0
DA:621,1
DA:623,1
DA:624,1
DA:625,1
DA:626,1
DA:627,1
DA:628,1
DA:630,1
DA:631,1
DA:634,0
DA:635,0
DA:636,0
DA:637,0
DA:638,0
DA:639,0
DA:640,0
DA:641,0
DA:643,0
DA:644,0
DA:662,0
DA:663,0
DA:664,0
DA:666,0
DA:667,0
DA:668,0
DA:669,0
DA:670,0
DA:671,0
DA:672,0
DA:673,0
DA:676,0
DA:677,0
DA:678,0
DA:679,0
DA:680,0
DA:681,0
DA:682,0
DA:683,0
DA:684,0
DA:685,0
DA:686,0
DA:689,0
DA:690,0
DA:691,0
DA:692,0
DA:693,0
DA:694,0
DA:695,0
DA:698,0
DA:699,0
DA:700,0
DA:701,0
DA:702,0
DA:703,0
DA:704,0
DA:705,0
DA:708,0
DA:709,0
DA:710,0
DA:711,0
DA:712,0
DA:713,0
DA:715,0
DA:717,0
DA:721,0
DA:722,0
DA:723,0
DA:724,0
DA:725,0
DA:726,0
DA:727,0
DA:728,0
DA:732,0
DA:733,0
DA:734,0
DA:747,0
DA:748,0
DA:749,0
DA:751,0
DA:752,0
DA:753,0
DA:754,0
DA:755,0
DA:756,0
DA:757,0
DA:758,0
DA:761,0
DA:762,0
DA:763,0
DA:764,0
DA:765,0
DA:766,0
DA:767,0
DA:768,0
DA:769,0
DA:770,0
DA:771,0
DA:774,0
DA:775,0
DA:776,0
DA:777,0
DA:778,0
DA:779,0
DA:780,0
DA:783,0
DA:784,0
DA:785,0
DA:786,0
DA:787,0
DA:788,0
DA:789,0
DA:790,0
DA:793,0
DA:794,0
DA:795,0
DA:796,0
DA:797,0
DA:798,0
DA:800,0
DA:802,0
DA:806,0
DA:807,0
DA:808,0
DA:809,0
DA:810,0
DA:811,0
DA:812,0
DA:813,0
DA:817,0
DA:818,0
DA:819,0
DA:832,0
DA:833,0
DA:834,0
DA:835,0
DA:836,0
DA:837,0
DA:838,0
DA:841,0
DA:842,0
DA:843,0
DA:844,0
DA:845,0
DA:846,0
DA:847,0
DA:850,0
DA:851,0
DA:852,0
DA:855,0
DA:856,0
DA:857,0
DA:860,0
DA:861,0
DA:862,0
DA:864,0
DA:865,0
DA:866,0
DA:867,0
DA:868,0
DA:869,0
DA:870,0
DA:871,0
DA:872,0
DA:873,0
DA:874,0
DA:875,0
DA:876,0
DA:877,0
DA:878,0
DA:879,0
DA:882,0
DA:883,0
DA:884,0
DA:885,0
DA:886,0
DA:888,0
DA:889,0
DA:891,0
DA:893,0
DA:897,0
DA:898,0
DA:899,0
DA:900,0
DA:901,0
DA:902,0
DA:903,0
DA:907,0
DA:908,0
DA:909,0
DA:931,0
DA:932,0
DA:933,0
DA:934,0
DA:935,0
DA:938,0
DA:939,0
DA:940,0
DA:943,0
DA:944,0
DA:945,0
DA:946,0
DA:947,0
DA:948,0
DA:956,1
DA:957,1
DA:960,1
DA:961,1
DA:964,1
DA:967,1
DA:968,1
DA:970,1
DA:971,1
DA:972,1
DA:973,1
DA:975,1
DA:976,1
DA:979,1
DA:980,1
DA:983,1
DA:984,1
DA:985,1
DA:986,1
DA:987,1
DA:988,1
DA:990,1
DA:993,1
DA:994,1
DA:995,1
DA:996,1
DA:997,1
DA:998,1
DA:1001,1
DA:1002,1
DA:1005,1
DA:1006,1
DA:1009,101
DA:1010,100
DA:1011,100
DA:1012,100
DA:1014,1
DA:1015,1
DA:1016,1
DA:1019,1
DA:1020,1
DA:1023,11
DA:1024,10
DA:1025,10
DA:1026,10
DA:1028,1
DA:1029,1
DA:1032,1
DA:1033,1
DA:1046,18
DA:1047,18
DA:1048,18
DA:1050,19
DA:1051,19
DA:1052,19
DA:1053,19
DA:1054,19
DA:1055,19
DA:1056,19
DA:1057,19
DA:1059,0
DA:1060,0
DA:1061,0
DA:1062,0
DA:1063,0
DA:1064,0
DA:1066,0
DA:1067,0
DA:1070,0
DA:1071,0
DA:1073,0
DA:1075,0
DA:1076,0
DA:1077,0
DA:1078,0
DA:1079,0
DA:1080,0
DA:1081,0
DA:1083,0
DA:1084,0
DA:1085,0
DA:1086,0
DA:1087,0
DA:1088,0
DA:1090,0
DA:1091,0
DA:1092,0
DA:1093,0
DA:1094,0
DA:1096,0
DA:1098,0
DA:1102,0
DA:1103,0
DA:1104,0
DA:1117,18
DA:1118,18
DA:1119,18
DA:1121,19
DA:1122,19
DA:1123,19
DA:1124,19
DA:1125,19
DA:1126,19
DA:1127,19
DA:1128,19
DA:1130,0
DA:1131,0
DA:1132,0
DA:1133,0
DA:1134,0
DA:1135,0
DA:1137,0
DA:1138,0
DA:1141,0
DA:1142,0
DA:1144,0
DA:1146,0
DA:1147,0
DA:1148,0
DA:1149,0
DA:1150,0
DA:1151,0
DA:1152,0
DA:1154,0
DA:1155,0
DA:1156,0
DA:1157,0
DA:1158,0
DA:1159,0
DA:1161,0
DA:1162,0
DA:1163,0
DA:1164,0
DA:1165,0
DA:1167,0
DA:1169,0
DA:1173,0
DA:1174,0
DA:1175,0
BRF:0
BRH:0
LF:714
LH:378
end_of_record
SF:/Users/hl/Projects/private/bingo/crates/bingo-core/src/pipeline.rs
FN:249,_RNvMNtCs6Pl1wmeKPjF_10bingo_core8pipelineNtB2_20PipelineOrchestrator11get_context
FN:127,_RNvMNtCs6Pl1wmeKPjF_10bingo_core8pipelineNtB2_20PipelineOrchestrator13execute_stage
FN:50,_RNvMNtCs6Pl1wmeKPjF_10bingo_core8pipelineNtB2_20PipelineOrchestrator16execute_pipeline
FN:259,_RNvMNtCs6Pl1wmeKPjF_10bingo_core8pipelineNtB2_20PipelineOrchestrator16get_engine_stats
FN:254,_RNvMNtCs6Pl1wmeKPjF_10bingo_core8pipelineNtB2_20PipelineOrchestrator19set_global_variable
FN:199,_RNvMNtCs6Pl1wmeKPjF_10bingo_core8pipelineNtB2_20PipelineOrchestrator26resolve_stage_dependencies
FN:28,_RNvMNtCs6Pl1wmeKPjF_10bingo_core8pipelineNtB2_20PipelineOrchestrator3new
FN:160,_RNCNvMNtCs6Pl1wmeKPjF_10bingo_core8pipelineNtB4_20PipelineOrchestrator13execute_stage0B6_
FN:77,_RNCNvMNtCs6Pl1wmeKPjF_10bingo_core8pipelineNtB4_20PipelineOrchestrator16execute_pipeline0B6_
FN:91,_RNCNvMNtCs6Pl1wmeKPjF_10bingo_core8pipelineNtB4_20PipelineOrchestrator16execute_pipelines_0B6_
FN:214,_RNCNvMNtCs6Pl1wmeKPjF_10bingo_core8pipelineNtB4_20PipelineOrchestrator26resolve_stage_dependencies0B6_
FN:160,_RNCNvMNtCscF0MZJB4Qop_10bingo_core8pipelineNtB4_20PipelineOrchestrator13execute_stage0B6_
FN:77,_RNCNvMNtCscF0MZJB4Qop_10bingo_core8pipelineNtB4_20PipelineOrchestrator16execute_pipeline0B6_
FN:91,_RNCNvMNtCscF0MZJB4Qop_10bingo_core8pipelineNtB4_20PipelineOrchestrator16execute_pipelines_0B6_
FN:214,_RNCNvMNtCscF0MZJB4Qop_10bingo_core8pipelineNtB4_20PipelineOrchestrator26resolve_stage_dependencies0B6_
FN:249,_RNvMNtCscF0MZJB4Qop_10bingo_core8pipelineNtB2_20PipelineOrchestrator11get_context
FN:127,_RNvMNtCscF0MZJB4Qop_10bingo_core8pipelineNtB2_20PipelineOrchestrator13execute_stage
FN:50,_RNvMNtCscF0MZJB4Qop_10bingo_core8pipelineNtB2_20PipelineOrchestrator16execute_pipeline
FN:259,_RNvMNtCscF0MZJB4Qop_10bingo_core8pipelineNtB2_20PipelineOrchestrator16get_engine_stats
FN:254,_RNvMNtCscF0MZJB4Qop_10bingo_core8pipelineNtB2_20PipelineOrchestrator19set_global_variable
FN:199,_RNvMNtCscF0MZJB4Qop_10bingo_core8pipelineNtB2_20PipelineOrchestrator26resolve_stage_dependencies
FN:28,_RNvMNtCscF0MZJB4Qop_10bingo_core8pipelineNtB2_20PipelineOrchestrator3new
FNDA:0,_RNvMNtCs6Pl1wmeKPjF_10bingo_core8pipelineNtB2_20PipelineOrchestrator11get_context
FNDA:0,_RNvMNtCs6Pl1wmeKPjF_10bingo_core8pipelineNtB2_20PipelineOrchestrator13execute_stage
FNDA:0,_RNvMNtCs6Pl1wmeKPjF_10bingo_core8pipelineNtB2_20PipelineOrchestrator16execute_pipeline
FNDA:0,_RNvMNtCs6Pl1wmeKPjF_10bingo_core8pipelineNtB2_20PipelineOrchestrator16get_engine_stats
FNDA:0,_RNvMNtCs6Pl1wmeKPjF_10bingo_core8pipelineNtB2_20PipelineOrchestrator19set_global_variable
FNDA:0,_RNvMNtCs6Pl1wmeKPjF_10bingo_core8pipelineNtB2_20PipelineOrchestrator26resolve_stage_dependencies
FNDA:0,_RNvMNtCs6Pl1wmeKPjF_10bingo_core8pipelineNtB2_20PipelineOrchestrator3new
FNDA:0,_RNCNvMNtCs6Pl1wmeKPjF_10bingo_core8pipelineNtB4_20PipelineOrchestrator13execute_stage0B6_
FNDA:0,_RNCNvMNtCs6Pl1wmeKPjF_10bingo_core8pipelineNtB4_20PipelineOrchestrator16execute_pipeline0B6_
FNDA:0,_RNCNvMNtCs6Pl1wmeKPjF_10bingo_core8pipelineNtB4_20PipelineOrchestrator16execute_pipelines_0B6_
FNDA:0,_RNCNvMNtCs6Pl1wmeKPjF_10bingo_core8pipelineNtB4_20PipelineOrchestrator26resolve_stage_dependencies0B6_
FNDA:0,_RNCNvMNtCscF0MZJB4Qop_10bingo_core8pipelineNtB4_20PipelineOrchestrator13execute_stage0B6_
FNDA:0,_RNCNvMNtCscF0MZJB4Qop_10bingo_core8pipelineNtB4_20PipelineOrchestrator16execute_pipeline0B6_
FNDA:0,_RNCNvMNtCscF0MZJB4Qop_10bingo_core8pipelineNtB4_20PipelineOrchestrator16execute_pipelines_0B6_
FNDA:0,_RNCNvMNtCscF0MZJB4Qop_10bingo_core8pipelineNtB4_20PipelineOrchestrator26resolve_stage_dependencies0B6_
FNDA:0,_RNvMNtCscF0MZJB4Qop_10bingo_core8pipelineNtB2_20PipelineOrchestrator11get_context
FNDA:0,_RNvMNtCscF0MZJB4Qop_10bingo_core8pipelineNtB2_20PipelineOrchestrator13execute_stage
FNDA:0,_RNvMNtCscF0MZJB4Qop_10bingo_core8pipelineNtB2_20PipelineOrchestrator16execute_pipeline
FNDA:0,_RNvMNtCscF0MZJB4Qop_10bingo_core8pipelineNtB2_20PipelineOrchestrator16get_engine_stats
FNDA:0,_RNvMNtCscF0MZJB4Qop_10bingo_core8pipelineNtB2_20PipelineOrchestrator19set_global_variable
FNDA:0,_RNvMNtCscF0MZJB4Qop_10bingo_core8pipelineNtB2_20PipelineOrchestrator26resolve_stage_dependencies
FNDA:0,_RNvMNtCscF0MZJB4Qop_10bingo_core8pipelineNtB2_20PipelineOrchestrator3new
FNF:11
FNH:0
DA:28,0
DA:29,0
DA:30,0
DA:31,0
DA:34,0
DA:35,0
DA:36,0
DA:37,0
DA:38,0
DA:39,0
DA:40,0
DA:41,0
DA:42,0
DA:43,0
DA:45,0
DA:46,0
DA:50,0
DA:51,0
DA:52,0
DA:53,0
DA:54,0
DA:55,0
DA:57,0
DA:58,0
DA:59,0
DA:63,0
DA:66,0
DA:67,0
DA:68,0
DA:71,0
DA:73,0
DA:74,0
DA:75,0
DA:76,0
DA:77,0
DA:78,0
DA:80,0
DA:83,0
DA:86,0
DA:90,0
DA:91,0
DA:93,0
DA:94,0
DA:95,0
DA:96,0
DA:97,0
DA:100,0
DA:103,0
DA:106,0
DA:107,0
DA:108,0
DA:109,0
DA:110,0
DA:111,0
DA:112,0
DA:113,0
DA:115,0
DA:119,0
DA:122,0
DA:123,0
DA:127,0
DA:128,0
DA:129,0
DA:130,0
DA:131,0
DA:132,0
DA:134,0
DA:137,0
DA:138,0
DA:139,0
DA:143,0
DA:146,0
DA:147,0
DA:151,0
DA:154,0
DA:155,0
DA:158,0
DA:159,0
DA:160,0
DA:162,0
DA:163,0
DA:164,0
DA:165,0
DA:166,0
DA:167,0
DA:171,0
DA:173,0
DA:175,0
DA:176,0
DA:177,0
DA:178,0
DA:179,0
DA:180,0
DA:181,0
DA:182,0
DA:183,0
DA:184,0
DA:185,0
DA:187,0
DA:192,0
DA:195,0
DA:196,0
DA:199,0
DA:200,0
DA:201,0
DA:202,0
DA:205,0
DA:206,0
DA:207,0
DA:209,0
DA:210,0
DA:211,0
DA:214,0
DA:216,0
DA:217,0
DA:218,0
DA:219,0
DA:220,0
DA:221,0
DA:222,0
DA:225,0
DA:227,0
DA:228,0
DA:230,0
DA:232,0
DA:233,0
DA:234,0
DA:235,0
DA:236,0
DA:239,0
DA:240,0
DA:241,0
DA:242,0
DA:243,0
DA:245,0
DA:246,0
DA:249,0
DA:250,0
DA:251,0
DA:254,0
DA:255,0
DA:256,0
DA:259,0
DA:260,0
DA:261,0
BRF:0
BRH:0
LF:149
LH:0
end_of_record
SF:/Users/hl/Projects/private/bingo/crates/bingo-core/src/production_readiness.rs
FN:799,_RNvMs0_NtCs6Pl1wmeKPjF_10bingo_core20production_readinessNtB5_13CheckSeverity7display
FN:811,_RNvMs1_NtCs6Pl1wmeKPjF_10bingo_core20production_readinessNtB5_11CheckResult16severity_display
FN:705,_RNvMs_NtCs6Pl1wmeKPjF_10bingo_core20production_readinessNtB4_28ProductionReadinessValidator15generate_report
FN:665,_RNvMs_NtCs6Pl1wmeKPjF_10bingo_core20production_readinessNtB4_28ProductionReadinessValidator17calculate_summary
FN:260,_RNvMs_NtCs6Pl1wmeKPjF_10bingo_core20production_readinessNtB4_28ProductionReadinessValidator19with_default_config
FN:764,_RNvMs_NtCs6Pl1wmeKPjF_10bingo_core20production_readinessNtB4_28ProductionReadinessValidator21add_section_to_report
FN:305,_RNvMs_NtCs6Pl1wmeKPjF_10bingo_core20production_readinessNtB4_28ProductionReadinessValidator23validate_service_config
FN:592,_RNvMs_NtCs6Pl1wmeKPjF_10bingo_core20production_readinessNtB4_28ProductionReadinessValidator24validate_resource_config
FN:451,_RNvMs_NtCs6Pl1wmeKPjF_10bingo_core20production_readinessNtB4_28ProductionReadinessValidator24validate_security_config
FN:523,_RNvMs_NtCs6Pl1wmeKPjF_10bingo_core20production_readinessNtB4_28ProductionReadinessValidator26validate_monitoring_config
FN:379,_RNvMs_NtCs6Pl1wmeKPjF_10bingo_core20production_readinessNtB4_28ProductionReadinessValidator27validate_performance_config
FN:255,_RNvMs_NtCs6Pl1wmeKPjF_10bingo_core20production_readinessNtB4_28ProductionReadinessValidator3new
FN:265,_RNvMs_NtCs6Pl1wmeKPjF_10bingo_core20production_readinessNtB4_28ProductionReadinessValidator8validate
FN:817,_RNvNtCs6Pl1wmeKPjF_10bingo_core20production_readiness20load_config_from_env
FN:876,_RNvNtCs6Pl1wmeKPjF_10bingo_core20production_readiness26check_production_readiness
FN:119,_RNvXNtCs6Pl1wmeKPjF_10bingo_core20production_readinessNtB2_16ProductionConfigNtNtCsd2KPTObkMr_4core7default7Default7default
FN:667,_RNCNvMs_NtCs6Pl1wmeKPjF_10bingo_core20production_readinessNtB6_28ProductionReadinessValidator17calculate_summary0B8_
FN:669,_RNCNvMs_NtCs6Pl1wmeKPjF_10bingo_core20production_readinessNtB6_28ProductionReadinessValidator17calculate_summarys0_0B8_
FN:670,_RNCNvMs_NtCs6Pl1wmeKPjF_10bingo_core20production_readinessNtB6_28ProductionReadinessValidator17calculate_summarys1_0B8_
FN:668,_RNCNvMs_NtCs6Pl1wmeKPjF_10bingo_core20production_readinessNtB6_28ProductionReadinessValidator17calculate_summarys_0B8_
FN:260,_RNvMs_NtCscF0MZJB4Qop_10bingo_core20production_readinessNtB4_28ProductionReadinessValidator19with_default_config
FN:817,_RNvNtCscF0MZJB4Qop_10bingo_core20production_readiness20load_config_from_env
FN:876,_RNvNtCscF0MZJB4Qop_10bingo_core20production_readiness26check_production_readiness
FN:799,_RNvMs0_NtCscF0MZJB4Qop_10bingo_core20production_readinessNtB5_13CheckSeverity7display
FN:811,_RNvMs1_NtCscF0MZJB4Qop_10bingo_core20production_readinessNtB5_11CheckResult16severity_display
FN:705,_RNvMs_NtCscF0MZJB4Qop_10bingo_core20production_readinessNtB4_28ProductionReadinessValidator15generate_report
FN:665,_RNvMs_NtCscF0MZJB4Qop_10bingo_core20production_readinessNtB4_28ProductionReadinessValidator17calculate_summary
FN:764,_RNvMs_NtCscF0MZJB4Qop_10bingo_core20production_readinessNtB4_28ProductionReadinessValidator21add_section_to_report
FN:305,_RNvMs_NtCscF0MZJB4Qop_10bingo_core20production_readinessNtB4_28ProductionReadinessValidator23validate_service_config
FN:592,_RNvMs_NtCscF0MZJB4Qop_10bingo_core20production_readinessNtB4_28ProductionReadinessValidator24validate_resource_config
FN:451,_RNvMs_NtCscF0MZJB4Qop_10bingo_core20production_readinessNtB4_28ProductionReadinessValidator24validate_security_config
FN:523,_RNvMs_NtCscF0MZJB4Qop_10bingo_core20production_readinessNtB4_28ProductionReadinessValidator26validate_monitoring_config
FN:379,_RNvMs_NtCscF0MZJB4Qop_10bingo_core20production_readinessNtB4_28ProductionReadinessValidator27validate_performance_config
FN:255,_RNvMs_NtCscF0MZJB4Qop_10bingo_core20production_readinessNtB4_28ProductionReadinessValidator3new
FN:265,_RNvMs_NtCscF0MZJB4Qop_10bingo_core20production_readinessNtB4_28ProductionReadinessValidator8validate
FN:119,_RNvXNtCscF0MZJB4Qop_10bingo_core20production_readinessNtB2_16ProductionConfigNtNtCsd2KPTObkMr_4core7default7Default7default
FN:907,_RNvNtNtCscF0MZJB4Qop_10bingo_core20production_readiness5testss_22test_report_generation
FN:896,_RNvNtNtCscF0MZJB4Qop_10bingo_core20production_readiness5testss_24test_readiness_validator
FN:887,_RNvNtNtCscF0MZJB4Qop_10bingo_core20production_readiness5testss_30test_production_config_default
FN:667,_RNCNvMs_NtCscF0MZJB4Qop_10bingo_core20production_readinessNtB6_28ProductionReadinessValidator17calculate_summary0B8_
FN:669,_RNCNvMs_NtCscF0MZJB4Qop_10bingo_core20production_readinessNtB6_28ProductionReadinessValidator17calculate_summarys0_0B8_
FN:670,_RNCNvMs_NtCscF0MZJB4Qop_10bingo_core20production_readinessNtB6_28ProductionReadinessValidator17calculate_summarys1_0B8_
FN:668,_RNCNvMs_NtCscF0MZJB4Qop_10bingo_core20production_readinessNtB6_28ProductionReadinessValidator17calculate_summarys_0B8_
FNDA:0,_RNvMs0_NtCs6Pl1wmeKPjF_10bingo_core20production_readinessNtB5_13CheckSeverity7display
FNDA:0,_RNvMs1_NtCs6Pl1wmeKPjF_10bingo_core20production_readinessNtB5_11CheckResult16severity_display
FNDA:0,_RNvMs_NtCs6Pl1wmeKPjF_10bingo_core20production_readinessNtB4_28ProductionReadinessValidator15generate_report
FNDA:0,_RNvMs_NtCs6Pl1wmeKPjF_10bingo_core20production_readinessNtB4_28ProductionReadinessValidator17calculate_summary
FNDA:0,_RNvMs_NtCs6Pl1wmeKPjF_10bingo_core20production_readinessNtB4_28ProductionReadinessValidator19with_default_config
FNDA:0,_RNvMs_NtCs6Pl1wmeKPjF_10bingo_core20production_readinessNtB4_28ProductionReadinessValidator21add_section_to_report
FNDA:0,_RNvMs_NtCs6Pl1wmeKPjF_10bingo_core20production_readinessNtB4_28ProductionReadinessValidator23validate_service_config
FNDA:0,_RNvMs_NtCs6Pl1wmeKPjF_10bingo_core20production_readinessNtB4_28ProductionReadinessValidator24validate_resource_config
FNDA:0,_RNvMs_NtCs6Pl1wmeKPjF_10bingo_core20production_readinessNtB4_28ProductionReadinessValidator24validate_security_config
FNDA:0,_RNvMs_NtCs6Pl1wmeKPjF_10bingo_core20production_readinessNtB4_28ProductionReadinessValidator26validate_monitoring_config
FNDA:0,_RNvMs_NtCs6Pl1wmeKPjF_10bingo_core20production_readinessNtB4_28ProductionReadinessValidator27validate_performance_config
FNDA:0,_RNvMs_NtCs6Pl1wmeKPjF_10bingo_core20production_readinessNtB4_28ProductionReadinessValidator3new
FNDA:0,_RNvMs_NtCs6Pl1wmeKPjF_10bingo_core20production_readinessNtB4_28ProductionReadinessValidator8validate
FNDA:0,_RNvNtCs6Pl1wmeKPjF_10bingo_core20production_readiness20load_config_from_env
FNDA:0,_RNvNtCs6Pl1wmeKPjF_10bingo_core20production_readiness26check_production_readiness
FNDA:0,_RNvXNtCs6Pl1wmeKPjF_10bingo_core20production_readinessNtB2_16ProductionConfigNtNtCsd2KPTObkMr_4core7default7Default7default
FNDA:0,_RNCNvMs_NtCs6Pl1wmeKPjF_10bingo_core20production_readinessNtB6_28ProductionReadinessValidator17calculate_summary0B8_
FNDA:0,_RNCNvMs_NtCs6Pl1wmeKPjF_10bingo_core20production_readinessNtB6_28ProductionReadinessValidator17calculate_summarys0_0B8_
FNDA:0,_RNCNvMs_NtCs6Pl1wmeKPjF_10bingo_core20production_readinessNtB6_28ProductionReadinessValidator17calculate_summarys1_0B8_
FNDA:0,_RNCNvMs_NtCs6Pl1wmeKPjF_10bingo_core20production_readinessNtB6_28ProductionReadinessValidator17calculate_summarys_0B8_
FNDA:0,_RNvMs_NtCscF0MZJB4Qop_10bingo_core20production_readinessNtB4_28ProductionReadinessValidator19with_default_config
FNDA:0,_RNvNtCscF0MZJB4Qop_10bingo_core20production_readiness20load_config_from_env
FNDA:0,_RNvNtCscF0MZJB4Qop_10bingo_core20production_readiness26check_production_readiness
FNDA:15,_RNvMs0_NtCscF0MZJB4Qop_10bingo_core20production_readinessNtB5_13CheckSeverity7display
FNDA:15,_RNvMs1_NtCscF0MZJB4Qop_10bingo_core20production_readinessNtB5_11CheckResult16severity_display
FNDA:1,_RNvMs_NtCscF0MZJB4Qop_10bingo_core20production_readinessNtB4_28ProductionReadinessValidator15generate_report
FNDA:2,_RNvMs_NtCscF0MZJB4Qop_10bingo_core20production_readinessNtB4_28ProductionReadinessValidator17calculate_summary
FNDA:5,_RNvMs_NtCscF0MZJB4Qop_10bingo_core20production_readinessNtB4_28ProductionReadinessValidator21add_section_to_report
FNDA:4,_RNvMs_NtCscF0MZJB4Qop_10bingo_core20production_readinessNtB4_28ProductionReadinessValidator23validate_service_config
FNDA:4,_RNvMs_NtCscF0MZJB4Qop_10bingo_core20production_readinessNtB4_28ProductionReadinessValidator24validate_resource_config
FNDA:4,_RNvMs_NtCscF0MZJB4Qop_10bingo_core20production_readinessNtB4_28ProductionReadinessValidator24validate_security_config
FNDA:4,_RNvMs_NtCscF0MZJB4Qop_10bingo_core20production_readinessNtB4_28ProductionReadinessValidator26validate_monitoring_config
FNDA:4,_RNvMs_NtCscF0MZJB4Qop_10bingo_core20production_readinessNtB4_28ProductionReadinessValidator27validate_performance_config
FNDA:2,_RNvMs_NtCscF0MZJB4Qop_10bingo_core20production_readinessNtB4_28ProductionReadinessValidator3new
FNDA:2,_RNvMs_NtCscF0MZJB4Qop_10bingo_core20production_readinessNtB4_28ProductionReadinessValidator8validate
FNDA:3,_RNvXNtCscF0MZJB4Qop_10bingo_core20production_readinessNtB2_16ProductionConfigNtNtCsd2KPTObkMr_4core7default7Default7default
FNDA:1,_RNvNtNtCscF0MZJB4Qop_10bingo_core20production_readiness5testss_22test_report_generation
FNDA:1,_RNvNtNtCscF0MZJB4Qop_10bingo_core20production_readiness5testss_24test_readiness_validator
FNDA:1,_RNvNtNtCscF0MZJB4Qop_10bingo_core20production_readiness5testss_30test_production_config_default
FNDA:30,_RNCNvMs_NtCscF0MZJB4Qop_10bingo_core20production_readinessNtB6_28ProductionReadinessValidator17calculate_summary0B8_
FNDA:30,_RNCNvMs_NtCscF0MZJB4Qop_10bingo_core20production_readinessNtB6_28ProductionReadinessValidator17calculate_summarys0_0B8_
FNDA:30,_RNCNvMs_NtCscF0MZJB4Qop_10bingo_core20production_readinessNtB6_28ProductionReadinessValidator17calculate_summarys1_0B8_
FNDA:30,_RNCNvMs_NtCscF0MZJB4Qop_10bingo_core20production_readinessNtB6_28ProductionReadinessValidator17calculate_summarys_0B8_
FNF:23
FNH:20
DA:119,3
DA:120,3
DA:121,3
DA:122,3
DA:123,3
DA:124,3
DA:125,3
DA:126,3
DA:127,3
DA:128,3
DA:129,3
DA:130,3
DA:131,3
DA:132,3
DA:133,3
DA:134,3
DA:135,3
DA:136,3
DA:137,3
DA:138,3
DA:139,3
DA:140,3
DA:141,3
DA:142,3
DA:143,3
DA:144,3
DA:145,3
DA:146,3
DA:147,3
DA:148,3
DA:149,3
DA:150,3
DA:151,3
DA:152,3
DA:153,3
DA:154,3
DA:155,3
DA:156,3
DA:157,3
DA:158,3
DA:159,3
DA:160,3
DA:161,3
DA:162,3
DA:163,3
DA:164,3
DA:165,3
DA:166,3
DA:255,2
DA:256,2
DA:257,2
DA:260,0
DA:261,0
DA:262,0
DA:265,2
DA:266,2
DA:268,2
DA:269,2
DA:270,2
DA:271,2
DA:272,2
DA:275,2
DA:276,2
DA:277,2
DA:278,2
DA:279,2
DA:280,2
DA:283,2
DA:284,2
DA:286,2
DA:287,2
DA:288,2
DA:289,2
DA:290,2
DA:291,2
DA:292,2
DA:293,2
DA:296,2
DA:297,0
DA:301,2
DA:302,2
DA:305,4
DA:306,4
DA:309,4
DA:310,0
DA:311,0
DA:312,0
DA:313,0
DA:314,0
DA:315,0
DA:316,0
DA:318,4
DA:319,4
DA:320,4
DA:321,4
DA:322,4
DA:323,4
DA:324,4
DA:325,4
DA:326,4
DA:327,4
DA:331,4
DA:332,4
DA:333,4
DA:334,4
DA:335,4
DA:336,4
DA:337,4
DA:338,4
DA:340,0
DA:341,0
DA:342,0
DA:343,0
DA:344,0
DA:345,0
DA:346,0
DA:347,0
DA:348,0
DA:352,4
DA:353,4
DA:354,4
DA:355,4
DA:356,4
DA:357,4
DA:358,4
DA:359,4
DA:360,4
DA:361,4
DA:362,4
DA:364,0
DA:365,0
DA:366,0
DA:367,0
DA:368,0
DA:369,0
DA:370,0
DA:371,0
DA:372,0
DA:375,4
DA:376,4
DA:379,4
DA:380,4
DA:383,4
DA:384,4
DA:385,4
DA:386,4
DA:387,4
DA:388,4
DA:389,4
DA:390,4
DA:391,4
DA:392,4
DA:393,4
DA:395,0
DA:396,0
DA:397,0
DA:398,0
DA:399,0
DA:400,0
DA:401,0
DA:402,0
DA:403,0
DA:407,4
DA:408,4
DA:409,4
DA:410,4
DA:411,4
DA:412,4
DA:413,4
DA:414,4
DA:416,0
DA:417,0
DA:418,0
DA:419,0
DA:420,0
DA:421,0
DA:422,0
DA:426,4
DA:427,4
DA:428,4
DA:429,4
DA:430,4
DA:431,4
DA:432,4
DA:433,4
DA:434,4
DA:435,4
DA:436,4
DA:438,0
DA:439,0
DA:440,0
DA:441,0
DA:442,0
DA:443,0
DA:444,0
DA:447,4
DA:448,4
DA:451,4
DA:452,4
DA:455,4
DA:456,4
DA:457,4
DA:458,4
DA:459,4
DA:460,4
DA:461,4
DA:462,4
DA:464,0
DA:465,0
DA:466,0
DA:467,0
DA:468,0
DA:469,0
DA:470,0
DA:471,0
DA:472,0
DA:473,0
DA:477,4
DA:478,4
DA:479,4
DA:480,4
DA:481,4
DA:482,4
DA:483,4
DA:484,4
DA:486,0
DA:487,0
DA:488,0
DA:489,0
DA:490,0
DA:491,0
DA:492,0
DA:493,0
DA:494,0
DA:498,4
DA:499,4
DA:500,4
DA:501,4
DA:502,4
DA:503,4
DA:504,4
DA:505,4
DA:506,4
DA:507,4
DA:508,4
DA:510,0
DA:511,0
DA:512,0
DA:513,0
DA:514,0
DA:515,0
DA:516,0
DA:519,4
DA:520,4
DA:523,4
DA:524,4
DA:527,4
DA:528,4
DA:529,4
DA:530,4
DA:531,4
DA:532,4
DA:533,4
DA:534,4
DA:535,4
DA:536,4
DA:537,4
DA:539,0
DA:540,0
DA:541,0
DA:542,0
DA:543,0
DA:544,0
DA:545,0
DA:546,0
DA:547,0
DA:551,4
DA:552,4
DA:553,4
DA:554,4
DA:555,4
DA:556,4
DA:557,4
DA:558,4
DA:560,0
DA:561,0
DA:562,0
DA:563,0
DA:564,0
DA:565,0
DA:566,0
DA:570,4
DA:571,4
DA:572,4
DA:573,4
DA:574,4
DA:575,4
DA:576,4
DA:577,4
DA:579,0
DA:580,0
DA:581,0
DA:582,0
DA:583,0
DA:584,0
DA:585,0
DA:588,4
DA:589,4
DA:592,4
DA:593,4
DA:596,4
DA:597,4
DA:598,4
DA:599,4
DA:600,4
DA:601,4
DA:602,4
DA:603,4
DA:604,4
DA:605,4
DA:606,4
DA:608,0
DA:609,0
DA:610,0
DA:611,0
DA:612,0
DA:613,0
DA:614,0
DA:615,0
DA:616,0
DA:620,4
DA:621,4
DA:622,4
DA:623,4
DA:624,4
DA:625,4
DA:626,4
DA:627,4
DA:629,0
DA:630,0
DA:631,0
DA:632,0
DA:633,0
DA:634,0
DA:635,0
DA:636,0
DA:637,0
DA:641,4
DA:642,4
DA:643,4
DA:644,4
DA:645,4
DA:646,4
DA:647,4
DA:648,4
DA:650,0
DA:651,0
DA:652,0
DA:653,0
DA:654,0
DA:655,0
DA:656,0
DA:657,0
DA:658,0
DA:661,4
DA:662,4
DA:665,2
DA:666,2
DA:667,30
DA:668,30
DA:669,30
DA:670,30
DA:673,2
DA:674,2
DA:676,32
DA:677,30
DA:678,8
DA:679,16
DA:680,6
DA:681,0
DA:684,30
DA:685,30
DA:686,0
DA:687,0
DA:688,0
DA:691,30
DA:692,30
DA:695,2
DA:696,2
DA:698,0
DA:701,2
DA:702,2
DA:705,1
DA:706,1
DA:708,1
DA:709,1
DA:710,1
DA:711,1
DA:712,1
DA:714,0
DA:717,1
DA:718,1
DA:719,1
DA:720,1
DA:723,1
DA:724,1
DA:725,1
DA:726,1
DA:727,1
DA:728,1
DA:729,1
DA:730,1
DA:731,1
DA:734,1
DA:735,1
DA:736,1
DA:737,1
DA:739,1
DA:740,1
DA:741,1
DA:742,1
DA:744,1
DA:745,1
DA:746,1
DA:747,1
DA:749,1
DA:750,1
DA:751,1
DA:752,1
DA:754,1
DA:755,1
DA:756,1
DA:757,1
DA:760,1
DA:761,1
DA:764,5
DA:765,5
DA:767,20
DA:768,15
DA:769,15
DA:770,0
DA:771,0
DA:772,0
DA:775,15
DA:776,15
DA:777,15
DA:778,15
DA:779,15
DA:780,15
DA:782,15
DA:783,15
DA:784,15
DA:786,15
DA:787,0
DA:788,0
DA:789,0
DA:790,0
DA:791,0
DA:792,15
DA:794,5
DA:799,15
DA:800,15
DA:801,4
DA:802,8
DA:803,3
DA:804,0
DA:806,15
DA:811,15
DA:812,15
DA:813,15
DA:817,0
DA:818,0
DA:821,0
DA:822,0
DA:823,0
DA:824,0
DA:825,0
DA:826,0
DA:827,0
DA:828,0
DA:829,0
DA:830,0
DA:831,0
DA:832,0
DA:835,0
DA:836,0
DA:837,0
DA:838,0
DA:839,0
DA:840,0
DA:841,0
DA:842,0
DA:843,0
DA:844,0
DA:847,0
DA:848,0
DA:849,0
DA:850,0
DA:851,0
DA:852,0
DA:853,0
DA:854,0
DA:855,0
DA:856,0
DA:857,0
DA:860,0
DA:861,0
DA:862,0
DA:863,0
DA:864,0
DA:865,0
DA:866,0
DA:867,0
DA:868,0
DA:869,0
DA:870,0
DA:872,0
DA:873,0
DA:876,0
DA:877,0
DA:878,0
DA:879,0
DA:880,0
DA:887,1
DA:888,1
DA:889,1
DA:890,1
DA:891,1
DA:892,1
DA:893,1
DA:896,1
DA:897,1
DA:898,1
DA:899,1
DA:901,1
DA:902,1
DA:903,1
DA:904,1
DA:907,1
DA:908,1
DA:909,1
DA:910,1
DA:911,1
DA:913,1
DA:914,1
DA:915,1
DA:916,1
BRF:0
BRH:0
LF:551
LH:355
end_of_record
SF:/Users/hl/Projects/private/bingo/crates/bingo-core/src/profiler.rs
FN:218,_RINvMs_NtCs6Pl1wmeKPjF_10bingo_core8profilerNtB5_14EngineProfiler14time_operationINtNtCsd2KPTObkMr_4core6result6ResultINtNtCs7fnLZwG9eJV_5alloc3vec3VecNtNtB7_10rete_nodes19RuleExecutionResultENtNtB7_5error10BingoErrorENCNvMs1_NtB7_6engineNtB3C_11BingoEngine22process_facts_parallel0EB7_
FN:218,_RINvMs_NtCs6Pl1wmeKPjF_10bingo_core8profilerNtB5_14EngineProfiler14time_operationINtNtCsd2KPTObkMr_4core6result6ResultINtNtCs7fnLZwG9eJV_5alloc3vec3VecNtNtB7_10rete_nodes19RuleExecutionResultENtNtB7_5error10BingoErrorENCNvMs1_NtB7_6engineNtB3C_11BingoEngine27process_fact_parallel_rules0EB7_
FN:218,_RINvMs_NtCs6Pl1wmeKPjF_10bingo_core8profilerNtB5_14EngineProfiler14time_operationINtNtCsd2KPTObkMr_4core6result6ResultINtNtCs7fnLZwG9eJV_5alloc3vec3VecNtNtB7_10rete_nodes19RuleExecutionResultENtNtB7_5error10BingoErrorENCNvMs1_NtB7_6engineNtB3C_11BingoEngine31process_facts_advanced_parallel0EB7_
FN:218,_RINvMs_NtCs6Pl1wmeKPjF_10bingo_core8profilerNtB5_14EngineProfiler14time_operationINtNtCsd2KPTObkMr_4core6result6ResultINtNtCs7fnLZwG9eJV_5alloc3vec3VecNtNtB7_10rete_nodes19RuleExecutionResultENtNtB7_5error10BingoErrorENCNvMs1_NtB7_6engineNtB3C_11BingoEngine31process_facts_parallel_threadeds_0EB7_
FN:218,_RINvMs_NtCs6Pl1wmeKPjF_10bingo_core8profilerNtB5_14EngineProfiler14time_operationINtNtCsd2KPTObkMr_4core6result6ResultuNtNtB7_5error10BingoErrorENCNvMNtB7_6engineNtB2o_11BingoEngine8add_rule0EB7_
FN:218,_RINvMs_NtCs6Pl1wmeKPjF_10bingo_core8profilerNtB5_14EngineProfiler14time_operationNtNtB7_14rule_optimizer18OptimizationResultNCNvMNtB7_6engineNtB23_11BingoEngine18add_rule_optimized0EB7_
FN:187,_RNCNvMs_NtCs6Pl1wmeKPjF_10bingo_core8profilerNtB6_14EngineProfiler13end_operation0B8_
FN:294,_RNCNvMs_NtCs6Pl1wmeKPjF_10bingo_core8profilerNtB6_14EngineProfiler15get_all_metrics0B8_
FN:369,_RNCNvMs_NtCs6Pl1wmeKPjF_10bingo_core8profilerNtB6_14EngineProfiler19analyze_bottleneckss_0B8_
FN:262,_RNCNvMs_NtCs6Pl1wmeKPjF_10bingo_core8profilerNtB6_14EngineProfiler21get_operation_metrics0B8_
FN:508,_RNvMs1_NtCs6Pl1wmeKPjF_10bingo_core8profilerNtB5_12ProfileGuard3new
FN:481,_RNvMs_NtCs6Pl1wmeKPjF_10bingo_core8profilerNtB4_14EngineProfiler11export_json
FN:160,_RNvMs_NtCs6Pl1wmeKPjF_10bingo_core8profilerNtB4_14EngineProfiler11set_enabled
FN:180,_RNvMs_NtCs6Pl1wmeKPjF_10bingo_core8profilerNtB4_14EngineProfiler13end_operation
FN:374,_RNvMs_NtCs6Pl1wmeKPjF_10bingo_core8profilerNtB4_14EngineProfiler15generate_alerts
FN:426,_RNvMs_NtCs6Pl1wmeKPjF_10bingo_core8profilerNtB4_14EngineProfiler15generate_report
FN:283,_RNvMs_NtCs6Pl1wmeKPjF_10bingo_core8profilerNtB4_14EngineProfiler15get_all_metrics
FN:203,_RNvMs_NtCs6Pl1wmeKPjF_10bingo_core8profilerNtB4_14EngineProfiler15record_duration
FN:165,_RNvMs_NtCs6Pl1wmeKPjF_10bingo_core8profilerNtB4_14EngineProfiler15start_operation
FN:149,_RNvMs_NtCs6Pl1wmeKPjF_10bingo_core8profilerNtB4_14EngineProfiler15with_thresholds
FN:299,_RNvMs_NtCs6Pl1wmeKPjF_10bingo_core8profilerNtB4_14EngineProfiler19analyze_bottlenecks
FN:233,_RNvMs_NtCs6Pl1wmeKPjF_10bingo_core8profilerNtB4_14EngineProfiler21get_operation_metrics
FN:138,_RNvMs_NtCs6Pl1wmeKPjF_10bingo_core8profilerNtB4_14EngineProfiler3new
FN:468,_RNvMs_NtCs6Pl1wmeKPjF_10bingo_core8profilerNtB4_14EngineProfiler5reset
FN:46,_RNvXNtCs6Pl1wmeKPjF_10bingo_core8profilerNtB2_21PerformanceThresholdsNtNtCsd2KPTObkMr_4core7default7Default7default
FN:488,_RNvXs0_NtCs6Pl1wmeKPjF_10bingo_core8profilerNtB5_14EngineProfilerNtNtCsd2KPTObkMr_4core7default7Default7default
FN:515,_RNvXs2_NtCs6Pl1wmeKPjF_10bingo_core8profilerNtB5_12ProfileGuardNtNtNtCsd2KPTObkMr_4core3ops4drop4Drop4drop
FN:294,_RNCNvMs_NtCscF0MZJB4Qop_10bingo_core8profilerNtB6_14EngineProfiler15get_all_metrics0B8_
FN:369,_RNCNvMs_NtCscF0MZJB4Qop_10bingo_core8profilerNtB6_14EngineProfiler19analyze_bottleneckss_0B8_
FN:508,_RNvMs1_NtCscF0MZJB4Qop_10bingo_core8profilerNtB5_12ProfileGuard3new
FN:481,_RNvMs_NtCscF0MZJB4Qop_10bingo_core8profilerNtB4_14EngineProfiler11export_json
FN:374,_RNvMs_NtCscF0MZJB4Qop_10bingo_core8profilerNtB4_14EngineProfiler15generate_alerts
FN:426,_RNvMs_NtCscF0MZJB4Qop_10bingo_core8profilerNtB4_14EngineProfiler15generate_report
FN:283,_RNvMs_NtCscF0MZJB4Qop_10bingo_core8profilerNtB4_14EngineProfiler15get_all_metrics
FN:203,_RNvMs_NtCscF0MZJB4Qop_10bingo_core8profilerNtB4_14EngineProfiler15record_duration
FN:149,_RNvMs_NtCscF0MZJB4Qop_10bingo_core8profilerNtB4_14EngineProfiler15with_thresholds
FN:299,_RNvMs_NtCscF0MZJB4Qop_10bingo_core8profilerNtB4_14EngineProfiler19analyze_bottlenecks
FN:468,_RNvMs_NtCscF0MZJB4Qop_10bingo_core8profilerNtB4_14EngineProfiler5reset
FN:488,_RNvXs0_NtCscF0MZJB4Qop_10bingo_core8profilerNtB5_14EngineProfilerNtNtCsd2KPTObkMr_4core7default7Default7default
FN:515,_RNvXs2_NtCscF0MZJB4Qop_10bingo_core8profilerNtB5_12ProfileGuardNtNtNtCsd2KPTObkMr_4core3ops4drop4Drop4drop
FN:560,_RNCNvNtNtCscF0MZJB4Qop_10bingo_core8profiler5testss_25test_time_operation_macro0B7_
FN:534,_RNvNtNtCscF0MZJB4Qop_10bingo_core8profiler5testss_20test_basic_profiling
FN:579,_RNvNtNtCscF0MZJB4Qop_10bingo_core8profiler5testss_21test_profiler_disable
FN:557,_RNvNtNtCscF0MZJB4Qop_10bingo_core8profiler5testss_25test_time_operation_macro
FN:218,_RINvMs_NtCscF0MZJB4Qop_10bingo_core8profilerNtB5_14EngineProfiler14time_operationlNCNvNtB5_5testss_25test_time_operation_macro0EB7_
FN:187,_RNCNvMs_NtCscF0MZJB4Qop_10bingo_core8profilerNtB6_14EngineProfiler13end_operation0B8_
FN:262,_RNCNvMs_NtCscF0MZJB4Qop_10bingo_core8profilerNtB6_14EngineProfiler21get_operation_metrics0B8_
FN:160,_RNvMs_NtCscF0MZJB4Qop_10bingo_core8profilerNtB4_14EngineProfiler11set_enabled
FN:180,_RNvMs_NtCscF0MZJB4Qop_10bingo_core8profilerNtB4_14EngineProfiler13end_operation
FN:165,_RNvMs_NtCscF0MZJB4Qop_10bingo_core8profilerNtB4_14EngineProfiler15start_operation
FN:233,_RNvMs_NtCscF0MZJB4Qop_10bingo_core8profilerNtB4_14EngineProfiler21get_operation_metrics
FN:138,_RNvMs_NtCscF0MZJB4Qop_10bingo_core8profilerNtB4_14EngineProfiler3new
FN:46,_RNvXNtCscF0MZJB4Qop_10bingo_core8profilerNtB2_21PerformanceThresholdsNtNtCsd2KPTObkMr_4core7default7Default7default
FNDA:0,_RINvMs_NtCs6Pl1wmeKPjF_10bingo_core8profilerNtB5_14EngineProfiler14time_operationINtNtCsd2KPTObkMr_4core6result6ResultINtNtCs7fnLZwG9eJV_5alloc3vec3VecNtNtB7_10rete_nodes19RuleExecutionResultENtNtB7_5error10BingoErrorENCNvMs1_NtB7_6engineNtB3C_11BingoEngine22process_facts_parallel0EB7_
FNDA:0,_RINvMs_NtCs6Pl1wmeKPjF_10bingo_core8profilerNtB5_14EngineProfiler14time_operationINtNtCsd2KPTObkMr_4core6result6ResultINtNtCs7fnLZwG9eJV_5alloc3vec3VecNtNtB7_10rete_nodes19RuleExecutionResultENtNtB7_5error10BingoErrorENCNvMs1_NtB7_6engineNtB3C_11BingoEngine27process_fact_parallel_rules0EB7_
FNDA:0,_RINvMs_NtCs6Pl1wmeKPjF_10bingo_core8profilerNtB5_14EngineProfiler14time_operationINtNtCsd2KPTObkMr_4core6result6ResultINtNtCs7fnLZwG9eJV_5alloc3vec3VecNtNtB7_10rete_nodes19RuleExecutionResultENtNtB7_5error10BingoErrorENCNvMs1_NtB7_6engineNtB3C_11BingoEngine31process_facts_advanced_parallel0EB7_
FNDA:0,_RINvMs_NtCs6Pl1wmeKPjF_10bingo_core8profilerNtB5_14EngineProfiler14time_operationINtNtCsd2KPTObkMr_4core6result6ResultINtNtCs7fnLZwG9eJV_5alloc3vec3VecNtNtB7_10rete_nodes19RuleExecutionResultENtNtB7_5error10BingoErrorENCNvMs1_NtB7_6engineNtB3C_11BingoEngine31process_facts_parallel_threadeds_0EB7_
FNDA:0,_RINvMs_NtCs6Pl1wmeKPjF_10bingo_core8profilerNtB5_14EngineProfiler14time_operationINtNtCsd2KPTObkMr_4core6result6ResultuNtNtB7_5error10BingoErrorENCNvMNtB7_6engineNtB2o_11BingoEngine8add_rule0EB7_
FNDA:0,_RINvMs_NtCs6Pl1wmeKPjF_10bingo_core8profilerNtB5_14EngineProfiler14time_operationNtNtB7_14rule_optimizer18OptimizationResultNCNvMNtB7_6engineNtB23_11BingoEngine18add_rule_optimized0EB7_
FNDA:0,_RNCNvMs_NtCs6Pl1wmeKPjF_10bingo_core8profilerNtB6_14EngineProfiler13end_operation0B8_
FNDA:0,_RNCNvMs_NtCs6Pl1wmeKPjF_10bingo_core8profilerNtB6_14EngineProfiler15get_all_metrics0B8_
FNDA:0,_RNCNvMs_NtCs6Pl1wmeKPjF_10bingo_core8profilerNtB6_14EngineProfiler19analyze_bottleneckss_0B8_
FNDA:0,_RNCNvMs_NtCs6Pl1wmeKPjF_10bingo_core8profilerNtB6_14EngineProfiler21get_operation_metrics0B8_
FNDA:0,_RNvMs1_NtCs6Pl1wmeKPjF_10bingo_core8profilerNtB5_12ProfileGuard3new
FNDA:0,_RNvMs_NtCs6Pl1wmeKPjF_10bingo_core8profilerNtB4_14EngineProfiler11export_json
FNDA:0,_RNvMs_NtCs6Pl1wmeKPjF_10bingo_core8profilerNtB4_14EngineProfiler11set_enabled
FNDA:0,_RNvMs_NtCs6Pl1wmeKPjF_10bingo_core8profilerNtB4_14EngineProfiler13end_operation
FNDA:0,_RNvMs_NtCs6Pl1wmeKPjF_10bingo_core8profilerNtB4_14EngineProfiler15generate_alerts
FNDA:0,_RNvMs_NtCs6Pl1wmeKPjF_10bingo_core8profilerNtB4_14EngineProfiler15generate_report
FNDA:0,_RNvMs_NtCs6Pl1wmeKPjF_10bingo_core8profilerNtB4_14EngineProfiler15get_all_metrics
FNDA:0,_RNvMs_NtCs6Pl1wmeKPjF_10bingo_core8profilerNtB4_14EngineProfiler15record_duration
FNDA:0,_RNvMs_NtCs6Pl1wmeKPjF_10bingo_core8profilerNtB4_14EngineProfiler15start_operation
FNDA:0,_RNvMs_NtCs6Pl1wmeKPjF_10bingo_core8profilerNtB4_14EngineProfiler15with_thresholds
FNDA:0,_RNvMs_NtCs6Pl1wmeKPjF_10bingo_core8profilerNtB4_14EngineProfiler19analyze_bottlenecks
FNDA:0,_RNvMs_NtCs6Pl1wmeKPjF_10bingo_core8profilerNtB4_14EngineProfiler21get_operation_metrics
FNDA:0,_RNvMs_NtCs6Pl1wmeKPjF_10bingo_core8profilerNtB4_14EngineProfiler3new
FNDA:0,_RNvMs_NtCs6Pl1wmeKPjF_10bingo_core8profilerNtB4_14EngineProfiler5reset
FNDA:0,_RNvXNtCs6Pl1wmeKPjF_10bingo_core8profilerNtB2_21PerformanceThresholdsNtNtCsd2KPTObkMr_4core7default7Default7default
FNDA:0,_RNvXs0_NtCs6Pl1wmeKPjF_10bingo_core8profilerNtB5_14EngineProfilerNtNtCsd2KPTObkMr_4core7default7Default7default
FNDA:0,_RNvXs2_NtCs6Pl1wmeKPjF_10bingo_core8profilerNtB5_12ProfileGuardNtNtNtCsd2KPTObkMr_4core3ops4drop4Drop4drop
FNDA:0,_RNCNvMs_NtCscF0MZJB4Qop_10bingo_core8profilerNtB6_14EngineProfiler15get_all_metrics0B8_
FNDA:0,_RNCNvMs_NtCscF0MZJB4Qop_10bingo_core8profilerNtB6_14EngineProfiler19analyze_bottleneckss_0B8_
FNDA:0,_RNvMs1_NtCscF0MZJB4Qop_10bingo_core8profilerNtB5_12ProfileGuard3new
FNDA:0,_RNvMs_NtCscF0MZJB4Qop_10bingo_core8profilerNtB4_14EngineProfiler11export_json
FNDA:0,_RNvMs_NtCscF0MZJB4Qop_10bingo_core8profilerNtB4_14EngineProfiler15generate_alerts
FNDA:0,_RNvMs_NtCscF0MZJB4Qop_10bingo_core8profilerNtB4_14EngineProfiler15generate_report
FNDA:0,_RNvMs_NtCscF0MZJB4Qop_10bingo_core8profilerNtB4_14EngineProfiler15get_all_metrics
FNDA:0,_RNvMs_NtCscF0MZJB4Qop_10bingo_core8profilerNtB4_14EngineProfiler15record_duration
FNDA:0,_RNvMs_NtCscF0MZJB4Qop_10bingo_core8profilerNtB4_14EngineProfiler15with_thresholds
FNDA:0,_RNvMs_NtCscF0MZJB4Qop_10bingo_core8profilerNtB4_14EngineProfiler19analyze_bottlenecks
FNDA:0,_RNvMs_NtCscF0MZJB4Qop_10bingo_core8profilerNtB4_14EngineProfiler5reset
FNDA:0,_RNvXs0_NtCscF0MZJB4Qop_10bingo_core8profilerNtB5_14EngineProfilerNtNtCsd2KPTObkMr_4core7default7Default7default
FNDA:0,_RNvXs2_NtCscF0MZJB4Qop_10bingo_core8profilerNtB5_12ProfileGuardNtNtNtCsd2KPTObkMr_4core3ops4drop4Drop4drop
FNDA:1,_RNCNvNtNtCscF0MZJB4Qop_10bingo_core8profiler5testss_25test_time_operation_macro0B7_
FNDA:1,_RNvNtNtCscF0MZJB4Qop_10bingo_core8profiler5testss_20test_basic_profiling
FNDA:1,_RNvNtNtCscF0MZJB4Qop_10bingo_core8profiler5testss_21test_profiler_disable
FNDA:1,_RNvNtNtCscF0MZJB4Qop_10bingo_core8profiler5testss_25test_time_operation_macro
FNDA:1,_RINvMs_NtCscF0MZJB4Qop_10bingo_core8profilerNtB5_14EngineProfiler14time_operationlNCNvNtB5_5testss_25test_time_operation_macro0EB7_
FNDA:2,_RNCNvMs_NtCscF0MZJB4Qop_10bingo_core8profilerNtB6_14EngineProfiler13end_operation0B8_
FNDA:2,_RNCNvMs_NtCscF0MZJB4Qop_10bingo_core8profilerNtB6_14EngineProfiler21get_operation_metrics0B8_
FNDA:1,_RNvMs_NtCscF0MZJB4Qop_10bingo_core8profilerNtB4_14EngineProfiler11set_enabled
FNDA:3,_RNvMs_NtCscF0MZJB4Qop_10bingo_core8profilerNtB4_14EngineProfiler13end_operation
FNDA:3,_RNvMs_NtCscF0MZJB4Qop_10bingo_core8profilerNtB4_14EngineProfiler15start_operation
FNDA:3,_RNvMs_NtCscF0MZJB4Qop_10bingo_core8profilerNtB4_14EngineProfiler21get_operation_metrics
FNDA:3,_RNvMs_NtCscF0MZJB4Qop_10bingo_core8profilerNtB4_14EngineProfiler3new
FNDA:3,_RNvXNtCscF0MZJB4Qop_10bingo_core8profilerNtB2_21PerformanceThresholdsNtNtCsd2KPTObkMr_4core7default7Default7default
FNF:26
FNH:13
DA:46,3
DA:47,3
DA:48,3
DA:49,3
DA:50,3
DA:51,3
DA:52,3
DA:53,3
DA:54,3
DA:55,3
DA:138,3
DA:139,3
DA:140,3
DA:141,3
DA:142,3
DA:143,3
DA:144,3
DA:145,3
DA:146,3
DA:149,0
DA:150,0
DA:151,0
DA:152,0
DA:153,0
DA:154,0
DA:155,0
DA:156,0
DA:157,0
DA:160,1
DA:161,1
DA:162,1
DA:165,3
DA:166,3
DA:167,1
DA:168,2
DA:170,2
DA:171,2
DA:172,2
DA:174,2
DA:175,2
DA:176,2
DA:177,3
DA:180,3
DA:181,3
DA:182,1
DA:183,2
DA:185,2
DA:186,2
DA:187,2
DA:189,0
DA:193,2
DA:194,2
DA:195,2
DA:196,2
DA:197,0
DA:199,2
DA:200,3
DA:203,0
DA:204,0
DA:205,0
DA:206,0
DA:208,0
DA:209,0
DA:210,0
DA:212,0
DA:213,0
DA:214,0
DA:215,0
DA:218,1
DA:219,1
DA:220,1
DA:222,1
DA:223,0
DA:224,1
DA:226,1
DA:227,1
DA:228,1
DA:229,1
DA:230,1
DA:233,3
DA:234,3
DA:235,3
DA:237,3
DA:238,2
DA:240,2
DA:241,0
DA:242,2
DA:244,2
DA:245,2
DA:247,2
DA:248,2
DA:249,2
DA:250,2
DA:253,2
DA:254,2
DA:255,2
DA:256,2
DA:257,2
DA:260,2
DA:261,2
DA:262,2
DA:263,2
DA:264,2
DA:265,2
DA:266,2
DA:267,2
DA:268,2
DA:270,2
DA:271,2
DA:272,2
DA:273,2
DA:274,2
DA:275,2
DA:276,2
DA:277,2
DA:278,2
DA:279,2
DA:280,3
DA:283,0
DA:284,0
DA:285,0
DA:287,0
DA:288,0
DA:289,0
DA:290,0
DA:294,0
DA:295,0
DA:296,0
DA:299,0
DA:300,0
DA:301,0
DA:303,0
DA:304,0
DA:305,0
DA:307,0
DA:309,0
DA:310,0
DA:311,0
DA:313,0
DA:317,0
DA:319,0
DA:320,0
DA:321,0
DA:322,0
DA:325,0
DA:326,0
DA:327,0
DA:328,0
DA:329,0
DA:330,0
DA:331,0
DA:332,0
DA:333,0
DA:334,0
DA:335,0
DA:338,0
DA:339,0
DA:340,0
DA:341,0
DA:342,0
DA:343,0
DA:344,0
DA:345,0
DA:346,0
DA:347,0
DA:348,0
DA:349,0
DA:350,0
DA:353,0
DA:354,0
DA:355,0
DA:356,0
DA:357,0
DA:358,0
DA:359,0
DA:360,0
DA:361,0
DA:362,0
DA:363,0
DA:364,0
DA:365,0
DA:369,0
DA:370,0
DA:371,0
DA:374,0
DA:375,0
DA:376,0
DA:378,0
DA:380,0
DA:381,0
DA:382,0
DA:383,0
DA:384,0
DA:385,0
DA:386,0
DA:387,0
DA:388,0
DA:389,0
DA:390,0
DA:391,0
DA:394,0
DA:395,0
DA:396,0
DA:397,0
DA:398,0
DA:399,0
DA:400,0
DA:401,0
DA:402,0
DA:403,0
DA:404,0
DA:405,0
DA:408,0
DA:409,0
DA:410,0
DA:411,0
DA:412,0
DA:413,0
DA:414,0
DA:415,0
DA:416,0
DA:417,0
DA:418,0
DA:419,0
DA:422,0
DA:423,0
DA:426,0
DA:427,0
DA:428,0
DA:429,0
DA:432,0
DA:435,0
DA:436,0
DA:437,0
DA:440,0
DA:441,0
DA:442,0
DA:443,0
DA:444,0
DA:446,0
DA:450,0
DA:451,0
DA:452,0
DA:453,0
DA:455,0
DA:457,0
DA:458,0
DA:459,0
DA:460,0
DA:461,0
DA:462,0
DA:463,0
DA:464,0
DA:465,0
DA:468,0
DA:469,0
DA:470,0
DA:471,0
DA:472,0
DA:473,0
DA:474,0
DA:475,0
DA:476,0
DA:477,0
DA:478,0
DA:481,0
DA:482,0
DA:483,0
DA:484,0
DA:488,0
DA:489,0
DA:490,0
DA:508,0
DA:509,0
DA:510,0
DA:511,0
DA:515,0
DA:516,0
DA:517,0
DA:534,1
DA:535,1
DA:537,1
DA:539,1
DA:540,1001
DA:541,1000
DA:542,1000
DA:543,1
DA:545,1
DA:546,1
DA:548,1
DA:549,1
DA:550,1
DA:553,1
DA:554,1
DA:557,1
DA:558,1
DA:560,1
DA:562,1
DA:563,501
DA:564,500
DA:565,500
DA:567,1
DA:568,1
DA:569,1
DA:571,1
DA:573,1
DA:574,1
DA:575,1
DA:576,1
DA:579,1
DA:580,1
DA:581,1
DA:583,1
DA:585,1
DA:586,1001
DA:587,1000
DA:588,1000
DA:589,1
DA:591,1
DA:593,1
DA:594,1
DA:597,1
DA:598,1
BRF:0
BRH:0
LF:328
LH:141
end_of_record
SF:/Users/hl/Projects/private/bingo/crates/bingo-core/src/rete_network.rs
FN:1808,_RNvMNtCs6Pl1wmeKPjF_10bingo_core12rete_networkNtB2_11ReteNetwork11remove_rule
FN:841,_RNvMNtCs6Pl1wmeKPjF_10bingo_core12rete_networkNtB2_11ReteNetwork13process_facts
FN:1026,_RNvMNtCs6Pl1wmeKPjF_10bingo_core12rete_networkNtB2_11ReteNetwork14compare_values
FN:884,_RNvMNtCs6Pl1wmeKPjF_10bingo_core12rete_networkNtB2_11ReteNetwork14test_condition
FN:1822,_RNvMNtCs6Pl1wmeKPjF_10bingo_core12rete_networkNtB2_11ReteNetwork17get_created_facts
FN:1068,_RNvMNtCs6Pl1wmeKPjF_10bingo_core12rete_networkNtB2_11ReteNetwork18take_created_facts
FN:1829,_RNvMNtCs6Pl1wmeKPjF_10bingo_core12rete_networkNtB2_11ReteNetwork19clear_created_facts
FN:726,_RNvMNtCs6Pl1wmeKPjF_10bingo_core12rete_networkNtB2_11ReteNetwork19process_single_fact
FN:719,_RNvMNtCs6Pl1wmeKPjF_10bingo_core12rete_networkNtB2_11ReteNetwork20cleanup_beta_network
FN:696,_RNvMNtCs6Pl1wmeKPjF_10bingo_core12rete_networkNtB2_11ReteNetwork20clear_working_memory
FN:1219,_RNvMNtCs6Pl1wmeKPjF_10bingo_core12rete_networkNtB2_11ReteNetwork20execute_rule_actions
FN:1253,_RNvMNtCs6Pl1wmeKPjF_10bingo_core12rete_networkNtB2_11ReteNetwork21execute_single_action
FN:686,_RNvMNtCs6Pl1wmeKPjF_10bingo_core12rete_networkNtB2_11ReteNetwork21get_alpha_memory_info
FN:1840,_RNvMNtCs6Pl1wmeKPjF_10bingo_core12rete_networkNtB2_11ReteNetwork21get_memory_pool_stats
FN:954,_RNvMNtCs6Pl1wmeKPjF_10bingo_core12rete_networkNtB2_11ReteNetwork21test_simple_condition
FN:1657,_RNvMNtCs6Pl1wmeKPjF_10bingo_core12rete_networkNtB2_11ReteNetwork22clear_calculator_cache
FN:681,_RNvMNtCs6Pl1wmeKPjF_10bingo_core12rete_networkNtB2_11ReteNetwork22get_alpha_memory_stats
FN:703,_RNvMNtCs6Pl1wmeKPjF_10bingo_core12rete_networkNtB2_11ReteNetwork22get_beta_network_stats
FN:674,_RNvMNtCs6Pl1wmeKPjF_10bingo_core12rete_networkNtB2_11ReteNetwork24get_working_memory_stats
FN:1862,_RNvMNtCs6Pl1wmeKPjF_10bingo_core12rete_networkNtB2_11ReteNetwork25cleanup_lazy_aggregations
FN:1474,_RNvMNtCs6Pl1wmeKPjF_10bingo_core12rete_networkNtB2_11ReteNetwork25execute_calculator_action
FN:1425,_RNvMNtCs6Pl1wmeKPjF_10bingo_core12rete_networkNtB2_11ReteNetwork25execute_create_fact_batch
FN:621,_RNvMNtCs6Pl1wmeKPjF_10bingo_core12rete_networkNtB2_11ReteNetwork25propagate_fact_retraction
FN:333,_RNvMNtCs6Pl1wmeKPjF_10bingo_core12rete_networkNtB2_11ReteNetwork26add_fact_to_working_memory
FN:1662,_RNvMNtCs6Pl1wmeKPjF_10bingo_core12rete_networkNtB2_11ReteNetwork26get_calculator_cache_stats
FN:1850,_RNvMNtCs6Pl1wmeKPjF_10bingo_core12rete_networkNtB2_11ReteNetwork26get_lazy_aggregation_stats
FN:1845,_RNvMNtCs6Pl1wmeKPjF_10bingo_core12rete_networkNtB2_11ReteNetwork26get_memory_pool_efficiency
FN:396,_RNvMNtCs6Pl1wmeKPjF_10bingo_core12rete_networkNtB2_11ReteNetwork26process_fact_incrementally
FN:869,_RNvMNtCs6Pl1wmeKPjF_10bingo_core12rete_networkNtB2_11ReteNetwork27fact_matches_all_conditions
FN:1776,_RNvMNtCs6Pl1wmeKPjF_10bingo_core12rete_networkNtB2_11ReteNetwork28add_join_tests_for_condition
FN:1717,_RNvMNtCs6Pl1wmeKPjF_10bingo_core12rete_networkNtB2_11ReteNetwork28create_beta_network_for_rule
FN:1834,_RNvMNtCs6Pl1wmeKPjF_10bingo_core12rete_networkNtB2_11ReteNetwork28get_action_result_pool_stats
FN:1535,_RNvMNtCs6Pl1wmeKPjF_10bingo_core12rete_networkNtB2_11ReteNetwork29generate_calculator_cache_key
FN:1560,_RNvMNtCs6Pl1wmeKPjF_10bingo_core12rete_networkNtB2_11ReteNetwork29simulate_calculator_execution
FN:653,_RNvMNtCs6Pl1wmeKPjF_10bingo_core12rete_networkNtB2_11ReteNetwork30retract_tokens_containing_fact
FN:1676,_RNvMNtCs6Pl1wmeKPjF_10bingo_core12rete_networkNtB2_11ReteNetwork31create_alpha_node_for_condition
FN:566,_RNvMNtCs6Pl1wmeKPjF_10bingo_core12rete_networkNtB2_11ReteNetwork31remove_fact_from_working_memory
FN:485,_RNvMNtCs6Pl1wmeKPjF_10bingo_core12rete_networkNtB2_11ReteNetwork32create_or_extend_tokens_for_fact
FN:1122,_RNvMNtCs6Pl1wmeKPjF_10bingo_core12rete_networkNtB2_11ReteNetwork33process_fact_through_beta_network
FN:1857,_RNvMNtCs6Pl1wmeKPjF_10bingo_core12rete_networkNtB2_11ReteNetwork34invalidate_lazy_aggregation_caches
FN:1074,_RNvMNtCs6Pl1wmeKPjF_10bingo_core12rete_networkNtB2_11ReteNetwork37get_candidate_rules_from_alpha_memory
FN:194,_RNvMNtCs6Pl1wmeKPjF_10bingo_core12rete_networkNtB2_11ReteNetwork3new
FN:265,_RNvMNtCs6Pl1wmeKPjF_10bingo_core12rete_networkNtB2_11ReteNetwork8add_rule
FN:1799,_RNvMNtCs6Pl1wmeKPjF_10bingo_core12rete_networkNtB2_11ReteNetwork9get_stats
FN:1927,_RNvXs_NtCs6Pl1wmeKPjF_10bingo_core12rete_networkNtB4_11ReteNetworkNtNtCsd2KPTObkMr_4core7default7Default7default
FN:1443,_RNCNvMNtCs6Pl1wmeKPjF_10bingo_core12rete_networkNtB4_11ReteNetwork25execute_create_fact_batch0B6_
FN:1545,_RNCNvMNtCs6Pl1wmeKPjF_10bingo_core12rete_networkNtB4_11ReteNetwork29generate_calculator_cache_key0B6_
FN:1443,_RNCNvMNtCscF0MZJB4Qop_10bingo_core12rete_networkNtB4_11ReteNetwork25execute_create_fact_batch0B6_
FN:1545,_RNCNvMNtCscF0MZJB4Qop_10bingo_core12rete_networkNtB4_11ReteNetwork29generate_calculator_cache_key0B6_
FN:1808,_RNvMNtCscF0MZJB4Qop_10bingo_core12rete_networkNtB2_11ReteNetwork11remove_rule
FN:841,_RNvMNtCscF0MZJB4Qop_10bingo_core12rete_networkNtB2_11ReteNetwork13process_facts
FN:1026,_RNvMNtCscF0MZJB4Qop_10bingo_core12rete_networkNtB2_11ReteNetwork14compare_values
FN:884,_RNvMNtCscF0MZJB4Qop_10bingo_core12rete_networkNtB2_11ReteNetwork14test_condition
FN:1822,_RNvMNtCscF0MZJB4Qop_10bingo_core12rete_networkNtB2_11ReteNetwork17get_created_facts
FN:1068,_RNvMNtCscF0MZJB4Qop_10bingo_core12rete_networkNtB2_11ReteNetwork18take_created_facts
FN:1829,_RNvMNtCscF0MZJB4Qop_10bingo_core12rete_networkNtB2_11ReteNetwork19clear_created_facts
FN:726,_RNvMNtCscF0MZJB4Qop_10bingo_core12rete_networkNtB2_11ReteNetwork19process_single_fact
FN:719,_RNvMNtCscF0MZJB4Qop_10bingo_core12rete_networkNtB2_11ReteNetwork20cleanup_beta_network
FN:696,_RNvMNtCscF0MZJB4Qop_10bingo_core12rete_networkNtB2_11ReteNetwork20clear_working_memory
FN:1219,_RNvMNtCscF0MZJB4Qop_10bingo_core12rete_networkNtB2_11ReteNetwork20execute_rule_actions
FN:1253,_RNvMNtCscF0MZJB4Qop_10bingo_core12rete_networkNtB2_11ReteNetwork21execute_single_action
FN:686,_RNvMNtCscF0MZJB4Qop_10bingo_core12rete_networkNtB2_11ReteNetwork21get_alpha_memory_info
FN:1840,_RNvMNtCscF0MZJB4Qop_10bingo_core12rete_networkNtB2_11ReteNetwork21get_memory_pool_stats
FN:954,_RNvMNtCscF0MZJB4Qop_10bingo_core12rete_networkNtB2_11ReteNetwork21test_simple_condition
FN:1657,_RNvMNtCscF0MZJB4Qop_10bingo_core12rete_networkNtB2_11ReteNetwork22clear_calculator_cache
FN:681,_RNvMNtCscF0MZJB4Qop_10bingo_core12rete_networkNtB2_11ReteNetwork22get_alpha_memory_stats
FN:703,_RNvMNtCscF0MZJB4Qop_10bingo_core12rete_networkNtB2_11ReteNetwork22get_beta_network_stats
FN:674,_RNvMNtCscF0MZJB4Qop_10bingo_core12rete_networkNtB2_11ReteNetwork24get_working_memory_stats
FN:1862,_RNvMNtCscF0MZJB4Qop_10bingo_core12rete_networkNtB2_11ReteNetwork25cleanup_lazy_aggregations
FN:1474,_RNvMNtCscF0MZJB4Qop_10bingo_core12rete_networkNtB2_11ReteNetwork25execute_calculator_action
FN:1425,_RNvMNtCscF0MZJB4Qop_10bingo_core12rete_networkNtB2_11ReteNetwork25execute_create_fact_batch
FN:621,_RNvMNtCscF0MZJB4Qop_10bingo_core12rete_networkNtB2_11ReteNetwork25propagate_fact_retraction
FN:333,_RNvMNtCscF0MZJB4Qop_10bingo_core12rete_networkNtB2_11ReteNetwork26add_fact_to_working_memory
FN:1662,_RNvMNtCscF0MZJB4Qop_10bingo_core12rete_networkNtB2_11ReteNetwork26get_calculator_cache_stats
FN:1850,_RNvMNtCscF0MZJB4Qop_10bingo_core12rete_networkNtB2_11ReteNetwork26get_lazy_aggregation_stats
FN:1845,_RNvMNtCscF0MZJB4Qop_10bingo_core12rete_networkNtB2_11ReteNetwork26get_memory_pool_efficiency
FN:396,_RNvMNtCscF0MZJB4Qop_10bingo_core12rete_networkNtB2_11ReteNetwork26process_fact_incrementally
FN:869,_RNvMNtCscF0MZJB4Qop_10bingo_core12rete_networkNtB2_11ReteNetwork27fact_matches_all_conditions
FN:1776,_RNvMNtCscF0MZJB4Qop_10bingo_core12rete_networkNtB2_11ReteNetwork28add_join_tests_for_condition
FN:1717,_RNvMNtCscF0MZJB4Qop_10bingo_core12rete_networkNtB2_11ReteNetwork28create_beta_network_for_rule
FN:1834,_RNvMNtCscF0MZJB4Qop_10bingo_core12rete_networkNtB2_11ReteNetwork28get_action_result_pool_stats
FN:1535,_RNvMNtCscF0MZJB4Qop_10bingo_core12rete_networkNtB2_11ReteNetwork29generate_calculator_cache_key
FN:1560,_RNvMNtCscF0MZJB4Qop_10bingo_core12rete_networkNtB2_11ReteNetwork29simulate_calculator_execution
FN:653,_RNvMNtCscF0MZJB4Qop_10bingo_core12rete_networkNtB2_11ReteNetwork30retract_tokens_containing_fact
FN:1676,_RNvMNtCscF0MZJB4Qop_10bingo_core12rete_networkNtB2_11ReteNetwork31create_alpha_node_for_condition
FN:566,_RNvMNtCscF0MZJB4Qop_10bingo_core12rete_networkNtB2_11ReteNetwork31remove_fact_from_working_memory
FN:485,_RNvMNtCscF0MZJB4Qop_10bingo_core12rete_networkNtB2_11ReteNetwork32create_or_extend_tokens_for_fact
FN:1122,_RNvMNtCscF0MZJB4Qop_10bingo_core12rete_networkNtB2_11ReteNetwork33process_fact_through_beta_network
FN:1857,_RNvMNtCscF0MZJB4Qop_10bingo_core12rete_networkNtB2_11ReteNetwork34invalidate_lazy_aggregation_caches
FN:1074,_RNvMNtCscF0MZJB4Qop_10bingo_core12rete_networkNtB2_11ReteNetwork37get_candidate_rules_from_alpha_memory
FN:194,_RNvMNtCscF0MZJB4Qop_10bingo_core12rete_networkNtB2_11ReteNetwork3new
FN:265,_RNvMNtCscF0MZJB4Qop_10bingo_core12rete_networkNtB2_11ReteNetwork8add_rule
FN:1799,_RNvMNtCscF0MZJB4Qop_10bingo_core12rete_networkNtB2_11ReteNetwork9get_stats
FN:1927,_RNvXs_NtCscF0MZJB4Qop_10bingo_core12rete_networkNtB4_11ReteNetworkNtNtCsd2KPTObkMr_4core7default7Default7default
FNDA:0,_RNvMNtCs6Pl1wmeKPjF_10bingo_core12rete_networkNtB2_11ReteNetwork11remove_rule
FNDA:0,_RNvMNtCs6Pl1wmeKPjF_10bingo_core12rete_networkNtB2_11ReteNetwork13process_facts
FNDA:0,_RNvMNtCs6Pl1wmeKPjF_10bingo_core12rete_networkNtB2_11ReteNetwork14compare_values
FNDA:0,_RNvMNtCs6Pl1wmeKPjF_10bingo_core12rete_networkNtB2_11ReteNetwork14test_condition
FNDA:0,_RNvMNtCs6Pl1wmeKPjF_10bingo_core12rete_networkNtB2_11ReteNetwork17get_created_facts
FNDA:0,_RNvMNtCs6Pl1wmeKPjF_10bingo_core12rete_networkNtB2_11ReteNetwork18take_created_facts
FNDA:0,_RNvMNtCs6Pl1wmeKPjF_10bingo_core12rete_networkNtB2_11ReteNetwork19clear_created_facts
FNDA:0,_RNvMNtCs6Pl1wmeKPjF_10bingo_core12rete_networkNtB2_11ReteNetwork19process_single_fact
FNDA:0,_RNvMNtCs6Pl1wmeKPjF_10bingo_core12rete_networkNtB2_11ReteNetwork20cleanup_beta_network
FNDA:0,_RNvMNtCs6Pl1wmeKPjF_10bingo_core12rete_networkNtB2_11ReteNetwork20clear_working_memory
FNDA:0,_RNvMNtCs6Pl1wmeKPjF_10bingo_core12rete_networkNtB2_11ReteNetwork20execute_rule_actions
FNDA:0,_RNvMNtCs6Pl1wmeKPjF_10bingo_core12rete_networkNtB2_11ReteNetwork21execute_single_action
FNDA:0,_RNvMNtCs6Pl1wmeKPjF_10bingo_core12rete_networkNtB2_11ReteNetwork21get_alpha_memory_info
FNDA:0,_RNvMNtCs6Pl1wmeKPjF_10bingo_core12rete_networkNtB2_11ReteNetwork21get_memory_pool_stats
FNDA:0,_RNvMNtCs6Pl1wmeKPjF_10bingo_core12rete_networkNtB2_11ReteNetwork21test_simple_condition
FNDA:0,_RNvMNtCs6Pl1wmeKPjF_10bingo_core12rete_networkNtB2_11ReteNetwork22clear_calculator_cache
FNDA:0,_RNvMNtCs6Pl1wmeKPjF_10bingo_core12rete_networkNtB2_11ReteNetwork22get_alpha_memory_stats
FNDA:0,_RNvMNtCs6Pl1wmeKPjF_10bingo_core12rete_networkNtB2_11ReteNetwork22get_beta_network_stats
FNDA:0,_RNvMNtCs6Pl1wmeKPjF_10bingo_core12rete_networkNtB2_11ReteNetwork24get_working_memory_stats
FNDA:0,_RNvMNtCs6Pl1wmeKPjF_10bingo_core12rete_networkNtB2_11ReteNetwork25cleanup_lazy_aggregations
FNDA:0,_RNvMNtCs6Pl1wmeKPjF_10bingo_core12rete_networkNtB2_11ReteNetwork25execute_calculator_action
FNDA:0,_RNvMNtCs6Pl1wmeKPjF_10bingo_core12rete_networkNtB2_11ReteNetwork25execute_create_fact_batch
FNDA:0,_RNvMNtCs6Pl1wmeKPjF_10bingo_core12rete_networkNtB2_11ReteNetwork25propagate_fact_retraction
FNDA:0,_RNvMNtCs6Pl1wmeKPjF_10bingo_core12rete_networkNtB2_11ReteNetwork26add_fact_to_working_memory
FNDA:0,_RNvMNtCs6Pl1wmeKPjF_10bingo_core12rete_networkNtB2_11ReteNetwork26get_calculator_cache_stats
FNDA:0,_RNvMNtCs6Pl1wmeKPjF_10bingo_core12rete_networkNtB2_11ReteNetwork26get_lazy_aggregation_stats
FNDA:0,_RNvMNtCs6Pl1wmeKPjF_10bingo_core12rete_networkNtB2_11ReteNetwork26get_memory_pool_efficiency
FNDA:0,_RNvMNtCs6Pl1wmeKPjF_10bingo_core12rete_networkNtB2_11ReteNetwork26process_fact_incrementally
FNDA:0,_RNvMNtCs6Pl1wmeKPjF_10bingo_core12rete_networkNtB2_11ReteNetwork27fact_matches_all_conditions
FNDA:0,_RNvMNtCs6Pl1wmeKPjF_10bingo_core12rete_networkNtB2_11ReteNetwork28add_join_tests_for_condition
FNDA:0,_RNvMNtCs6Pl1wmeKPjF_10bingo_core12rete_networkNtB2_11ReteNetwork28create_beta_network_for_rule
FNDA:0,_RNvMNtCs6Pl1wmeKPjF_10bingo_core12rete_networkNtB2_11ReteNetwork28get_action_result_pool_stats
FNDA:0,_RNvMNtCs6Pl1wmeKPjF_10bingo_core12rete_networkNtB2_11ReteNetwork29generate_calculator_cache_key
FNDA:0,_RNvMNtCs6Pl1wmeKPjF_10bingo_core12rete_networkNtB2_11ReteNetwork29simulate_calculator_execution
FNDA:0,_RNvMNtCs6Pl1wmeKPjF_10bingo_core12rete_networkNtB2_11ReteNetwork30retract_tokens_containing_fact
FNDA:0,_RNvMNtCs6Pl1wmeKPjF_10bingo_core12rete_networkNtB2_11ReteNetwork31create_alpha_node_for_condition
FNDA:0,_RNvMNtCs6Pl1wmeKPjF_10bingo_core12rete_networkNtB2_11ReteNetwork31remove_fact_from_working_memory
FNDA:0,_RNvMNtCs6Pl1wmeKPjF_10bingo_core12rete_networkNtB2_11ReteNetwork32create_or_extend_tokens_for_fact
FNDA:0,_RNvMNtCs6Pl1wmeKPjF_10bingo_core12rete_networkNtB2_11ReteNetwork33process_fact_through_beta_network
FNDA:0,_RNvMNtCs6Pl1wmeKPjF_10bingo_core12rete_networkNtB2_11ReteNetwork34invalidate_lazy_aggregation_caches
FNDA:0,_RNvMNtCs6Pl1wmeKPjF_10bingo_core12rete_networkNtB2_11ReteNetwork37get_candidate_rules_from_alpha_memory
FNDA:0,_RNvMNtCs6Pl1wmeKPjF_10bingo_core12rete_networkNtB2_11ReteNetwork3new
FNDA:0,_RNvMNtCs6Pl1wmeKPjF_10bingo_core12rete_networkNtB2_11ReteNetwork8add_rule
FNDA:0,_RNvMNtCs6Pl1wmeKPjF_10bingo_core12rete_networkNtB2_11ReteNetwork9get_stats
FNDA:0,_RNvXs_NtCs6Pl1wmeKPjF_10bingo_core12rete_networkNtB4_11ReteNetworkNtNtCsd2KPTObkMr_4core7default7Default7default
FNDA:0,_RNCNvMNtCs6Pl1wmeKPjF_10bingo_core12rete_networkNtB4_11ReteNetwork25execute_create_fact_batch0B6_
FNDA:0,_RNCNvMNtCs6Pl1wmeKPjF_10bingo_core12rete_networkNtB4_11ReteNetwork29generate_calculator_cache_key0B6_
FNDA:0,_RNCNvMNtCscF0MZJB4Qop_10bingo_core12rete_networkNtB4_11ReteNetwork25execute_create_fact_batch0B6_
FNDA:0,_RNCNvMNtCscF0MZJB4Qop_10bingo_core12rete_networkNtB4_11ReteNetwork29generate_calculator_cache_key0B6_
FNDA:0,_RNvMNtCscF0MZJB4Qop_10bingo_core12rete_networkNtB2_11ReteNetwork11remove_rule
FNDA:0,_RNvMNtCscF0MZJB4Qop_10bingo_core12rete_networkNtB2_11ReteNetwork13process_facts
FNDA:0,_RNvMNtCscF0MZJB4Qop_10bingo_core12rete_networkNtB2_11ReteNetwork14compare_values
FNDA:0,_RNvMNtCscF0MZJB4Qop_10bingo_core12rete_networkNtB2_11ReteNetwork14test_condition
FNDA:0,_RNvMNtCscF0MZJB4Qop_10bingo_core12rete_networkNtB2_11ReteNetwork17get_created_facts
FNDA:0,_RNvMNtCscF0MZJB4Qop_10bingo_core12rete_networkNtB2_11ReteNetwork18take_created_facts
FNDA:0,_RNvMNtCscF0MZJB4Qop_10bingo_core12rete_networkNtB2_11ReteNetwork19clear_created_facts
FNDA:0,_RNvMNtCscF0MZJB4Qop_10bingo_core12rete_networkNtB2_11ReteNetwork19process_single_fact
FNDA:0,_RNvMNtCscF0MZJB4Qop_10bingo_core12rete_networkNtB2_11ReteNetwork20cleanup_beta_network
FNDA:0,_RNvMNtCscF0MZJB4Qop_10bingo_core12rete_networkNtB2_11ReteNetwork20clear_working_memory
FNDA:0,_RNvMNtCscF0MZJB4Qop_10bingo_core12rete_networkNtB2_11ReteNetwork20execute_rule_actions
FNDA:0,_RNvMNtCscF0MZJB4Qop_10bingo_core12rete_networkNtB2_11ReteNetwork21execute_single_action
FNDA:0,_RNvMNtCscF0MZJB4Qop_10bingo_core12rete_networkNtB2_11ReteNetwork21get_alpha_memory_info
FNDA:0,_RNvMNtCscF0MZJB4Qop_10bingo_core12rete_networkNtB2_11ReteNetwork21get_memory_pool_stats
FNDA:0,_RNvMNtCscF0MZJB4Qop_10bingo_core12rete_networkNtB2_11ReteNetwork21test_simple_condition
FNDA:0,_RNvMNtCscF0MZJB4Qop_10bingo_core12rete_networkNtB2_11ReteNetwork22clear_calculator_cache
FNDA:0,_RNvMNtCscF0MZJB4Qop_10bingo_core12rete_networkNtB2_11ReteNetwork22get_alpha_memory_stats
FNDA:0,_RNvMNtCscF0MZJB4Qop_10bingo_core12rete_networkNtB2_11ReteNetwork22get_beta_network_stats
FNDA:0,_RNvMNtCscF0MZJB4Qop_10bingo_core12rete_networkNtB2_11ReteNetwork24get_working_memory_stats
FNDA:0,_RNvMNtCscF0MZJB4Qop_10bingo_core12rete_networkNtB2_11ReteNetwork25cleanup_lazy_aggregations
FNDA:0,_RNvMNtCscF0MZJB4Qop_10bingo_core12rete_networkNtB2_11ReteNetwork25execute_calculator_action
FNDA:0,_RNvMNtCscF0MZJB4Qop_10bingo_core12rete_networkNtB2_11ReteNetwork25execute_create_fact_batch
FNDA:0,_RNvMNtCscF0MZJB4Qop_10bingo_core12rete_networkNtB2_11ReteNetwork25propagate_fact_retraction
FNDA:0,_RNvMNtCscF0MZJB4Qop_10bingo_core12rete_networkNtB2_11ReteNetwork26add_fact_to_working_memory
FNDA:0,_RNvMNtCscF0MZJB4Qop_10bingo_core12rete_networkNtB2_11ReteNetwork26get_calculator_cache_stats
FNDA:0,_RNvMNtCscF0MZJB4Qop_10bingo_core12rete_networkNtB2_11ReteNetwork26get_lazy_aggregation_stats
FNDA:0,_RNvMNtCscF0MZJB4Qop_10bingo_core12rete_networkNtB2_11ReteNetwork26get_memory_pool_efficiency
FNDA:0,_RNvMNtCscF0MZJB4Qop_10bingo_core12rete_networkNtB2_11ReteNetwork26process_fact_incrementally
FNDA:0,_RNvMNtCscF0MZJB4Qop_10bingo_core12rete_networkNtB2_11ReteNetwork27fact_matches_all_conditions
FNDA:0,_RNvMNtCscF0MZJB4Qop_10bingo_core12rete_networkNtB2_11ReteNetwork28add_join_tests_for_condition
FNDA:0,_RNvMNtCscF0MZJB4Qop_10bingo_core12rete_networkNtB2_11ReteNetwork28create_beta_network_for_rule
FNDA:0,_RNvMNtCscF0MZJB4Qop_10bingo_core12rete_networkNtB2_11ReteNetwork28get_action_result_pool_stats
FNDA:0,_RNvMNtCscF0MZJB4Qop_10bingo_core12rete_networkNtB2_11ReteNetwork29generate_calculator_cache_key
FNDA:0,_RNvMNtCscF0MZJB4Qop_10bingo_core12rete_networkNtB2_11ReteNetwork29simulate_calculator_execution
FNDA:0,_RNvMNtCscF0MZJB4Qop_10bingo_core12rete_networkNtB2_11ReteNetwork30retract_tokens_containing_fact
FNDA:0,_RNvMNtCscF0MZJB4Qop_10bingo_core12rete_networkNtB2_11ReteNetwork31create_alpha_node_for_condition
FNDA:0,_RNvMNtCscF0MZJB4Qop_10bingo_core12rete_networkNtB2_11ReteNetwork31remove_fact_from_working_memory
FNDA:0,_RNvMNtCscF0MZJB4Qop_10bingo_core12rete_networkNtB2_11ReteNetwork32create_or_extend_tokens_for_fact
FNDA:0,_RNvMNtCscF0MZJB4Qop_10bingo_core12rete_networkNtB2_11ReteNetwork33process_fact_through_beta_network
FNDA:0,_RNvMNtCscF0MZJB4Qop_10bingo_core12rete_networkNtB2_11ReteNetwork34invalidate_lazy_aggregation_caches
FNDA:0,_RNvMNtCscF0MZJB4Qop_10bingo_core12rete_networkNtB2_11ReteNetwork37get_candidate_rules_from_alpha_memory
FNDA:0,_RNvMNtCscF0MZJB4Qop_10bingo_core12rete_networkNtB2_11ReteNetwork3new
FNDA:0,_RNvMNtCscF0MZJB4Qop_10bingo_core12rete_networkNtB2_11ReteNetwork8add_rule
FNDA:0,_RNvMNtCscF0MZJB4Qop_10bingo_core12rete_networkNtB2_11ReteNetwork9get_stats
FNDA:0,_RNvXs_NtCscF0MZJB4Qop_10bingo_core12rete_networkNtB4_11ReteNetworkNtNtCsd2KPTObkMr_4core7default7Default7default
FNF:47
FNH:0
DA:194,0
DA:195,0
DA:196,0
DA:198,0
DA:199,0
DA:201,0
DA:202,0
DA:203,0
DA:204,0
DA:205,0
DA:206,0
DA:207,0
DA:208,0
DA:209,0
DA:210,0
DA:211,0
DA:212,0
DA:213,0
DA:214,0
DA:215,0
DA:216,0
DA:265,0
DA:266,0
DA:267,0
DA:270,0
DA:271,0
DA:273,0
DA:274,0
DA:275,0
DA:278,0
DA:280,0
DA:283,0
DA:284,0
DA:288,0
DA:289,0
DA:290,0
DA:291,0
DA:294,0
DA:295,0
DA:296,0
DA:299,0
DA:301,0
DA:302,0
DA:333,0
DA:334,0
DA:335,0
DA:336,0
DA:337,0
DA:338,0
DA:339,0
DA:340,0
DA:341,0
DA:346,0
DA:349,0
DA:350,0
DA:351,0
DA:353,0
DA:357,0
DA:360,0
DA:361,0
DA:362,0
DA:363,0
DA:365,0
DA:366,0
DA:367,0
DA:368,0
DA:370,0
DA:374,0
DA:375,0
DA:377,0
DA:378,0
DA:379,0
DA:380,0
DA:383,0
DA:384,0
DA:386,0
DA:388,0
DA:389,0
DA:396,0
DA:397,0
DA:398,0
DA:399,0
DA:400,0
DA:401,0
DA:402,0
DA:403,0
DA:404,0
DA:406,0
DA:407,0
DA:410,0
DA:413,0
DA:415,0
DA:416,0
DA:417,0
DA:418,0
DA:419,0
DA:420,0
DA:421,0
DA:422,0
DA:423,0
DA:426,0
DA:429,0
DA:432,0
DA:433,0
DA:434,0
DA:437,0
DA:439,0
DA:440,0
DA:441,0
DA:443,0
DA:444,0
DA:446,0
DA:447,0
DA:449,0
DA:450,0
DA:453,0
DA:454,0
DA:455,0
DA:456,0
DA:457,0
DA:458,0
DA:459,0
DA:460,0
DA:465,0
DA:466,0
DA:468,0
DA:469,0
DA:475,0
DA:476,0
DA:485,0
DA:486,0
DA:487,0
DA:488,0
DA:489,0
DA:490,0
DA:491,0
DA:494,0
DA:495,0
DA:496,0
DA:497,0
DA:498,0
DA:499,0
DA:500,0
DA:504,0
DA:505,0
DA:509,0
DA:512,0
DA:513,0
DA:517,0
DA:518,0
DA:519,0
DA:522,0
DA:524,0
DA:525,0
DA:526,0
DA:527,0
DA:528,0
DA:529,0
DA:532,0
DA:537,0
DA:538,0
DA:540,0
DA:541,0
DA:546,0
DA:547,0
DA:566,0
DA:567,0
DA:568,0
DA:573,0
DA:576,0
DA:578,0
DA:579,0
DA:580,0
DA:581,0
DA:584,0
DA:585,0
DA:586,0
DA:588,0
DA:592,0
DA:593,0
DA:594,0
DA:596,0
DA:597,0
DA:598,0
DA:599,0
DA:601,0
DA:605,0
DA:607,0
DA:608,0
DA:610,0
DA:612,0
DA:613,0
DA:621,0
DA:622,0
DA:623,0
DA:624,0
DA:625,0
DA:626,0
DA:627,0
DA:632,0
DA:633,0
DA:637,0
DA:638,0
DA:639,0
DA:643,0
DA:644,0
DA:647,0
DA:648,0
DA:653,0
DA:658,0
DA:659,0
DA:670,0
DA:671,0
DA:674,0
DA:675,0
DA:676,0
DA:677,0
DA:678,0
DA:681,0
DA:682,0
DA:683,0
DA:686,0
DA:687,0
DA:688,0
DA:689,0
DA:690,0
DA:691,0
DA:692,0
DA:693,0
DA:696,0
DA:697,0
DA:699,0
DA:700,0
DA:703,0
DA:704,0
DA:705,0
DA:706,0
DA:707,0
DA:708,0
DA:709,0
DA:710,0
DA:719,0
DA:722,0
DA:723,0
DA:726,0
DA:727,0
DA:728,0
DA:729,0
DA:730,0
DA:731,0
DA:732,0
DA:735,0
DA:738,0
DA:739,0
DA:740,0
DA:743,0
DA:745,0
DA:747,0
DA:749,0
DA:750,0
DA:751,0
DA:752,0
DA:753,0
DA:754,0
DA:755,0
DA:756,0
DA:759,0
DA:760,0
DA:761,0
DA:762,0
DA:763,0
DA:764,0
DA:765,0
DA:767,0
DA:770,0
DA:771,0
DA:841,0
DA:842,0
DA:843,0
DA:844,0
DA:845,0
DA:846,0
DA:847,0
DA:848,0
DA:849,0
DA:850,0
DA:852,0
DA:856,0
DA:859,0
DA:861,0
DA:862,0
DA:865,0
DA:866,0
DA:869,0
DA:870,0
DA:871,0
DA:872,0
DA:873,0
DA:874,0
DA:875,0
DA:876,0
DA:877,0
DA:878,0
DA:880,0
DA:881,0
DA:884,0
DA:885,0
DA:886,0
DA:887,0
DA:888,0
DA:889,0
DA:890,0
DA:891,0
DA:892,0
DA:894,0
DA:895,0
DA:896,0
DA:897,0
DA:898,0
DA:900,0
DA:902,0
DA:903,0
DA:904,0
DA:905,0
DA:906,0
DA:908,0
DA:910,0
DA:912,0
DA:914,0
DA:915,0
DA:916,0
DA:917,0
DA:919,0
DA:922,0
DA:923,0
DA:924,0
DA:925,0
DA:927,0
DA:931,0
DA:932,0
DA:933,0
DA:934,0
DA:936,0
DA:943,0
DA:948,0
DA:951,0
DA:954,0
DA:955,0
DA:956,0
DA:957,0
DA:958,0
DA:959,0
DA:960,0
DA:961,0
DA:962,0
DA:964,0
DA:965,0
DA:966,0
DA:968,0
DA:969,0
DA:971,0
DA:975,0
DA:976,0
DA:978,0
DA:982,0
DA:983,0
DA:985,0
DA:989,0
DA:990,0
DA:992,0
DA:996,0
DA:997,0
DA:999,0
DA:1001,0
DA:1005,0
DA:1006,0
DA:1008,0
DA:1010,0
DA:1014,0
DA:1015,0
DA:1017,0
DA:1019,0
DA:1023,0
DA:1026,0
DA:1027,0
DA:1028,0
DA:1029,0
DA:1030,0
DA:1031,0
DA:1032,0
DA:1033,0
DA:1035,0
DA:1038,0
DA:1039,0
DA:1040,0
DA:1041,0
DA:1042,0
DA:1043,0
DA:1044,0
DA:1046,0
DA:1049,0
DA:1050,0
DA:1051,0
DA:1052,0
DA:1053,0
DA:1054,0
DA:1056,0
DA:1059,0
DA:1060,0
DA:1061,0
DA:1062,0
DA:1063,0
DA:1065,0
DA:1068,0
DA:1069,0
DA:1070,0
DA:1074,0
DA:1075,0
DA:1081,0
DA:1082,0
DA:1084,0
DA:1086,0
DA:1087,0
DA:1088,0
DA:1089,0
DA:1094,0
DA:1095,0
DA:1096,0
DA:1097,0
DA:1122,0
DA:1123,0
DA:1124,0
DA:1125,0
DA:1126,0
DA:1127,0
DA:1128,0
DA:1129,0
DA:1131,0
DA:1132,0
DA:1137,0
DA:1138,0
DA:1141,0
DA:1142,0
DA:1143,0
DA:1146,0
DA:1147,0
DA:1148,0
DA:1149,0
DA:1150,0
DA:1151,0
DA:1152,0
DA:1155,0
DA:1156,0
DA:1160,0
DA:1163,0
DA:1165,0
DA:1166,0
DA:1168,0
DA:1169,0
DA:1174,0
DA:1175,0
DA:1176,0
DA:1177,0
DA:1178,0
DA:1179,0
DA:1180,0
DA:1181,0
DA:1182,0
DA:1183,0
DA:1186,0
DA:1187,0
DA:1189,0
DA:1190,0
DA:1194,0
DA:1195,0
DA:1196,0
DA:1197,0
DA:1198,0
DA:1199,0
DA:1200,0
DA:1201,0
DA:1202,0
DA:1203,0
DA:1204,0
DA:1205,0
DA:1207,0
DA:1209,0
DA:1210,0
DA:1219,0
DA:1220,0
DA:1221,0
DA:1222,0
DA:1223,0
DA:1224,0
DA:1227,0
DA:1228,0
DA:1231,0
DA:1232,0
DA:1233,0
DA:1234,0
DA:1235,0
DA:1236,0
DA:1237,0
DA:1238,0
DA:1239,0
DA:1244,0
DA:1245,0
DA:1246,0
DA:1247,0
DA:1249,0
DA:1250,0
DA:1253,0
DA:1254,0
DA:1255,0
DA:1256,0
DA:1257,0
DA:1258,0
DA:1263,0
DA:1264,0
DA:1265,0
DA:1266,0
DA:1267,0
DA:1268,0
DA:1269,0
DA:1270,0
DA:1271,0
DA:1273,0
DA:1274,0
DA:1277,0
DA:1279,0
DA:1281,0
DA:1282,0
DA:1283,0
DA:1284,0
DA:1287,0
DA:1289,0
DA:1290,0
DA:1292,0
DA:1293,0
DA:1294,0
DA:1295,0
DA:1296,0
DA:1299,0
DA:1300,0
DA:1301,0
DA:1304,0
DA:1305,0
DA:1306,0
DA:1307,0
DA:1310,0
DA:1312,0
DA:1314,0
DA:1315,0
DA:1316,0
DA:1317,0
DA:1318,0
DA:1321,0
DA:1322,0
DA:1323,0
DA:1326,0
DA:1327,0
DA:1328,0
DA:1330,0
DA:1331,0
DA:1333,0
DA:1334,0
DA:1335,0
DA:1336,0
DA:1337,0
DA:1338,0
DA:1339,0
DA:1342,0
DA:1343,0
DA:1345,0
DA:1346,0
DA:1347,0
DA:1348,0
DA:1349,0
DA:1350,0
DA:1351,0
DA:1353,0
DA:1354,0
DA:1355,0
DA:1356,0
DA:1357,0
DA:1360,0
DA:1361,0
DA:1362,0
DA:1363,0
DA:1364,0
DA:1365,0
DA:1368,0
DA:1369,0
DA:1370,0
DA:1372,0
DA:1373,0
DA:1374,0
DA:1375,0
DA:1376,0
DA:1377,0
DA:1378,0
DA:1379,0
DA:1381,0
DA:1382,0
DA:1383,0
DA:1384,0
DA:1385,0
DA:1388,0
DA:1389,0
DA:1390,0
DA:1391,0
DA:1392,0
DA:1393,0
DA:1397,0
DA:1398,0
DA:1400,0
DA:1403,0
DA:1404,0
DA:1405,0
DA:1406,0
DA:1407,0
DA:1408,0
DA:1410,0
DA:1411,0
DA:1412,0
DA:1413,0
DA:1414,0
DA:1415,0
DA:1416,0
DA:1418,0
DA:1419,0
DA:1420,0
DA:1422,0
DA:1425,0
DA:1426,0
DA:1427,0
DA:1428,0
DA:1429,0
DA:1433,0
DA:1436,0
DA:1437,0
DA:1440,0
DA:1441,0
DA:1442,0
DA:1443,0
DA:1444,0
DA:1445,0
DA:1446,0
DA:1447,0
DA:1448,0
DA:1449,0
DA:1450,0
DA:1451,0
DA:1452,0
DA:1455,0
DA:1458,0
DA:1459,0
DA:1460,0
DA:1461,0
DA:1463,0
DA:1465,0
DA:1466,0
DA:1467,0
DA:1470,0
DA:1471,0
DA:1474,0
DA:1475,0
DA:1476,0
DA:1477,0
DA:1478,0
DA:1479,0
DA:1480,0
DA:1481,0
DA:1486,0
DA:1489,0
DA:1490,0
DA:1494,0
DA:1496,0
DA:1497,0
DA:1498,0
DA:1499,0
DA:1500,0
DA:1501,0
DA:1502,0
DA:1507,0
DA:1508,0
DA:1511,0
DA:1513,0
DA:1517,0
DA:1521,0
DA:1522,0
DA:1523,0
DA:1524,0
DA:1525,0
DA:1526,0
DA:1527,0
DA:1529,0
DA:1530,0
DA:1532,0
DA:1535,0
DA:1536,0
DA:1537,0
DA:1538,0
DA:1539,0
DA:1540,0
DA:1541,0
DA:1544,0
DA:1545,0
DA:1547,0
DA:1548,0
DA:1549,0
DA:1550,0
DA:1551,0
DA:1552,0
DA:1555,0
DA:1556,0
DA:1560,0
DA:1561,0
DA:1562,0
DA:1563,0
DA:1564,0
DA:1565,0
DA:1569,0
DA:1570,0
DA:1572,0
DA:1573,0
DA:1574,0
DA:1575,0
DA:1576,0
DA:1577,0
DA:1578,0
DA:1580,0
DA:1582,0
DA:1583,0
DA:1584,0
DA:1585,0
DA:1586,0
DA:1587,0
DA:1588,0
DA:1589,0
DA:1591,0
DA:1593,0
DA:1595,0
DA:1597,0
DA:1599,0
DA:1600,0
DA:1602,0
DA:1603,0
DA:1604,0
DA:1605,0
DA:1608,0
DA:1609,0
DA:1610,0
DA:1611,0
DA:1614,0
DA:1616,0
DA:1619,0
DA:1621,0
DA:1622,0
DA:1623,0
DA:1624,0
DA:1626,0
DA:1627,0
DA:1628,0
DA:1629,0
DA:1632,0
DA:1633,0
DA:1634,0
DA:1635,0
DA:1638,0
DA:1639,0
DA:1640,0
DA:1641,0
DA:1644,0
DA:1646,0
DA:1651,0
DA:1654,0
DA:1657,0
DA:1658,0
DA:1659,0
DA:1662,0
DA:1663,0
DA:1664,0
DA:1665,0
DA:1666,0
DA:1667,0
DA:1676,0
DA:1677,0
DA:1678,0
DA:1679,0
DA:1680,0
DA:1681,0
DA:1682,0
DA:1685,0
DA:1686,0
DA:1687,0
DA:1688,0
DA:1689,0
DA:1690,0
DA:1693,0
DA:1694,0
DA:1695,0
DA:1698,0
DA:1699,0
DA:1700,0
DA:1701,0
DA:1703,0
DA:1704,0
DA:1705,0
DA:1708,0
DA:1709,0
DA:1713,0
DA:1714,0
DA:1717,0
DA:1718,0
DA:1719,0
DA:1721,0
DA:1725,0
DA:1726,0
DA:1727,0
DA:1729,0
DA:1732,0
DA:1733,0
DA:1735,0
DA:1737,0
DA:1738,0
DA:1739,0
DA:1742,0
DA:1743,0
DA:1746,0
DA:1749,0
DA:1750,0
DA:1751,0
DA:1753,0
DA:1755,0
DA:1756,0
DA:1759,0
DA:1760,0
DA:1764,0
DA:1765,0
DA:1767,0
DA:1768,0
DA:1772,0
DA:1773,0
DA:1776,0
DA:1777,0
DA:1778,0
DA:1779,0
DA:1780,0
DA:1781,0
DA:1790,0
DA:1791,0
DA:1795,0
DA:1796,0
DA:1799,0
DA:1800,0
DA:1801,0
DA:1802,0
DA:1803,0
DA:1804,0
DA:1805,0
DA:1808,0
DA:1810,0
DA:1813,0
DA:1817,0
DA:1818,0
DA:1822,0
DA:1824,0
DA:1825,0
DA:1829,0
DA:1831,0
DA:1834,0
DA:1836,0
DA:1837,0
DA:1840,0
DA:1841,0
DA:1842,0
DA:1845,0
DA:1846,0
DA:1847,0
DA:1850,0
DA:1851,0
DA:1852,0
DA:1853,0
DA:1854,0
DA:1857,0
DA:1858,0
DA:1859,0
DA:1862,0
DA:1863,0
DA:1864,0
DA:1927,0
DA:1928,0
DA:1929,0
BRF:0
BRH:0
LF:896
LH:0
end_of_record
SF:/Users/hl/Projects/private/bingo/crates/bingo-core/src/rete_nodes.rs
FN:61,_RNvMNtCs6Pl1wmeKPjF_10bingo_core10rete_nodesNtB2_11AlphaMemory20find_candidate_rules
FN:28,_RNvMNtCs6Pl1wmeKPjF_10bingo_core10rete_nodesNtB2_11AlphaMemory20index_rule_condition
FN:109,_RNvMNtCs6Pl1wmeKPjF_10bingo_core10rete_nodesNtB2_11AlphaMemory21estimate_memory_usage
FN:23,_RNvMNtCs6Pl1wmeKPjF_10bingo_core10rete_nodesNtB2_11AlphaMemory3new
FN:84,_RNvMNtCs6Pl1wmeKPjF_10bingo_core10rete_nodesNtB2_11AlphaMemory5clear
FN:90,_RNvMNtCs6Pl1wmeKPjF_10bingo_core10rete_nodesNtB2_11AlphaMemory9get_stats
FN:243,_RNvMs1_NtCs6Pl1wmeKPjF_10bingo_core10rete_nodesNtB5_12PartialMatch10is_expired
FN:222,_RNvMs1_NtCs6Pl1wmeKPjF_10bingo_core10rete_nodesNtB5_12PartialMatch11is_complete
FN:236,_RNvMs1_NtCs6Pl1wmeKPjF_10bingo_core10rete_nodesNtB5_12PartialMatch12get_fact_ids
FN:227,_RNvMs1_NtCs6Pl1wmeKPjF_10bingo_core10rete_nodesNtB5_12PartialMatch14add_fact_match
FN:211,_RNvMs1_NtCs6Pl1wmeKPjF_10bingo_core10rete_nodesNtB5_12PartialMatch3new
FN:269,_RNvMs3_NtCs6Pl1wmeKPjF_10bingo_core10rete_nodesNtB5_13HashJoinIndex10index_fact
FN:315,_RNvMs3_NtCs6Pl1wmeKPjF_10bingo_core10rete_nodesNtB5_13HashJoinIndex11remove_fact
FN:291,_RNvMs3_NtCs6Pl1wmeKPjF_10bingo_core10rete_nodesNtB5_13HashJoinIndex20find_join_candidates
FN:264,_RNvMs3_NtCs6Pl1wmeKPjF_10bingo_core10rete_nodesNtB5_13HashJoinIndex3new
FN:357,_RNvMs3_NtCs6Pl1wmeKPjF_10bingo_core10rete_nodesNtB5_13HashJoinIndex5clear
FN:338,_RNvMs3_NtCs6Pl1wmeKPjF_10bingo_core10rete_nodesNtB5_13HashJoinIndex9get_stats
FN:688,_RNvMs4_NtCs6Pl1wmeKPjF_10bingo_core10rete_nodesNtB5_10BetaMemory19get_hash_join_stats
FN:628,_RNvMs4_NtCs6Pl1wmeKPjF_10bingo_core10rete_nodesNtB5_10BetaMemory19get_partial_matches
FN:433,_RNvMs4_NtCs6Pl1wmeKPjF_10bingo_core10rete_nodesNtB5_10BetaMemory19start_partial_match
FN:410,_RNvMs4_NtCs6Pl1wmeKPjF_10bingo_core10rete_nodesNtB5_10BetaMemory20configure_rule_joins
FN:416,_RNvMs4_NtCs6Pl1wmeKPjF_10bingo_core10rete_nodesNtB5_10BetaMemory20index_fact_for_joins
FN:558,_RNvMs4_NtCs6Pl1wmeKPjF_10bingo_core10rete_nodesNtB5_10BetaMemory22extend_with_candidates
FN:636,_RNvMs4_NtCs6Pl1wmeKPjF_10bingo_core10rete_nodesNtB5_10BetaMemory23cleanup_expired_matches
FN:597,_RNvMs4_NtCs6Pl1wmeKPjF_10bingo_core10rete_nodesNtB5_10BetaMemory24extend_without_hash_join
FN:454,_RNvMs4_NtCs6Pl1wmeKPjF_10bingo_core10rete_nodesNtB5_10BetaMemory27process_fact_with_hash_join
FN:516,_RNvMs4_NtCs6Pl1wmeKPjF_10bingo_core10rete_nodesNtB5_10BetaMemory28fact_matches_first_condition
FN:394,_RNvMs4_NtCs6Pl1wmeKPjF_10bingo_core10rete_nodesNtB5_10BetaMemory3new
FN:693,_RNvMs4_NtCs6Pl1wmeKPjF_10bingo_core10rete_nodesNtB5_10BetaMemory5clear
FN:669,_RNvMs4_NtCs6Pl1wmeKPjF_10bingo_core10rete_nodesNtB5_10BetaMemory9get_stats
FN:813,_RNvMs6_NtCs6Pl1wmeKPjF_10bingo_core10rete_nodesNtB5_11ReteNetwork13process_facts
FN:795,_RNvMs6_NtCs6Pl1wmeKPjF_10bingo_core10rete_nodesNtB5_11ReteNetwork16generate_fact_id
FN:802,_RNvMs6_NtCs6Pl1wmeKPjF_10bingo_core10rete_nodesNtB5_11ReteNetwork17get_created_facts
FN:807,_RNvMs6_NtCs6Pl1wmeKPjF_10bingo_core10rete_nodesNtB5_11ReteNetwork19clear_created_facts
FN:1244,_RNvMs6_NtCs6Pl1wmeKPjF_10bingo_core10rete_nodesNtB5_11ReteNetwork21get_beta_memory_stats
FN:964,_RNvMs6_NtCs6Pl1wmeKPjF_10bingo_core10rete_nodesNtB5_11ReteNetwork22execute_rule_optimized
FN:891,_RNvMs6_NtCs6Pl1wmeKPjF_10bingo_core10rete_nodesNtB5_11ReteNetwork22fact_matches_condition
FN:1283,_RNvMs6_NtCs6Pl1wmeKPjF_10bingo_core10rete_nodesNtB5_11ReteNetwork22fields_likely_joinable
FN:1232,_RNvMs6_NtCs6Pl1wmeKPjF_10bingo_core10rete_nodesNtB5_11ReteNetwork22get_alpha_memory_stats
FN:1249,_RNvMs6_NtCs6Pl1wmeKPjF_10bingo_core10rete_nodesNtB5_11ReteNetwork28configure_hash_join_for_rule
FN:1237,_RNvMs6_NtCs6Pl1wmeKPjF_10bingo_core10rete_nodesNtB5_11ReteNetwork28get_action_result_pool_stats
FN:859,_RNvMs6_NtCs6Pl1wmeKPjF_10bingo_core10rete_nodesNtB5_11ReteNetwork28process_multi_condition_rule
FN:751,_RNvMs6_NtCs6Pl1wmeKPjF_10bingo_core10rete_nodesNtB5_11ReteNetwork3new
FN:770,_RNvMs6_NtCs6Pl1wmeKPjF_10bingo_core10rete_nodesNtB5_11ReteNetwork8add_rule
FN:1218,_RNvMs6_NtCs6Pl1wmeKPjF_10bingo_core10rete_nodesNtB5_11ReteNetwork9get_stats
FN:1845,_RNvMs8_NtCs6Pl1wmeKPjF_10bingo_core10rete_nodesNtB5_12ActionResult11get_message
FN:1835,_RNvMs8_NtCs6Pl1wmeKPjF_10bingo_core10rete_nodesNtB5_12ActionResult11lazy_logged
FN:1840,_RNvMs8_NtCs6Pl1wmeKPjF_10bingo_core10rete_nodesNtB5_12ActionResult6logged
FN:160,_RNvMs_NtCs6Pl1wmeKPjF_10bingo_core10rete_nodesNtB4_16ActionResultPool10return_vec
FN:148,_RNvMs_NtCs6Pl1wmeKPjF_10bingo_core10rete_nodesNtB4_16ActionResultPool3get
FN:139,_RNvMs_NtCs6Pl1wmeKPjF_10bingo_core10rete_nodesNtB4_16ActionResultPool3new
FN:168,_RNvMs_NtCs6Pl1wmeKPjF_10bingo_core10rete_nodesNtB4_16ActionResultPool5stats
FN:176,_RNvMs_NtCs6Pl1wmeKPjF_10bingo_core10rete_nodesNtB4_16ActionResultPool8hit_rate
FN:1928,_RNvNtCs6Pl1wmeKPjF_10bingo_core10rete_nodes16evaluate_operand
FN:1947,_RNvNtCs6Pl1wmeKPjF_10bingo_core10rete_nodes25evaluate_binary_operation
FN:1864,_RNvNtCs6Pl1wmeKPjF_10bingo_core10rete_nodes27evaluate_formula_expression
FN:1912,_RNvNtCs6Pl1wmeKPjF_10bingo_core10rete_nodes30parse_simple_binary_expression
FN:189,_RNvXs0_NtCs6Pl1wmeKPjF_10bingo_core10rete_nodesNtB5_16ActionResultPoolNtNtCsd2KPTObkMr_4core7default7Default7default
FN:258,_RNvXs2_NtCs6Pl1wmeKPjF_10bingo_core10rete_nodesNtB5_13HashJoinIndexNtNtCsd2KPTObkMr_4core7default7Default7default
FN:707,_RNvXs5_NtCs6Pl1wmeKPjF_10bingo_core10rete_nodesNtB5_10BetaMemoryNtNtCsd2KPTObkMr_4core7default7Default7default
FN:1323,_RNvXs7_NtCs6Pl1wmeKPjF_10bingo_core10rete_nodesNtB5_11ReteNetworkNtNtCsd2KPTObkMr_4core7default7Default7default
FN:92,_RNCNvMNtCs6Pl1wmeKPjF_10bingo_core10rete_nodesNtB4_11AlphaMemory9get_stats0B6_
FN:97,_RNCNvMNtCs6Pl1wmeKPjF_10bingo_core10rete_nodesNtB4_11AlphaMemory9get_statss0_0B6_
FN:96,_RNCNvMNtCs6Pl1wmeKPjF_10bingo_core10rete_nodesNtB4_11AlphaMemory9get_statss_0B6_
FN:231,_RNCNvMs1_NtCs6Pl1wmeKPjF_10bingo_core10rete_nodesNtB7_12PartialMatch14add_fact_match0B9_
FN:320,_RNCNvMs3_NtCs6Pl1wmeKPjF_10bingo_core10rete_nodesNtB7_13HashJoinIndex11remove_fact0B9_
FN:340,_RNCNvMs3_NtCs6Pl1wmeKPjF_10bingo_core10rete_nodesNtB7_13HashJoinIndex9get_stats0B9_
FN:345,_RNCNvMs3_NtCs6Pl1wmeKPjF_10bingo_core10rete_nodesNtB7_13HashJoinIndex9get_statss0_0B9_
FN:344,_RNCNvMs3_NtCs6Pl1wmeKPjF_10bingo_core10rete_nodesNtB7_13HashJoinIndex9get_statss_0B9_
FN:689,_RNCNvMs4_NtCs6Pl1wmeKPjF_10bingo_core10rete_nodesNtB7_10BetaMemory19get_hash_join_stats0B9_
FN:631,_RNCNvMs4_NtCs6Pl1wmeKPjF_10bingo_core10rete_nodesNtB7_10BetaMemory19get_partial_matches0B9_
FN:421,_RNCNvMs4_NtCs6Pl1wmeKPjF_10bingo_core10rete_nodesNtB7_10BetaMemory20index_fact_for_joins0B9_
FN:641,_RNCNvMs4_NtCs6Pl1wmeKPjF_10bingo_core10rete_nodesNtB7_10BetaMemory23cleanup_expired_matches0B9_
FN:665,_RNCNvMs4_NtCs6Pl1wmeKPjF_10bingo_core10rete_nodesNtB7_10BetaMemory23cleanup_expired_matchess0_0B9_
FN:649,_RNCNvMs4_NtCs6Pl1wmeKPjF_10bingo_core10rete_nodesNtB7_10BetaMemory23cleanup_expired_matchess_0B9_
FN:671,_RNCNvMs4_NtCs6Pl1wmeKPjF_10bingo_core10rete_nodesNtB7_10BetaMemory9get_stats0B9_
FN:92,_RNCNvMNtCscF0MZJB4Qop_10bingo_core10rete_nodesNtB4_11AlphaMemory9get_stats0B6_
FN:97,_RNCNvMNtCscF0MZJB4Qop_10bingo_core10rete_nodesNtB4_11AlphaMemory9get_statss0_0B6_
FN:96,_RNCNvMNtCscF0MZJB4Qop_10bingo_core10rete_nodesNtB4_11AlphaMemory9get_statss_0B6_
FN:320,_RNCNvMs3_NtCscF0MZJB4Qop_10bingo_core10rete_nodesNtB7_13HashJoinIndex11remove_fact0B9_
FN:340,_RNCNvMs3_NtCscF0MZJB4Qop_10bingo_core10rete_nodesNtB7_13HashJoinIndex9get_stats0B9_
FN:345,_RNCNvMs3_NtCscF0MZJB4Qop_10bingo_core10rete_nodesNtB7_13HashJoinIndex9get_statss0_0B9_
FN:344,_RNCNvMs3_NtCscF0MZJB4Qop_10bingo_core10rete_nodesNtB7_13HashJoinIndex9get_statss_0B9_
FN:689,_RNCNvMs4_NtCscF0MZJB4Qop_10bingo_core10rete_nodesNtB7_10BetaMemory19get_hash_join_stats0B9_
FN:631,_RNCNvMs4_NtCscF0MZJB4Qop_10bingo_core10rete_nodesNtB7_10BetaMemory19get_partial_matches0B9_
FN:421,_RNCNvMs4_NtCscF0MZJB4Qop_10bingo_core10rete_nodesNtB7_10BetaMemory20index_fact_for_joins0B9_
FN:109,_RNvMNtCscF0MZJB4Qop_10bingo_core10rete_nodesNtB2_11AlphaMemory21estimate_memory_usage
FN:84,_RNvMNtCscF0MZJB4Qop_10bingo_core10rete_nodesNtB2_11AlphaMemory5clear
FN:90,_RNvMNtCscF0MZJB4Qop_10bingo_core10rete_nodesNtB2_11AlphaMemory9get_stats
FN:269,_RNvMs3_NtCscF0MZJB4Qop_10bingo_core10rete_nodesNtB5_13HashJoinIndex10index_fact
FN:315,_RNvMs3_NtCscF0MZJB4Qop_10bingo_core10rete_nodesNtB5_13HashJoinIndex11remove_fact
FN:264,_RNvMs3_NtCscF0MZJB4Qop_10bingo_core10rete_nodesNtB5_13HashJoinIndex3new
FN:357,_RNvMs3_NtCscF0MZJB4Qop_10bingo_core10rete_nodesNtB5_13HashJoinIndex5clear
FN:338,_RNvMs3_NtCscF0MZJB4Qop_10bingo_core10rete_nodesNtB5_13HashJoinIndex9get_stats
FN:688,_RNvMs4_NtCscF0MZJB4Qop_10bingo_core10rete_nodesNtB5_10BetaMemory19get_hash_join_stats
FN:628,_RNvMs4_NtCscF0MZJB4Qop_10bingo_core10rete_nodesNtB5_10BetaMemory19get_partial_matches
FN:410,_RNvMs4_NtCscF0MZJB4Qop_10bingo_core10rete_nodesNtB5_10BetaMemory20configure_rule_joins
FN:416,_RNvMs4_NtCscF0MZJB4Qop_10bingo_core10rete_nodesNtB5_10BetaMemory20index_fact_for_joins
FN:693,_RNvMs4_NtCscF0MZJB4Qop_10bingo_core10rete_nodesNtB5_10BetaMemory5clear
FN:813,_RNvMs6_NtCscF0MZJB4Qop_10bingo_core10rete_nodesNtB5_11ReteNetwork13process_facts
FN:795,_RNvMs6_NtCscF0MZJB4Qop_10bingo_core10rete_nodesNtB5_11ReteNetwork16generate_fact_id
FN:802,_RNvMs6_NtCscF0MZJB4Qop_10bingo_core10rete_nodesNtB5_11ReteNetwork17get_created_facts
FN:807,_RNvMs6_NtCscF0MZJB4Qop_10bingo_core10rete_nodesNtB5_11ReteNetwork19clear_created_facts
FN:1244,_RNvMs6_NtCscF0MZJB4Qop_10bingo_core10rete_nodesNtB5_11ReteNetwork21get_beta_memory_stats
FN:964,_RNvMs6_NtCscF0MZJB4Qop_10bingo_core10rete_nodesNtB5_11ReteNetwork22execute_rule_optimized
FN:891,_RNvMs6_NtCscF0MZJB4Qop_10bingo_core10rete_nodesNtB5_11ReteNetwork22fact_matches_condition
FN:1283,_RNvMs6_NtCscF0MZJB4Qop_10bingo_core10rete_nodesNtB5_11ReteNetwork22fields_likely_joinable
FN:1232,_RNvMs6_NtCscF0MZJB4Qop_10bingo_core10rete_nodesNtB5_11ReteNetwork22get_alpha_memory_stats
FN:1249,_RNvMs6_NtCscF0MZJB4Qop_10bingo_core10rete_nodesNtB5_11ReteNetwork28configure_hash_join_for_rule
FN:1237,_RNvMs6_NtCscF0MZJB4Qop_10bingo_core10rete_nodesNtB5_11ReteNetwork28get_action_result_pool_stats
FN:859,_RNvMs6_NtCscF0MZJB4Qop_10bingo_core10rete_nodesNtB5_11ReteNetwork28process_multi_condition_rule
FN:1218,_RNvMs6_NtCscF0MZJB4Qop_10bingo_core10rete_nodesNtB5_11ReteNetwork9get_stats
FN:1845,_RNvMs8_NtCscF0MZJB4Qop_10bingo_core10rete_nodesNtB5_12ActionResult11get_message
FN:1835,_RNvMs8_NtCscF0MZJB4Qop_10bingo_core10rete_nodesNtB5_12ActionResult11lazy_logged
FN:1928,_RNvNtCscF0MZJB4Qop_10bingo_core10rete_nodes16evaluate_operand
FN:1947,_RNvNtCscF0MZJB4Qop_10bingo_core10rete_nodes25evaluate_binary_operation
FN:1864,_RNvNtCscF0MZJB4Qop_10bingo_core10rete_nodes27evaluate_formula_expression
FN:1912,_RNvNtCscF0MZJB4Qop_10bingo_core10rete_nodes30parse_simple_binary_expression
FN:189,_RNvXs0_NtCscF0MZJB4Qop_10bingo_core10rete_nodesNtB5_16ActionResultPoolNtNtCsd2KPTObkMr_4core7default7Default7default
FN:258,_RNvXs2_NtCscF0MZJB4Qop_10bingo_core10rete_nodesNtB5_13HashJoinIndexNtNtCsd2KPTObkMr_4core7default7Default7default
FN:707,_RNvXs5_NtCscF0MZJB4Qop_10bingo_core10rete_nodesNtB5_10BetaMemoryNtNtCsd2KPTObkMr_4core7default7Default7default
FN:1323,_RNvXs7_NtCscF0MZJB4Qop_10bingo_core10rete_nodesNtB5_11ReteNetworkNtNtCsd2KPTObkMr_4core7default7Default7default
FN:231,_RNCNvMs1_NtCscF0MZJB4Qop_10bingo_core10rete_nodesNtB7_12PartialMatch14add_fact_match0B9_
FN:641,_RNCNvMs4_NtCscF0MZJB4Qop_10bingo_core10rete_nodesNtB7_10BetaMemory23cleanup_expired_matches0B9_
FN:665,_RNCNvMs4_NtCscF0MZJB4Qop_10bingo_core10rete_nodesNtB7_10BetaMemory23cleanup_expired_matchess0_0B9_
FN:649,_RNCNvMs4_NtCscF0MZJB4Qop_10bingo_core10rete_nodesNtB7_10BetaMemory23cleanup_expired_matchess_0B9_
FN:671,_RNCNvMs4_NtCscF0MZJB4Qop_10bingo_core10rete_nodesNtB7_10BetaMemory9get_stats0B9_
FN:1579,_RNvNtNtCscF0MZJB4Qop_10bingo_core10rete_nodes5testss_23test_action_result_pool
FN:1747,_RNvNtNtCscF0MZJB4Qop_10bingo_core10rete_nodes5testss_24test_beta_memory_cleanup
FN:1338,_RNvNtNtCscF0MZJB4Qop_10bingo_core10rete_nodes5testss_26test_alpha_memory_indexing
FN:1626,_RNvNtNtCscF0MZJB4Qop_10bingo_core10rete_nodes5testss_27test_partial_match_creation
FN:1608,_RNvNtNtCscF0MZJB4Qop_10bingo_core10rete_nodes5testss_28test_action_result_vec_reuse
FN:1372,_RNvNtNtCscF0MZJB4Qop_10bingo_core10rete_nodes5testss_28test_alpha_memory_no_matches
FN:1468,_RNvNtNtCscF0MZJB4Qop_10bingo_core10rete_nodes5testss_28test_calculator_hashmap_pool
FN:1515,_RNvNtNtCscF0MZJB4Qop_10bingo_core10rete_nodes5testss_28test_calculator_result_cache
FN:1497,_RNvNtNtCscF0MZJB4Qop_10bingo_core10rete_nodes5testss_29test_calculator_hashmap_reuse
FN:1402,_RNvNtNtCscF0MZJB4Qop_10bingo_core10rete_nodes5testss_33test_alpha_memory_universal_rules
FN:1430,_RNvNtNtCscF0MZJB4Qop_10bingo_core10rete_nodes5testss_35test_rete_network_with_alpha_memory
FN:1548,_RNvNtNtCscF0MZJB4Qop_10bingo_core10rete_nodes5testss_38test_calculator_cache_different_inputs
FN:1656,_RNvNtNtCscF0MZJB4Qop_10bingo_core10rete_nodes5testss_40test_beta_memory_partial_match_lifecycle
FN:1694,_RNvNtNtCscF0MZJB4Qop_10bingo_core10rete_nodes5testss_41test_beta_memory_multiple_partial_matches
FN:61,_RNvMNtCscF0MZJB4Qop_10bingo_core10rete_nodesNtB2_11AlphaMemory20find_candidate_rules
FN:28,_RNvMNtCscF0MZJB4Qop_10bingo_core10rete_nodesNtB2_11AlphaMemory20index_rule_condition
FN:23,_RNvMNtCscF0MZJB4Qop_10bingo_core10rete_nodesNtB2_11AlphaMemory3new
FN:243,_RNvMs1_NtCscF0MZJB4Qop_10bingo_core10rete_nodesNtB5_12PartialMatch10is_expired
FN:222,_RNvMs1_NtCscF0MZJB4Qop_10bingo_core10rete_nodesNtB5_12PartialMatch11is_complete
FN:236,_RNvMs1_NtCscF0MZJB4Qop_10bingo_core10rete_nodesNtB5_12PartialMatch12get_fact_ids
FN:227,_RNvMs1_NtCscF0MZJB4Qop_10bingo_core10rete_nodesNtB5_12PartialMatch14add_fact_match
FN:211,_RNvMs1_NtCscF0MZJB4Qop_10bingo_core10rete_nodesNtB5_12PartialMatch3new
FN:291,_RNvMs3_NtCscF0MZJB4Qop_10bingo_core10rete_nodesNtB5_13HashJoinIndex20find_join_candidates
FN:433,_RNvMs4_NtCscF0MZJB4Qop_10bingo_core10rete_nodesNtB5_10BetaMemory19start_partial_match
FN:558,_RNvMs4_NtCscF0MZJB4Qop_10bingo_core10rete_nodesNtB5_10BetaMemory22extend_with_candidates
FN:636,_RNvMs4_NtCscF0MZJB4Qop_10bingo_core10rete_nodesNtB5_10BetaMemory23cleanup_expired_matches
FN:597,_RNvMs4_NtCscF0MZJB4Qop_10bingo_core10rete_nodesNtB5_10BetaMemory24extend_without_hash_join
FN:454,_RNvMs4_NtCscF0MZJB4Qop_10bingo_core10rete_nodesNtB5_10BetaMemory27process_fact_with_hash_join
FN:516,_RNvMs4_NtCscF0MZJB4Qop_10bingo_core10rete_nodesNtB5_10BetaMemory28fact_matches_first_condition
FN:394,_RNvMs4_NtCscF0MZJB4Qop_10bingo_core10rete_nodesNtB5_10BetaMemory3new
FN:669,_RNvMs4_NtCscF0MZJB4Qop_10bingo_core10rete_nodesNtB5_10BetaMemory9get_stats
FN:751,_RNvMs6_NtCscF0MZJB4Qop_10bingo_core10rete_nodesNtB5_11ReteNetwork3new
FN:770,_RNvMs6_NtCscF0MZJB4Qop_10bingo_core10rete_nodesNtB5_11ReteNetwork8add_rule
FN:1840,_RNvMs8_NtCscF0MZJB4Qop_10bingo_core10rete_nodesNtB5_12ActionResult6logged
FN:160,_RNvMs_NtCscF0MZJB4Qop_10bingo_core10rete_nodesNtB4_16ActionResultPool10return_vec
FN:148,_RNvMs_NtCscF0MZJB4Qop_10bingo_core10rete_nodesNtB4_16ActionResultPool3get
FN:139,_RNvMs_NtCscF0MZJB4Qop_10bingo_core10rete_nodesNtB4_16ActionResultPool3new
FN:168,_RNvMs_NtCscF0MZJB4Qop_10bingo_core10rete_nodesNtB4_16ActionResultPool5stats
FN:176,_RNvMs_NtCscF0MZJB4Qop_10bingo_core10rete_nodesNtB4_16ActionResultPool8hit_rate
FNDA:0,_RNvMNtCs6Pl1wmeKPjF_10bingo_core10rete_nodesNtB2_11AlphaMemory20find_candidate_rules
FNDA:0,_RNvMNtCs6Pl1wmeKPjF_10bingo_core10rete_nodesNtB2_11AlphaMemory20index_rule_condition
FNDA:0,_RNvMNtCs6Pl1wmeKPjF_10bingo_core10rete_nodesNtB2_11AlphaMemory21estimate_memory_usage
FNDA:0,_RNvMNtCs6Pl1wmeKPjF_10bingo_core10rete_nodesNtB2_11AlphaMemory3new
FNDA:0,_RNvMNtCs6Pl1wmeKPjF_10bingo_core10rete_nodesNtB2_11AlphaMemory5clear
FNDA:0,_RNvMNtCs6Pl1wmeKPjF_10bingo_core10rete_nodesNtB2_11AlphaMemory9get_stats
FNDA:0,_RNvMs1_NtCs6Pl1wmeKPjF_10bingo_core10rete_nodesNtB5_12PartialMatch10is_expired
FNDA:0,_RNvMs1_NtCs6Pl1wmeKPjF_10bingo_core10rete_nodesNtB5_12PartialMatch11is_complete
FNDA:0,_RNvMs1_NtCs6Pl1wmeKPjF_10bingo_core10rete_nodesNtB5_12PartialMatch12get_fact_ids
FNDA:0,_RNvMs1_NtCs6Pl1wmeKPjF_10bingo_core10rete_nodesNtB5_12PartialMatch14add_fact_match
FNDA:0,_RNvMs1_NtCs6Pl1wmeKPjF_10bingo_core10rete_nodesNtB5_12PartialMatch3new
FNDA:0,_RNvMs3_NtCs6Pl1wmeKPjF_10bingo_core10rete_nodesNtB5_13HashJoinIndex10index_fact
FNDA:0,_RNvMs3_NtCs6Pl1wmeKPjF_10bingo_core10rete_nodesNtB5_13HashJoinIndex11remove_fact
FNDA:0,_RNvMs3_NtCs6Pl1wmeKPjF_10bingo_core10rete_nodesNtB5_13HashJoinIndex20find_join_candidates
FNDA:0,_RNvMs3_NtCs6Pl1wmeKPjF_10bingo_core10rete_nodesNtB5_13HashJoinIndex3new
FNDA:0,_RNvMs3_NtCs6Pl1wmeKPjF_10bingo_core10rete_nodesNtB5_13HashJoinIndex5clear
FNDA:0,_RNvMs3_NtCs6Pl1wmeKPjF_10bingo_core10rete_nodesNtB5_13HashJoinIndex9get_stats
FNDA:0,_RNvMs4_NtCs6Pl1wmeKPjF_10bingo_core10rete_nodesNtB5_10BetaMemory19get_hash_join_stats
FNDA:0,_RNvMs4_NtCs6Pl1wmeKPjF_10bingo_core10rete_nodesNtB5_10BetaMemory19get_partial_matches
FNDA:0,_RNvMs4_NtCs6Pl1wmeKPjF_10bingo_core10rete_nodesNtB5_10BetaMemory19start_partial_match
FNDA:0,_RNvMs4_NtCs6Pl1wmeKPjF_10bingo_core10rete_nodesNtB5_10BetaMemory20configure_rule_joins
FNDA:0,_RNvMs4_NtCs6Pl1wmeKPjF_10bingo_core10rete_nodesNtB5_10BetaMemory20index_fact_for_joins
FNDA:0,_RNvMs4_NtCs6Pl1wmeKPjF_10bingo_core10rete_nodesNtB5_10BetaMemory22extend_with_candidates
FNDA:0,_RNvMs4_NtCs6Pl1wmeKPjF_10bingo_core10rete_nodesNtB5_10BetaMemory23cleanup_expired_matches
FNDA:0,_RNvMs4_NtCs6Pl1wmeKPjF_10bingo_core10rete_nodesNtB5_10BetaMemory24extend_without_hash_join
FNDA:0,_RNvMs4_NtCs6Pl1wmeKPjF_10bingo_core10rete_nodesNtB5_10BetaMemory27process_fact_with_hash_join
FNDA:0,_RNvMs4_NtCs6Pl1wmeKPjF_10bingo_core10rete_nodesNtB5_10BetaMemory28fact_matches_first_condition
FNDA:0,_RNvMs4_NtCs6Pl1wmeKPjF_10bingo_core10rete_nodesNtB5_10BetaMemory3new
FNDA:0,_RNvMs4_NtCs6Pl1wmeKPjF_10bingo_core10rete_nodesNtB5_10BetaMemory5clear
FNDA:0,_RNvMs4_NtCs6Pl1wmeKPjF_10bingo_core10rete_nodesNtB5_10BetaMemory9get_stats
FNDA:0,_RNvMs6_NtCs6Pl1wmeKPjF_10bingo_core10rete_nodesNtB5_11ReteNetwork13process_facts
FNDA:0,_RNvMs6_NtCs6Pl1wmeKPjF_10bingo_core10rete_nodesNtB5_11ReteNetwork16generate_fact_id
FNDA:0,_RNvMs6_NtCs6Pl1wmeKPjF_10bingo_core10rete_nodesNtB5_11ReteNetwork17get_created_facts
FNDA:0,_RNvMs6_NtCs6Pl1wmeKPjF_10bingo_core10rete_nodesNtB5_11ReteNetwork19clear_created_facts
FNDA:0,_RNvMs6_NtCs6Pl1wmeKPjF_10bingo_core10rete_nodesNtB5_11ReteNetwork21get_beta_memory_stats
FNDA:0,_RNvMs6_NtCs6Pl1wmeKPjF_10bingo_core10rete_nodesNtB5_11ReteNetwork22execute_rule_optimized
FNDA:0,_RNvMs6_NtCs6Pl1wmeKPjF_10bingo_core10rete_nodesNtB5_11ReteNetwork22fact_matches_condition
FNDA:0,_RNvMs6_NtCs6Pl1wmeKPjF_10bingo_core10rete_nodesNtB5_11ReteNetwork22fields_likely_joinable
FNDA:0,_RNvMs6_NtCs6Pl1wmeKPjF_10bingo_core10rete_nodesNtB5_11ReteNetwork22get_alpha_memory_stats
FNDA:0,_RNvMs6_NtCs6Pl1wmeKPjF_10bingo_core10rete_nodesNtB5_11ReteNetwork28configure_hash_join_for_rule
FNDA:0,_RNvMs6_NtCs6Pl1wmeKPjF_10bingo_core10rete_nodesNtB5_11ReteNetwork28get_action_result_pool_stats
FNDA:0,_RNvMs6_NtCs6Pl1wmeKPjF_10bingo_core10rete_nodesNtB5_11ReteNetwork28process_multi_condition_rule
FNDA:0,_RNvMs6_NtCs6Pl1wmeKPjF_10bingo_core10rete_nodesNtB5_11ReteNetwork3new
FNDA:0,_RNvMs6_NtCs6Pl1wmeKPjF_10bingo_core10rete_nodesNtB5_11ReteNetwork8add_rule
FNDA:0,_RNvMs6_NtCs6Pl1wmeKPjF_10bingo_core10rete_nodesNtB5_11ReteNetwork9get_stats
FNDA:0,_RNvMs8_NtCs6Pl1wmeKPjF_10bingo_core10rete_nodesNtB5_12ActionResult11get_message
FNDA:0,_RNvMs8_NtCs6Pl1wmeKPjF_10bingo_core10rete_nodesNtB5_12ActionResult11lazy_logged
FNDA:0,_RNvMs8_NtCs6Pl1wmeKPjF_10bingo_core10rete_nodesNtB5_12ActionResult6logged
FNDA:0,_RNvMs_NtCs6Pl1wmeKPjF_10bingo_core10rete_nodesNtB4_16ActionResultPool10return_vec
FNDA:0,_RNvMs_NtCs6Pl1wmeKPjF_10bingo_core10rete_nodesNtB4_16ActionResultPool3get
FNDA:0,_RNvMs_NtCs6Pl1wmeKPjF_10bingo_core10rete_nodesNtB4_16ActionResultPool3new
FNDA:0,_RNvMs_NtCs6Pl1wmeKPjF_10bingo_core10rete_nodesNtB4_16ActionResultPool5stats
FNDA:0,_RNvMs_NtCs6Pl1wmeKPjF_10bingo_core10rete_nodesNtB4_16ActionResultPool8hit_rate
FNDA:0,_RNvNtCs6Pl1wmeKPjF_10bingo_core10rete_nodes16evaluate_operand
FNDA:0,_RNvNtCs6Pl1wmeKPjF_10bingo_core10rete_nodes25evaluate_binary_operation
FNDA:0,_RNvNtCs6Pl1wmeKPjF_10bingo_core10rete_nodes27evaluate_formula_expression
FNDA:0,_RNvNtCs6Pl1wmeKPjF_10bingo_core10rete_nodes30parse_simple_binary_expression
FNDA:0,_RNvXs0_NtCs6Pl1wmeKPjF_10bingo_core10rete_nodesNtB5_16ActionResultPoolNtNtCsd2KPTObkMr_4core7default7Default7default
FNDA:0,_RNvXs2_NtCs6Pl1wmeKPjF_10bingo_core10rete_nodesNtB5_13HashJoinIndexNtNtCsd2KPTObkMr_4core7default7Default7default
FNDA:0,_RNvXs5_NtCs6Pl1wmeKPjF_10bingo_core10rete_nodesNtB5_10BetaMemoryNtNtCsd2KPTObkMr_4core7default7Default7default
FNDA:0,_RNvXs7_NtCs6Pl1wmeKPjF_10bingo_core10rete_nodesNtB5_11ReteNetworkNtNtCsd2KPTObkMr_4core7default7Default7default
FNDA:0,_RNCNvMNtCs6Pl1wmeKPjF_10bingo_core10rete_nodesNtB4_11AlphaMemory9get_stats0B6_
FNDA:0,_RNCNvMNtCs6Pl1wmeKPjF_10bingo_core10rete_nodesNtB4_11AlphaMemory9get_statss0_0B6_
FNDA:0,_RNCNvMNtCs6Pl1wmeKPjF_10bingo_core10rete_nodesNtB4_11AlphaMemory9get_statss_0B6_
FNDA:0,_RNCNvMs1_NtCs6Pl1wmeKPjF_10bingo_core10rete_nodesNtB7_12PartialMatch14add_fact_match0B9_
FNDA:0,_RNCNvMs3_NtCs6Pl1wmeKPjF_10bingo_core10rete_nodesNtB7_13HashJoinIndex11remove_fact0B9_
FNDA:0,_RNCNvMs3_NtCs6Pl1wmeKPjF_10bingo_core10rete_nodesNtB7_13HashJoinIndex9get_stats0B9_
FNDA:0,_RNCNvMs3_NtCs6Pl1wmeKPjF_10bingo_core10rete_nodesNtB7_13HashJoinIndex9get_statss0_0B9_
FNDA:0,_RNCNvMs3_NtCs6Pl1wmeKPjF_10bingo_core10rete_nodesNtB7_13HashJoinIndex9get_statss_0B9_
FNDA:0,_RNCNvMs4_NtCs6Pl1wmeKPjF_10bingo_core10rete_nodesNtB7_10BetaMemory19get_hash_join_stats0B9_
FNDA:0,_RNCNvMs4_NtCs6Pl1wmeKPjF_10bingo_core10rete_nodesNtB7_10BetaMemory19get_partial_matches0B9_
FNDA:0,_RNCNvMs4_NtCs6Pl1wmeKPjF_10bingo_core10rete_nodesNtB7_10BetaMemory20index_fact_for_joins0B9_
FNDA:0,_RNCNvMs4_NtCs6Pl1wmeKPjF_10bingo_core10rete_nodesNtB7_10BetaMemory23cleanup_expired_matches0B9_
FNDA:0,_RNCNvMs4_NtCs6Pl1wmeKPjF_10bingo_core10rete_nodesNtB7_10BetaMemory23cleanup_expired_matchess0_0B9_
FNDA:0,_RNCNvMs4_NtCs6Pl1wmeKPjF_10bingo_core10rete_nodesNtB7_10BetaMemory23cleanup_expired_matchess_0B9_
FNDA:0,_RNCNvMs4_NtCs6Pl1wmeKPjF_10bingo_core10rete_nodesNtB7_10BetaMemory9get_stats0B9_
FNDA:0,_RNCNvMNtCscF0MZJB4Qop_10bingo_core10rete_nodesNtB4_11AlphaMemory9get_stats0B6_
FNDA:0,_RNCNvMNtCscF0MZJB4Qop_10bingo_core10rete_nodesNtB4_11AlphaMemory9get_statss0_0B6_
FNDA:0,_RNCNvMNtCscF0MZJB4Qop_10bingo_core10rete_nodesNtB4_11AlphaMemory9get_statss_0B6_
FNDA:0,_RNCNvMs3_NtCscF0MZJB4Qop_10bingo_core10rete_nodesNtB7_13HashJoinIndex11remove_fact0B9_
FNDA:0,_RNCNvMs3_NtCscF0MZJB4Qop_10bingo_core10rete_nodesNtB7_13HashJoinIndex9get_stats0B9_
FNDA:0,_RNCNvMs3_NtCscF0MZJB4Qop_10bingo_core10rete_nodesNtB7_13HashJoinIndex9get_statss0_0B9_
FNDA:0,_RNCNvMs3_NtCscF0MZJB4Qop_10bingo_core10rete_nodesNtB7_13HashJoinIndex9get_statss_0B9_
FNDA:0,_RNCNvMs4_NtCscF0MZJB4Qop_10bingo_core10rete_nodesNtB7_10BetaMemory19get_hash_join_stats0B9_
FNDA:0,_RNCNvMs4_NtCscF0MZJB4Qop_10bingo_core10rete_nodesNtB7_10BetaMemory19get_partial_matches0B9_
FNDA:0,_RNCNvMs4_NtCscF0MZJB4Qop_10bingo_core10rete_nodesNtB7_10BetaMemory20index_fact_for_joins0B9_
FNDA:0,_RNvMNtCscF0MZJB4Qop_10bingo_core10rete_nodesNtB2_11AlphaMemory21estimate_memory_usage
FNDA:0,_RNvMNtCscF0MZJB4Qop_10bingo_core10rete_nodesNtB2_11AlphaMemory5clear
FNDA:0,_RNvMNtCscF0MZJB4Qop_10bingo_core10rete_nodesNtB2_11AlphaMemory9get_stats
FNDA:0,_RNvMs3_NtCscF0MZJB4Qop_10bingo_core10rete_nodesNtB5_13HashJoinIndex10index_fact
FNDA:0,_RNvMs3_NtCscF0MZJB4Qop_10bingo_core10rete_nodesNtB5_13HashJoinIndex11remove_fact
FNDA:0,_RNvMs3_NtCscF0MZJB4Qop_10bingo_core10rete_nodesNtB5_13HashJoinIndex3new
FNDA:0,_RNvMs3_NtCscF0MZJB4Qop_10bingo_core10rete_nodesNtB5_13HashJoinIndex5clear
FNDA:0,_RNvMs3_NtCscF0MZJB4Qop_10bingo_core10rete_nodesNtB5_13HashJoinIndex9get_stats
FNDA:0,_RNvMs4_NtCscF0MZJB4Qop_10bingo_core10rete_nodesNtB5_10BetaMemory19get_hash_join_stats
FNDA:0,_RNvMs4_NtCscF0MZJB4Qop_10bingo_core10rete_nodesNtB5_10BetaMemory19get_partial_matches
FNDA:0,_RNvMs4_NtCscF0MZJB4Qop_10bingo_core10rete_nodesNtB5_10BetaMemory20configure_rule_joins
FNDA:0,_RNvMs4_NtCscF0MZJB4Qop_10bingo_core10rete_nodesNtB5_10BetaMemory20index_fact_for_joins
FNDA:0,_RNvMs4_NtCscF0MZJB4Qop_10bingo_core10rete_nodesNtB5_10BetaMemory5clear
FNDA:0,_RNvMs6_NtCscF0MZJB4Qop_10bingo_core10rete_nodesNtB5_11ReteNetwork13process_facts
FNDA:0,_RNvMs6_NtCscF0MZJB4Qop_10bingo_core10rete_nodesNtB5_11ReteNetwork16generate_fact_id
FNDA:0,_RNvMs6_NtCscF0MZJB4Qop_10bingo_core10rete_nodesNtB5_11ReteNetwork17get_created_facts
FNDA:0,_RNvMs6_NtCscF0MZJB4Qop_10bingo_core10rete_nodesNtB5_11ReteNetwork19clear_created_facts
FNDA:0,_RNvMs6_NtCscF0MZJB4Qop_10bingo_core10rete_nodesNtB5_11ReteNetwork21get_beta_memory_stats
FNDA:0,_RNvMs6_NtCscF0MZJB4Qop_10bingo_core10rete_nodesNtB5_11ReteNetwork22execute_rule_optimized
FNDA:0,_RNvMs6_NtCscF0MZJB4Qop_10bingo_core10rete_nodesNtB5_11ReteNetwork22fact_matches_condition
FNDA:0,_RNvMs6_NtCscF0MZJB4Qop_10bingo_core10rete_nodesNtB5_11ReteNetwork22fields_likely_joinable
FNDA:0,_RNvMs6_NtCscF0MZJB4Qop_10bingo_core10rete_nodesNtB5_11ReteNetwork22get_alpha_memory_stats
FNDA:0,_RNvMs6_NtCscF0MZJB4Qop_10bingo_core10rete_nodesNtB5_11ReteNetwork28configure_hash_join_for_rule
FNDA:0,_RNvMs6_NtCscF0MZJB4Qop_10bingo_core10rete_nodesNtB5_11ReteNetwork28get_action_result_pool_stats
FNDA:0,_RNvMs6_NtCscF0MZJB4Qop_10bingo_core10rete_nodesNtB5_11ReteNetwork28process_multi_condition_rule
FNDA:0,_RNvMs6_NtCscF0MZJB4Qop_10bingo_core10rete_nodesNtB5_11ReteNetwork9get_stats
FNDA:0,_RNvMs8_NtCscF0MZJB4Qop_10bingo_core10rete_nodesNtB5_12ActionResult11get_message
FNDA:0,_RNvMs8_NtCscF0MZJB4Qop_10bingo_core10rete_nodesNtB5_12ActionResult11lazy_logged
FNDA:0,_RNvNtCscF0MZJB4Qop_10bingo_core10rete_nodes16evaluate_operand
FNDA:0,_RNvNtCscF0MZJB4Qop_10bingo_core10rete_nodes25evaluate_binary_operation
FNDA:0,_RNvNtCscF0MZJB4Qop_10bingo_core10rete_nodes27evaluate_formula_expression
FNDA:0,_RNvNtCscF0MZJB4Qop_10bingo_core10rete_nodes30parse_simple_binary_expression
FNDA:0,_RNvXs0_NtCscF0MZJB4Qop_10bingo_core10rete_nodesNtB5_16ActionResultPoolNtNtCsd2KPTObkMr_4core7default7Default7default
FNDA:0,_RNvXs2_NtCscF0MZJB4Qop_10bingo_core10rete_nodesNtB5_13HashJoinIndexNtNtCsd2KPTObkMr_4core7default7Default7default
FNDA:0,_RNvXs5_NtCscF0MZJB4Qop_10bingo_core10rete_nodesNtB5_10BetaMemoryNtNtCsd2KPTObkMr_4core7default7Default7default
FNDA:0,_RNvXs7_NtCscF0MZJB4Qop_10bingo_core10rete_nodesNtB5_11ReteNetworkNtNtCsd2KPTObkMr_4core7default7Default7default
FNDA:32,_RNCNvMs1_NtCscF0MZJB4Qop_10bingo_core10rete_nodesNtB7_12PartialMatch14add_fact_match0B9_
FNDA:1,_RNCNvMs4_NtCscF0MZJB4Qop_10bingo_core10rete_nodesNtB7_10BetaMemory23cleanup_expired_matches0B9_
FNDA:1,_RNCNvMs4_NtCscF0MZJB4Qop_10bingo_core10rete_nodesNtB7_10BetaMemory23cleanup_expired_matchess0_0B9_
FNDA:1,_RNCNvMs4_NtCscF0MZJB4Qop_10bingo_core10rete_nodesNtB7_10BetaMemory23cleanup_expired_matchess_0B9_
FNDA:7,_RNCNvMs4_NtCscF0MZJB4Qop_10bingo_core10rete_nodesNtB7_10BetaMemory9get_stats0B9_
FNDA:1,_RNvNtNtCscF0MZJB4Qop_10bingo_core10rete_nodes5testss_23test_action_result_pool
FNDA:1,_RNvNtNtCscF0MZJB4Qop_10bingo_core10rete_nodes5testss_24test_beta_memory_cleanup
FNDA:1,_RNvNtNtCscF0MZJB4Qop_10bingo_core10rete_nodes5testss_26test_alpha_memory_indexing
FNDA:1,_RNvNtNtCscF0MZJB4Qop_10bingo_core10rete_nodes5testss_27test_partial_match_creation
FNDA:1,_RNvNtNtCscF0MZJB4Qop_10bingo_core10rete_nodes5testss_28test_action_result_vec_reuse
FNDA:1,_RNvNtNtCscF0MZJB4Qop_10bingo_core10rete_nodes5testss_28test_alpha_memory_no_matches
FNDA:1,_RNvNtNtCscF0MZJB4Qop_10bingo_core10rete_nodes5testss_28test_calculator_hashmap_pool
FNDA:1,_RNvNtNtCscF0MZJB4Qop_10bingo_core10rete_nodes5testss_28test_calculator_result_cache
FNDA:1,_RNvNtNtCscF0MZJB4Qop_10bingo_core10rete_nodes5testss_29test_calculator_hashmap_reuse
FNDA:1,_RNvNtNtCscF0MZJB4Qop_10bingo_core10rete_nodes5testss_33test_alpha_memory_universal_rules
FNDA:1,_RNvNtNtCscF0MZJB4Qop_10bingo_core10rete_nodes5testss_35test_rete_network_with_alpha_memory
FNDA:1,_RNvNtNtCscF0MZJB4Qop_10bingo_core10rete_nodes5testss_38test_calculator_cache_different_inputs
FNDA:1,_RNvNtNtCscF0MZJB4Qop_10bingo_core10rete_nodes5testss_40test_beta_memory_partial_match_lifecycle
FNDA:1,_RNvNtNtCscF0MZJB4Qop_10bingo_core10rete_nodes5testss_41test_beta_memory_multiple_partial_matches
FNDA:4,_RNvMNtCscF0MZJB4Qop_10bingo_core10rete_nodesNtB2_11AlphaMemory20find_candidate_rules
FNDA:5,_RNvMNtCscF0MZJB4Qop_10bingo_core10rete_nodesNtB2_11AlphaMemory20index_rule_condition
FNDA:4,_RNvMNtCscF0MZJB4Qop_10bingo_core10rete_nodesNtB2_11AlphaMemory3new
FNDA:1,_RNvMs1_NtCscF0MZJB4Qop_10bingo_core10rete_nodesNtB5_12PartialMatch10is_expired
FNDA:9,_RNvMs1_NtCscF0MZJB4Qop_10bingo_core10rete_nodesNtB5_12PartialMatch11is_complete
FNDA:1,_RNvMs1_NtCscF0MZJB4Qop_10bingo_core10rete_nodesNtB5_12PartialMatch12get_fact_ids
FNDA:13,_RNvMs1_NtCscF0MZJB4Qop_10bingo_core10rete_nodesNtB5_12PartialMatch14add_fact_match
FNDA:6,_RNvMs1_NtCscF0MZJB4Qop_10bingo_core10rete_nodesNtB5_12PartialMatch3new
FNDA:0,_RNvMs3_NtCscF0MZJB4Qop_10bingo_core10rete_nodesNtB5_13HashJoinIndex20find_join_candidates
FNDA:5,_RNvMs4_NtCscF0MZJB4Qop_10bingo_core10rete_nodesNtB5_10BetaMemory19start_partial_match
FNDA:0,_RNvMs4_NtCscF0MZJB4Qop_10bingo_core10rete_nodesNtB5_10BetaMemory22extend_with_candidates
FNDA:1,_RNvMs4_NtCscF0MZJB4Qop_10bingo_core10rete_nodesNtB5_10BetaMemory23cleanup_expired_matches
FNDA:3,_RNvMs4_NtCscF0MZJB4Qop_10bingo_core10rete_nodesNtB5_10BetaMemory24extend_without_hash_join
FNDA:3,_RNvMs4_NtCscF0MZJB4Qop_10bingo_core10rete_nodesNtB5_10BetaMemory27process_fact_with_hash_join
FNDA:0,_RNvMs4_NtCscF0MZJB4Qop_10bingo_core10rete_nodesNtB5_10BetaMemory28fact_matches_first_condition
FNDA:4,_RNvMs4_NtCscF0MZJB4Qop_10bingo_core10rete_nodesNtB5_10BetaMemory3new
FNDA:6,_RNvMs4_NtCscF0MZJB4Qop_10bingo_core10rete_nodesNtB5_10BetaMemory9get_stats
FNDA:1,_RNvMs6_NtCscF0MZJB4Qop_10bingo_core10rete_nodesNtB5_11ReteNetwork3new
FNDA:1,_RNvMs6_NtCscF0MZJB4Qop_10bingo_core10rete_nodesNtB5_11ReteNetwork8add_rule
FNDA:1,_RNvMs8_NtCscF0MZJB4Qop_10bingo_core10rete_nodesNtB5_12ActionResult6logged
FNDA:4,_RNvMs_NtCscF0MZJB4Qop_10bingo_core10rete_nodesNtB4_16ActionResultPool10return_vec
FNDA:4,_RNvMs_NtCscF0MZJB4Qop_10bingo_core10rete_nodesNtB4_16ActionResultPool3get
FNDA:3,_RNvMs_NtCscF0MZJB4Qop_10bingo_core10rete_nodesNtB4_16ActionResultPool3new
FNDA:3,_RNvMs_NtCscF0MZJB4Qop_10bingo_core10rete_nodesNtB4_16ActionResultPool5stats
FNDA:1,_RNvMs_NtCscF0MZJB4Qop_10bingo_core10rete_nodesNtB4_16ActionResultPool8hit_rate
FNF:90
FNH:41
DA:23,4
DA:24,4
DA:25,4
DA:28,5
DA:29,5
DA:30,5
DA:33,5
DA:34,4
DA:35,4
DA:36,4
DA:37,4
DA:38,4
DA:39,4
DA:40,4
DA:41,4
DA:45,1
DA:46,1
DA:47,1
DA:53,0
DA:54,0
DA:55,0
DA:58,5
DA:61,4
DA:62,4
DA:65,4
DA:68,10
DA:69,6
DA:70,3
DA:71,2
DA:72,2
DA:73,3
DA:77,4
DA:78,4
DA:80,4
DA:81,4
DA:84,0
DA:85,0
DA:86,0
DA:87,0
DA:90,0
DA:91,0
DA:92,0
DA:93,0
DA:94,0
DA:95,0
DA:96,0
DA:97,0
DA:98,0
DA:100,0
DA:101,0
DA:102,0
DA:103,0
DA:104,0
DA:105,0
DA:106,0
DA:109,0
DA:110,0
DA:112,0
DA:113,0
DA:114,0
DA:115,0
DA:117,0
DA:118,0
DA:119,0
DA:120,0
DA:123,0
DA:124,0
DA:125,0
DA:139,3
DA:140,3
DA:141,3
DA:142,3
DA:143,3
DA:144,3
DA:145,3
DA:148,4
DA:149,4
DA:150,2
DA:151,2
DA:152,2
DA:154,2
DA:155,2
DA:157,4
DA:160,4
DA:162,4
DA:163,4
DA:164,4
DA:165,4
DA:168,3
DA:169,3
DA:170,3
DA:171,3
DA:172,3
DA:173,3
DA:176,1
DA:177,1
DA:178,1
DA:179,1
DA:180,1
DA:181,1
DA:183,0
DA:185,1
DA:189,0
DA:190,0
DA:191,0
DA:211,6
DA:212,6
DA:213,6
DA:214,6
DA:215,6
DA:216,6
DA:217,6
DA:218,6
DA:219,6
DA:222,9
DA:223,9
DA:224,9
DA:227,13
DA:228,13
DA:230,13
DA:231,32
DA:232,13
DA:233,13
DA:236,1
DA:237,1
DA:238,1
DA:239,1
DA:240,1
DA:243,1
DA:244,1
DA:245,1
DA:258,0
DA:259,0
DA:260,0
DA:264,0
DA:265,0
DA:266,0
DA:269,0
DA:270,0
DA:272,0
DA:273,0
DA:274,0
DA:275,0
DA:276,0
DA:277,0
DA:278,0
DA:279,0
DA:280,0
DA:281,0
DA:282,0
DA:285,0
DA:286,0
DA:287,0
DA:288,0
DA:291,0
DA:292,0
DA:293,0
DA:294,0
DA:295,0
DA:296,0
DA:298,0
DA:299,0
DA:300,0
DA:301,0
DA:302,0
DA:303,0
DA:304,0
DA:305,0
DA:309,0
DA:310,0
DA:311,0
DA:312,0
DA:315,0
DA:316,0
DA:317,0
DA:318,0
DA:319,0
DA:320,0
DA:323,0
DA:324,0
DA:325,0
DA:326,0
DA:329,0
DA:330,0
DA:331,0
DA:332,0
DA:334,0
DA:335,0
DA:338,0
DA:339,0
DA:340,0
DA:341,0
DA:342,0
DA:343,0
DA:344,0
DA:345,0
DA:346,0
DA:348,0
DA:349,0
DA:350,0
DA:351,0
DA:352,0
DA:353,0
DA:354,0
DA:357,0
DA:358,0
DA:359,0
DA:360,0
DA:394,4
DA:395,4
DA:396,4
DA:397,4
DA:398,4
DA:399,4
DA:400,4
DA:401,4
DA:402,4
DA:403,4
DA:404,4
DA:405,4
DA:406,4
DA:407,4
DA:410,0
DA:411,0
DA:412,0
DA:413,0
DA:416,0
DA:417,0
DA:419,0
DA:420,0
DA:421,0
DA:422,0
DA:423,0
DA:424,0
DA:426,0
DA:427,0
DA:428,0
DA:430,0
DA:433,5
DA:434,5
DA:435,5
DA:436,5
DA:437,5
DA:438,5
DA:439,5
DA:440,5
DA:442,5
DA:443,5
DA:444,5
DA:447,5
DA:449,5
DA:450,5
DA:451,5
DA:454,3
DA:455,3
DA:456,3
DA:457,3
DA:458,3
DA:459,3
DA:460,3
DA:461,3
DA:464,3
DA:467,3
DA:468,0
DA:470,0
DA:473,0
DA:474,0
DA:475,0
DA:476,0
DA:477,0
DA:478,0
DA:479,0
DA:480,0
DA:481,3
DA:484,3
DA:485,0
DA:486,0
DA:488,0
DA:489,0
DA:490,0
DA:491,0
DA:492,0
DA:493,0
DA:494,0
DA:495,0
DA:496,0
DA:497,0
DA:498,0
DA:499,0
DA:500,0
DA:501,0
DA:502,3
DA:503,3
DA:504,3
DA:505,3
DA:506,3
DA:507,3
DA:508,3
DA:509,3
DA:510,3
DA:512,3
DA:513,3
DA:516,0
DA:517,0
DA:518,0
DA:519,0
DA:520,0
DA:521,0
DA:522,0
DA:523,0
DA:524,0
DA:525,0
DA:526,0
DA:527,0
DA:529,0
DA:530,0
DA:531,0
DA:532,0
DA:534,0
DA:536,0
DA:537,0
DA:538,0
DA:539,0
DA:541,0
DA:543,0
DA:544,0
DA:545,0
DA:546,0
DA:550,0
DA:553,0
DA:555,0
DA:558,0
DA:559,0
DA:560,0
DA:561,0
DA:562,0
DA:563,0
DA:564,0
DA:565,0
DA:568,0
DA:569,0
DA:570,0
DA:571,0
DA:572,0
DA:573,0
DA:574,0
DA:577,0
DA:578,0
DA:579,0
DA:580,0
DA:583,0
DA:584,0
DA:585,0
DA:586,0
DA:587,0
DA:589,0
DA:590,0
DA:593,0
DA:594,0
DA:597,3
DA:598,3
DA:599,3
DA:600,3
DA:601,3
DA:602,3
DA:603,3
DA:604,3
DA:606,3
DA:607,5
DA:608,5
DA:609,5
DA:610,5
DA:613,5
DA:616,5
DA:617,3
DA:618,3
DA:619,3
DA:620,0
DA:622,0
DA:624,3
DA:625,3
DA:628,0
DA:629,0
DA:630,0
DA:631,0
DA:632,0
DA:633,0
DA:636,1
DA:637,1
DA:639,1
DA:640,1
DA:641,1
DA:642,1
DA:643,1
DA:646,1
DA:648,1
DA:649,1
DA:653,1
DA:654,0
DA:655,0
DA:656,0
DA:657,0
DA:658,0
DA:659,0
DA:661,0
DA:665,1
DA:666,1
DA:669,6
DA:671,7
DA:672,6
DA:673,6
DA:674,6
DA:675,6
DA:676,6
DA:677,6
DA:678,6
DA:679,0
DA:680,0
DA:682,6
DA:685,6
DA:688,0
DA:689,0
DA:690,0
DA:693,0
DA:694,0
DA:695,0
DA:696,0
DA:697,0
DA:698,0
DA:699,0
DA:700,0
DA:701,0
DA:702,0
DA:703,0
DA:707,0
DA:708,0
DA:709,0
DA:751,1
DA:752,1
DA:753,0
DA:755,1
DA:756,1
DA:757,1
DA:758,1
DA:759,1
DA:760,1
DA:761,1
DA:762,1
DA:763,1
DA:764,1
DA:765,1
DA:766,1
DA:770,1
DA:771,1
DA:772,1
DA:774,0
DA:778,2
DA:779,1
DA:780,1
DA:783,1
DA:784,1
DA:785,1
DA:786,1
DA:789,1
DA:791,1
DA:792,1
DA:795,0
DA:796,0
DA:797,0
DA:798,0
DA:799,0
DA:802,0
DA:803,0
DA:804,0
DA:807,0
DA:808,0
DA:809,0
DA:813,0
DA:814,0
DA:815,0
DA:816,0
DA:817,0
DA:819,0
DA:822,0
DA:825,0
DA:826,0
DA:828,0
DA:831,0
DA:832,0
DA:833,0
DA:835,0
DA:836,0
DA:837,0
DA:838,0
DA:839,0
DA:842,0
DA:843,0
DA:844,0
DA:845,0
DA:846,0
DA:847,0
DA:848,0
DA:850,0
DA:855,0
DA:856,0
DA:859,0
DA:860,0
DA:861,0
DA:862,0
DA:863,0
DA:864,0
DA:865,0
DA:866,0
DA:868,0
DA:871,0
DA:874,0
DA:875,0
DA:876,0
DA:877,0
DA:878,0
DA:882,0
DA:883,0
DA:884,0
DA:887,0
DA:888,0
DA:891,0
DA:892,0
DA:893,0
DA:894,0
DA:896,0
DA:897,0
DA:898,0
DA:899,0
DA:900,0
DA:901,0
DA:902,0
DA:903,0
DA:904,0
DA:907,0
DA:909,0
DA:910,0
DA:911,0
DA:912,0
DA:917,0
DA:919,0
DA:920,0
DA:921,0
DA:922,0
DA:927,0
DA:929,0
DA:930,0
DA:931,0
DA:932,0
DA:937,0
DA:942,0
DA:946,0
DA:950,0
DA:954,0
DA:958,0
DA:961,0
DA:964,0
DA:965,0
DA:966,0
DA:967,0
DA:968,0
DA:969,0
DA:971,0
DA:974,0
DA:975,0
DA:977,0
DA:978,0
DA:979,0
DA:980,0
DA:985,0
DA:986,0
DA:987,0
DA:988,0
DA:989,0
DA:990,0
DA:991,0
DA:994,0
DA:996,0
DA:997,0
DA:998,0
DA:1000,0
DA:1002,0
DA:1003,0
DA:1004,0
DA:1005,0
DA:1006,0
DA:1007,0
DA:1008,0
DA:1009,0
DA:1012,0
DA:1014,0
DA:1017,0
DA:1020,0
DA:1022,0
DA:1023,0
DA:1026,0
DA:1028,0
DA:1030,0
DA:1032,0
DA:1033,0
DA:1034,0
DA:1039,0
DA:1041,0
DA:1042,0
DA:1043,0
DA:1044,0
DA:1045,0
DA:1047,0
DA:1048,0
DA:1052,0
DA:1054,0
DA:1055,0
DA:1056,0
DA:1060,0
DA:1062,0
DA:1063,0
DA:1064,0
DA:1068,0
DA:1071,0
DA:1072,0
DA:1073,0
DA:1074,0
DA:1075,0
DA:1077,0
DA:1078,0
DA:1079,0
DA:1080,0
DA:1081,0
DA:1084,0
DA:1085,0
DA:1086,0
DA:1087,0
DA:1088,0
DA:1091,0
DA:1093,0
DA:1094,0
DA:1095,0
DA:1099,0
DA:1102,0
DA:1104,0
DA:1105,0
DA:1106,0
DA:1107,0
DA:1108,0
DA:1111,0
DA:1112,0
DA:1113,0
DA:1114,0
DA:1115,0
DA:1118,0
DA:1120,0
DA:1121,0
DA:1122,0
DA:1123,0
DA:1124,0
DA:1125,0
DA:1126,0
DA:1127,0
DA:1128,0
DA:1129,0
DA:1131,0
DA:1132,0
DA:1133,0
DA:1134,0
DA:1135,0
DA:1136,0
DA:1137,0
DA:1138,0
DA:1140,0
DA:1141,0
DA:1142,0
DA:1143,0
DA:1144,0
DA:1148,0
DA:1149,0
DA:1150,0
DA:1151,0
DA:1152,0
DA:1153,0
DA:1156,0
DA:1158,0
DA:1159,0
DA:1160,0
DA:1161,0
DA:1162,0
DA:1163,0
DA:1164,0
DA:1165,0
DA:1166,0
DA:1167,0
DA:1169,0
DA:1170,0
DA:1171,0
DA:1172,0
DA:1173,0
DA:1177,0
DA:1178,0
DA:1179,0
DA:1180,0
DA:1181,0
DA:1182,0
DA:1186,0
DA:1187,0
DA:1189,0
DA:1192,0
DA:1197,0
DA:1199,0
DA:1200,0
DA:1201,0
DA:1202,0
DA:1203,0
DA:1206,0
DA:1210,0
DA:1211,0
DA:1212,0
DA:1213,0
DA:1214,0
DA:1215,0
DA:1218,0
DA:1219,0
DA:1220,0
DA:1222,0
DA:1223,0
DA:1224,0
DA:1225,0
DA:1226,0
DA:1227,0
DA:1228,0
DA:1229,0
DA:1232,0
DA:1233,0
DA:1234,0
DA:1237,0
DA:1238,0
DA:1239,0
DA:1240,0
DA:1241,0
DA:1244,0
DA:1245,0
DA:1246,0
DA:1249,0
DA:1250,0
DA:1251,0
DA:1252,0
DA:1254,0
DA:1257,0
DA:1258,0
DA:1259,0
DA:1260,0
DA:1261,0
DA:1264,0
DA:1265,0
DA:1266,0
DA:1267,0
DA:1268,0
DA:1270,0
DA:1274,0
DA:1275,0
DA:1277,0
DA:1278,0
DA:1279,0
DA:1280,0
DA:1283,0
DA:1285,0
DA:1286,0
DA:1287,0
DA:1288,0
DA:1289,0
DA:1290,0
DA:1292,0
DA:1293,0
DA:1294,0
DA:1296,0
DA:1297,0
DA:1300,0
DA:1301,0
DA:1323,0
DA:1324,0
DA:1325,0
DA:1338,1
DA:1339,1
DA:1342,1
DA:1343,1
DA:1344,1
DA:1345,1
DA:1346,1
DA:1348,1
DA:1349,1
DA:1352,1
DA:1353,1
DA:1354,1
DA:1355,1
DA:1357,1
DA:1359,1
DA:1360,1
DA:1361,1
DA:1362,1
DA:1363,1
DA:1364,1
DA:1366,1
DA:1367,1
DA:1368,1
DA:1369,1
DA:1372,1
DA:1373,1
DA:1375,1
DA:1376,1
DA:1377,1
DA:1378,1
DA:1379,1
DA:1381,1
DA:1384,1
DA:1385,1
DA:1386,1
DA:1387,1
DA:1390,1
DA:1391,1
DA:1392,1
DA:1393,1
DA:1394,1
DA:1395,1
DA:1397,1
DA:1398,1
DA:1399,1
DA:1402,1
DA:1403,1
DA:1406,1
DA:1407,1
DA:1408,1
DA:1409,1
DA:1410,1
DA:1412,1
DA:1415,1
DA:1416,1
DA:1418,1
DA:1419,1
DA:1420,1
DA:1421,1
DA:1422,1
DA:1423,1
DA:1425,1
DA:1426,1
DA:1427,1
DA:1430,1
DA:1431,1
DA:1434,1
DA:1435,1
DA:1436,1
DA:1437,1
DA:1438,1
DA:1439,1
DA:1440,1
DA:1441,1
DA:1442,1
DA:1443,1
DA:1444,1
DA:1445,1
DA:1447,1
DA:1450,1
DA:1451,1
DA:1452,1
DA:1454,1
DA:1455,1
DA:1456,1
DA:1457,1
DA:1458,1
DA:1459,1
DA:1462,1
DA:1463,1
DA:1464,1
DA:1465,1
DA:1468,1
DA:1469,1
DA:1472,1
DA:1473,1
DA:1474,1
DA:1475,1
DA:1476,1
DA:1479,1
DA:1480,1
DA:1481,1
DA:1484,1
DA:1485,1
DA:1486,1
DA:1487,1
DA:1488,1
DA:1491,1
DA:1493,1
DA:1494,1
DA:1497,1
DA:1498,1
DA:1501,1
DA:1502,1
DA:1503,1
DA:1505,1
DA:1508,1
DA:1509,1
DA:1511,1
DA:1512,1
DA:1515,1
DA:1517,1
DA:1520,1
DA:1521,1
DA:1522,1
DA:1523,1
DA:1526,1
DA:1527,1
DA:1528,1
DA:1529,1
DA:1530,1
DA:1531,1
DA:1534,1
DA:1535,1
DA:1536,1
DA:1539,1
DA:1540,1
DA:1541,1
DA:1542,1
DA:1543,1
DA:1544,1
DA:1545,1
DA:1548,1
DA:1552,1
DA:1555,1
DA:1556,1
DA:1557,1
DA:1559,1
DA:1560,1
DA:1561,1
DA:1564,1
DA:1565,1
DA:1568,1
DA:1569,1
DA:1570,1
DA:1572,1
DA:1573,1
DA:1574,1
DA:1576,1
DA:1579,1
DA:1580,1
DA:1583,1
DA:1584,1
DA:1585,1
DA:1586,1
DA:1587,1
DA:1590,1
DA:1591,1
DA:1592,1
DA:1595,1
DA:1596,1
DA:1597,1
DA:1598,1
DA:1599,1
DA:1602,1
DA:1604,1
DA:1605,1
DA:1608,1
DA:1609,1
DA:1612,1
DA:1613,1
DA:1614,1
DA:1616,1
DA:1619,1
DA:1620,1
DA:1622,1
DA:1623,1
DA:1626,1
DA:1627,1
DA:1628,1
DA:1629,1
DA:1630,1
DA:1631,1
DA:1634,1
DA:1635,1
DA:1636,1
DA:1639,1
DA:1640,1
DA:1641,1
DA:1644,1
DA:1645,1
DA:1646,1
DA:1648,1
DA:1649,1
DA:1650,1
DA:1651,1
DA:1652,1
DA:1653,1
DA:1656,1
DA:1657,1
DA:1660,1
DA:1661,1
DA:1663,1
DA:1664,1
DA:1665,1
DA:1666,1
DA:1669,1
DA:1670,1
DA:1671,1
DA:1672,1
DA:1674,1
DA:1675,1
DA:1676,1
DA:1677,1
DA:1678,1
DA:1679,1
DA:1682,1
DA:1685,1
DA:1686,1
DA:1689,1
DA:1691,1
DA:1694,1
DA:1695,1
DA:1698,1
DA:1699,1
DA:1700,1
DA:1702,1
DA:1703,1
DA:1704,1
DA:1707,1
DA:1708,1
DA:1709,1
DA:1710,1
DA:1712,1
DA:1713,1
DA:1714,1
DA:1715,1
DA:1716,1
DA:1717,1
DA:1719,1
DA:1720,1
DA:1721,1
DA:1722,1
DA:1724,1
DA:1725,1
DA:1726,1
DA:1727,1
DA:1728,1
DA:1729,1
DA:1732,1
DA:1735,1
DA:1736,1
DA:1738,1
DA:1742,1
DA:1743,1
DA:1744,1
DA:1747,1
DA:1748,1
DA:1749,1
DA:1752,1
DA:1754,1
DA:1755,1
DA:1759,1
DA:1761,1
DA:1762,1
DA:1763,1
DA:1764,1
DA:1835,0
DA:1836,0
DA:1837,0
DA:1840,1
DA:1841,1
DA:1842,1
DA:1845,0
DA:1846,0
DA:1847,0
DA:1848,0
DA:1850,0
DA:1851,0
DA:1852,0
DA:1853,0
DA:1854,0
DA:1855,0
DA:1857,0
DA:1859,0
DA:1864,0
DA:1865,0
DA:1866,0
DA:1867,0
DA:1868,0
DA:1871,0
DA:1872,0
DA:1873,0
DA:1876,0
DA:1877,0
DA:1878,0
DA:1880,0
DA:1881,0
DA:1884,0
DA:1885,0
DA:1886,0
DA:1888,0
DA:1889,0
DA:1890,0
DA:1892,0
DA:1893,0
DA:1894,0
DA:1896,0
DA:1897,0
DA:1898,0
DA:1901,0
DA:1902,0
DA:1903,0
DA:1905,0
DA:1906,0
DA:1907,0
DA:1908,0
DA:1909,0
DA:1912,0
DA:1913,0
DA:1915,0
DA:1916,0
DA:1917,0
DA:1918,0
DA:1919,0
DA:1920,0
DA:1921,0
DA:1924,0
DA:1925,0
DA:1928,0
DA:1930,0
DA:1931,0
DA:1932,0
DA:1935,0
DA:1936,0
DA:1937,0
DA:1939,0
DA:1940,0
DA:1941,0
DA:1943,0
DA:1944,0
DA:1947,0
DA:1950,0
DA:1951,0
DA:1952,0
DA:1953,0
DA:1954,0
DA:1955,0
DA:1956,0
DA:1957,0
DA:1959,0
DA:1962,0
DA:1963,0
DA:1964,0
DA:1966,0
DA:1969,0
DA:1972,0
DA:1973,0
DA:1974,0
DA:1975,0
DA:1977,0
DA:1978,0
DA:1979,0
DA:1980,0
DA:1983,0
DA:1984,0
DA:1985,0
DA:1986,0
DA:1987,0
DA:1988,0
DA:1989,0
DA:1991,0
DA:1994,0
DA:1995,0
DA:1996,0
DA:1998,0
DA:2001,0
DA:2004,0
DA:2005,0
DA:2006,0
DA:2008,0
DA:2009,0
DA:2010,0
DA:2011,0
DA:2012,0
DA:2013,0
DA:2015,0
BRF:0
BRH:0
LF:1195
LH:499
end_of_record
SF:/Users/hl/Projects/private/bingo/crates/bingo-core/src/rule_dependency.rs
FN:604,_RNCNvMs0_NtCs6Pl1wmeKPjF_10bingo_core15rule_dependencyNtB7_22RuleDependencyAnalyzer16detect_cycle_dfs0B9_
FN:878,_RNCNvMs0_NtCs6Pl1wmeKPjF_10bingo_core15rule_dependencyNtB7_22RuleDependencyAnalyzer21update_analysis_stats0B9_
FN:650,_RNCNvMs0_NtCs6Pl1wmeKPjF_10bingo_core15rule_dependencyNtB7_22RuleDependencyAnalyzer22get_cycle_dependencies0B9_
FN:94,_RNvMNtCs6Pl1wmeKPjF_10bingo_core15rule_dependencyNtB2_14RuleDependency13with_metadata
FN:76,_RNvMNtCs6Pl1wmeKPjF_10bingo_core15rule_dependencyNtB2_14RuleDependency3new
FN:898,_RNvMs0_NtCs6Pl1wmeKPjF_10bingo_core15rule_dependencyNtB5_22RuleDependencyAnalyzer10get_config
FN:903,_RNvMs0_NtCs6Pl1wmeKPjF_10bingo_core15rule_dependencyNtB5_22RuleDependencyAnalyzer13update_config
FN:860,_RNvMs0_NtCs6Pl1wmeKPjF_10bingo_core15rule_dependencyNtB5_22RuleDependencyAnalyzer14clear_analysis
FN:585,_RNvMs0_NtCs6Pl1wmeKPjF_10bingo_core15rule_dependencyNtB5_22RuleDependencyAnalyzer16detect_cycle_dfs
FN:735,_RNvMs0_NtCs6Pl1wmeKPjF_10bingo_core15rule_dependencyNtB5_22RuleDependencyAnalyzer16dfs_finish_order
FN:883,_RNvMs0_NtCs6Pl1wmeKPjF_10bingo_core15rule_dependencyNtB5_22RuleDependencyAnalyzer16get_dependencies
FN:215,_RNvMs0_NtCs6Pl1wmeKPjF_10bingo_core15rule_dependencyNtB5_22RuleDependencyAnalyzer20analyze_dependencies
FN:785,_RNvMs0_NtCs6Pl1wmeKPjF_10bingo_core15rule_dependencyNtB5_22RuleDependencyAnalyzer20find_shared_patterns
FN:617,_RNvMs0_NtCs6Pl1wmeKPjF_10bingo_core15rule_dependencyNtB5_22RuleDependencyAnalyzer21assess_cycle_severity
FN:802,_RNvMs0_NtCs6Pl1wmeKPjF_10bingo_core15rule_dependencyNtB5_22RuleDependencyAnalyzer21get_topological_order
FN:869,_RNvMs0_NtCs6Pl1wmeKPjF_10bingo_core15rule_dependencyNtB5_22RuleDependencyAnalyzer21update_analysis_stats
FN:514,_RNvMs0_NtCs6Pl1wmeKPjF_10bingo_core15rule_dependencyNtB5_22RuleDependencyAnalyzer22build_dependency_graph
FN:645,_RNvMs0_NtCs6Pl1wmeKPjF_10bingo_core15rule_dependencyNtB5_22RuleDependencyAnalyzer22get_cycle_dependencies
FN:456,_RNvMs0_NtCs6Pl1wmeKPjF_10bingo_core15rule_dependencyNtB5_22RuleDependencyAnalyzer23analyze_field_conflicts
FN:769,_RNvMs0_NtCs6Pl1wmeKPjF_10bingo_core15rule_dependencyNtB5_22RuleDependencyAnalyzer23can_execute_in_parallel
FN:429,_RNvMs0_NtCs6Pl1wmeKPjF_10bingo_core15rule_dependencyNtB5_22RuleDependencyAnalyzer24extract_condition_fields
FN:888,_RNvMs0_NtCs6Pl1wmeKPjF_10bingo_core15rule_dependencyNtB5_22RuleDependencyAnalyzer25get_circular_dependencies
FN:658,_RNvMs0_NtCs6Pl1wmeKPjF_10bingo_core15rule_dependencyNtB5_22RuleDependencyAnalyzer27generate_execution_clusters
FN:542,_RNvMs0_NtCs6Pl1wmeKPjF_10bingo_core15rule_dependencyNtB5_22RuleDependencyAnalyzer28detect_circular_dependencies
FN:448,_RNvMs0_NtCs6Pl1wmeKPjF_10bingo_core15rule_dependencyNtB5_22RuleDependencyAnalyzer28find_shared_condition_fields
FN:369,_RNvMs0_NtCs6Pl1wmeKPjF_10bingo_core15rule_dependencyNtB5_22RuleDependencyAnalyzer30analyze_condition_similarities
FN:277,_RNvMs0_NtCs6Pl1wmeKPjF_10bingo_core15rule_dependencyNtB5_22RuleDependencyAnalyzer30analyze_data_flow_dependencies
FN:410,_RNvMs0_NtCs6Pl1wmeKPjF_10bingo_core15rule_dependencyNtB5_22RuleDependencyAnalyzer30calculate_condition_similarity
FN:350,_RNvMs0_NtCs6Pl1wmeKPjF_10bingo_core15rule_dependencyNtB5_22RuleDependencyAnalyzer30extract_fields_from_conditions
FN:705,_RNvMs0_NtCs6Pl1wmeKPjF_10bingo_core15rule_dependencyNtB5_22RuleDependencyAnalyzer34find_strongly_connected_components
FN:202,_RNvMs0_NtCs6Pl1wmeKPjF_10bingo_core15rule_dependencyNtB5_22RuleDependencyAnalyzer3new
FN:755,_RNvMs0_NtCs6Pl1wmeKPjF_10bingo_core15rule_dependencyNtB5_22RuleDependencyAnalyzer7dfs_scc
FN:893,_RNvMs0_NtCs6Pl1wmeKPjF_10bingo_core15rule_dependencyNtB5_22RuleDependencyAnalyzer9get_stats
FN:910,_RNvXs1_NtCs6Pl1wmeKPjF_10bingo_core15rule_dependencyNtB5_22RuleDependencyAnalyzerNtNtCsd2KPTObkMr_4core7default7Default7default
FN:142,_RNvXs_NtCs6Pl1wmeKPjF_10bingo_core15rule_dependencyNtB4_24DependencyAnalysisConfigNtNtCsd2KPTObkMr_4core7default7Default7default
FN:94,_RNvMNtCscF0MZJB4Qop_10bingo_core15rule_dependencyNtB2_14RuleDependency13with_metadata
FN:76,_RNvMNtCscF0MZJB4Qop_10bingo_core15rule_dependencyNtB2_14RuleDependency3new
FN:898,_RNvMs0_NtCscF0MZJB4Qop_10bingo_core15rule_dependencyNtB5_22RuleDependencyAnalyzer10get_config
FN:903,_RNvMs0_NtCscF0MZJB4Qop_10bingo_core15rule_dependencyNtB5_22RuleDependencyAnalyzer13update_config
FN:860,_RNvMs0_NtCscF0MZJB4Qop_10bingo_core15rule_dependencyNtB5_22RuleDependencyAnalyzer14clear_analysis
FN:585,_RNvMs0_NtCscF0MZJB4Qop_10bingo_core15rule_dependencyNtB5_22RuleDependencyAnalyzer16detect_cycle_dfs
FN:735,_RNvMs0_NtCscF0MZJB4Qop_10bingo_core15rule_dependencyNtB5_22RuleDependencyAnalyzer16dfs_finish_order
FN:883,_RNvMs0_NtCscF0MZJB4Qop_10bingo_core15rule_dependencyNtB5_22RuleDependencyAnalyzer16get_dependencies
FN:215,_RNvMs0_NtCscF0MZJB4Qop_10bingo_core15rule_dependencyNtB5_22RuleDependencyAnalyzer20analyze_dependencies
FN:785,_RNvMs0_NtCscF0MZJB4Qop_10bingo_core15rule_dependencyNtB5_22RuleDependencyAnalyzer20find_shared_patterns
FN:617,_RNvMs0_NtCscF0MZJB4Qop_10bingo_core15rule_dependencyNtB5_22RuleDependencyAnalyzer21assess_cycle_severity
FN:802,_RNvMs0_NtCscF0MZJB4Qop_10bingo_core15rule_dependencyNtB5_22RuleDependencyAnalyzer21get_topological_order
FN:869,_RNvMs0_NtCscF0MZJB4Qop_10bingo_core15rule_dependencyNtB5_22RuleDependencyAnalyzer21update_analysis_stats
FN:514,_RNvMs0_NtCscF0MZJB4Qop_10bingo_core15rule_dependencyNtB5_22RuleDependencyAnalyzer22build_dependency_graph
FN:645,_RNvMs0_NtCscF0MZJB4Qop_10bingo_core15rule_dependencyNtB5_22RuleDependencyAnalyzer22get_cycle_dependencies
FN:456,_RNvMs0_NtCscF0MZJB4Qop_10bingo_core15rule_dependencyNtB5_22RuleDependencyAnalyzer23analyze_field_conflicts
FN:769,_RNvMs0_NtCscF0MZJB4Qop_10bingo_core15rule_dependencyNtB5_22RuleDependencyAnalyzer23can_execute_in_parallel
FN:429,_RNvMs0_NtCscF0MZJB4Qop_10bingo_core15rule_dependencyNtB5_22RuleDependencyAnalyzer24extract_condition_fields
FN:888,_RNvMs0_NtCscF0MZJB4Qop_10bingo_core15rule_dependencyNtB5_22RuleDependencyAnalyzer25get_circular_dependencies
FN:658,_RNvMs0_NtCscF0MZJB4Qop_10bingo_core15rule_dependencyNtB5_22RuleDependencyAnalyzer27generate_execution_clusters
FN:542,_RNvMs0_NtCscF0MZJB4Qop_10bingo_core15rule_dependencyNtB5_22RuleDependencyAnalyzer28detect_circular_dependencies
FN:448,_RNvMs0_NtCscF0MZJB4Qop_10bingo_core15rule_dependencyNtB5_22RuleDependencyAnalyzer28find_shared_condition_fields
FN:369,_RNvMs0_NtCscF0MZJB4Qop_10bingo_core15rule_dependencyNtB5_22RuleDependencyAnalyzer30analyze_condition_similarities
FN:277,_RNvMs0_NtCscF0MZJB4Qop_10bingo_core15rule_dependencyNtB5_22RuleDependencyAnalyzer30analyze_data_flow_dependencies
FN:410,_RNvMs0_NtCscF0MZJB4Qop_10bingo_core15rule_dependencyNtB5_22RuleDependencyAnalyzer30calculate_condition_similarity
FN:350,_RNvMs0_NtCscF0MZJB4Qop_10bingo_core15rule_dependencyNtB5_22RuleDependencyAnalyzer30extract_fields_from_conditions
FN:705,_RNvMs0_NtCscF0MZJB4Qop_10bingo_core15rule_dependencyNtB5_22RuleDependencyAnalyzer34find_strongly_connected_components
FN:202,_RNvMs0_NtCscF0MZJB4Qop_10bingo_core15rule_dependencyNtB5_22RuleDependencyAnalyzer3new
FN:755,_RNvMs0_NtCscF0MZJB4Qop_10bingo_core15rule_dependencyNtB5_22RuleDependencyAnalyzer7dfs_scc
FN:893,_RNvMs0_NtCscF0MZJB4Qop_10bingo_core15rule_dependencyNtB5_22RuleDependencyAnalyzer9get_stats
FN:910,_RNvXs1_NtCscF0MZJB4Qop_10bingo_core15rule_dependencyNtB5_22RuleDependencyAnalyzerNtNtCsd2KPTObkMr_4core7default7Default7default
FN:142,_RNvXs_NtCscF0MZJB4Qop_10bingo_core15rule_dependencyNtB4_24DependencyAnalysisConfigNtNtCsd2KPTObkMr_4core7default7Default7default
FN:929,_RNCNvNtNtCscF0MZJB4Qop_10bingo_core15rule_dependency5tests23create_rule_with_fields0B7_
FN:938,_RNCNvNtNtCscF0MZJB4Qop_10bingo_core15rule_dependency5tests23create_rule_with_fieldss_0B7_
FN:1016,_RNCNvNtNtCscF0MZJB4Qop_10bingo_core15rule_dependency5testss_28test_field_conflict_analysis0B7_
FN:994,_RNCNvNtNtCscF0MZJB4Qop_10bingo_core15rule_dependency5testss_34test_condition_similarity_analysis0B7_
FN:972,_RNCNvNtNtCscF0MZJB4Qop_10bingo_core15rule_dependency5testss_34test_data_flow_dependency_analysis0B7_
FN:920,_RNvNtNtCscF0MZJB4Qop_10bingo_core15rule_dependency5tests23create_rule_with_fields
FN:1094,_RNvNtNtCscF0MZJB4Qop_10bingo_core15rule_dependency5testss_24test_statistics_tracking
FN:1062,_RNvNtNtCscF0MZJB4Qop_10bingo_core15rule_dependency5testss_25test_topological_ordering
FN:1079,_RNvNtNtCscF0MZJB4Qop_10bingo_core15rule_dependency5testss_26test_configuration_updates
FN:1002,_RNvNtNtCscF0MZJB4Qop_10bingo_core15rule_dependency5testss_28test_field_conflict_analysis
FN:949,_RNvNtNtCscF0MZJB4Qop_10bingo_core15rule_dependency5testss_33test_dependency_analyzer_creation
FN:1042,_RNvNtNtCscF0MZJB4Qop_10bingo_core15rule_dependency5testss_33test_execution_cluster_generation
FN:1024,_RNvNtNtCscF0MZJB4Qop_10bingo_core15rule_dependency5testss_34test_circular_dependency_detection
FN:980,_RNvNtNtCscF0MZJB4Qop_10bingo_core15rule_dependency5testss_34test_condition_similarity_analysis
FN:959,_RNvNtNtCscF0MZJB4Qop_10bingo_core15rule_dependency5testss_34test_data_flow_dependency_analysis
FN:604,_RNCNvMs0_NtCscF0MZJB4Qop_10bingo_core15rule_dependencyNtB7_22RuleDependencyAnalyzer16detect_cycle_dfs0B9_
FN:878,_RNCNvMs0_NtCscF0MZJB4Qop_10bingo_core15rule_dependencyNtB7_22RuleDependencyAnalyzer21update_analysis_stats0B9_
FN:650,_RNCNvMs0_NtCscF0MZJB4Qop_10bingo_core15rule_dependencyNtB7_22RuleDependencyAnalyzer22get_cycle_dependencies0B9_
FNDA:0,_RNCNvMs0_NtCs6Pl1wmeKPjF_10bingo_core15rule_dependencyNtB7_22RuleDependencyAnalyzer16detect_cycle_dfs0B9_
FNDA:0,_RNCNvMs0_NtCs6Pl1wmeKPjF_10bingo_core15rule_dependencyNtB7_22RuleDependencyAnalyzer21update_analysis_stats0B9_
FNDA:0,_RNCNvMs0_NtCs6Pl1wmeKPjF_10bingo_core15rule_dependencyNtB7_22RuleDependencyAnalyzer22get_cycle_dependencies0B9_
FNDA:0,_RNvMNtCs6Pl1wmeKPjF_10bingo_core15rule_dependencyNtB2_14RuleDependency13with_metadata
FNDA:0,_RNvMNtCs6Pl1wmeKPjF_10bingo_core15rule_dependencyNtB2_14RuleDependency3new
FNDA:0,_RNvMs0_NtCs6Pl1wmeKPjF_10bingo_core15rule_dependencyNtB5_22RuleDependencyAnalyzer10get_config
FNDA:0,_RNvMs0_NtCs6Pl1wmeKPjF_10bingo_core15rule_dependencyNtB5_22RuleDependencyAnalyzer13update_config
FNDA:0,_RNvMs0_NtCs6Pl1wmeKPjF_10bingo_core15rule_dependencyNtB5_22RuleDependencyAnalyzer14clear_analysis
FNDA:0,_RNvMs0_NtCs6Pl1wmeKPjF_10bingo_core15rule_dependencyNtB5_22RuleDependencyAnalyzer16detect_cycle_dfs
FNDA:0,_RNvMs0_NtCs6Pl1wmeKPjF_10bingo_core15rule_dependencyNtB5_22RuleDependencyAnalyzer16dfs_finish_order
FNDA:0,_RNvMs0_NtCs6Pl1wmeKPjF_10bingo_core15rule_dependencyNtB5_22RuleDependencyAnalyzer16get_dependencies
FNDA:0,_RNvMs0_NtCs6Pl1wmeKPjF_10bingo_core15rule_dependencyNtB5_22RuleDependencyAnalyzer20analyze_dependencies
FNDA:0,_RNvMs0_NtCs6Pl1wmeKPjF_10bingo_core15rule_dependencyNtB5_22RuleDependencyAnalyzer20find_shared_patterns
FNDA:0,_RNvMs0_NtCs6Pl1wmeKPjF_10bingo_core15rule_dependencyNtB5_22RuleDependencyAnalyzer21assess_cycle_severity
FNDA:0,_RNvMs0_NtCs6Pl1wmeKPjF_10bingo_core15rule_dependencyNtB5_22RuleDependencyAnalyzer21get_topological_order
FNDA:0,_RNvMs0_NtCs6Pl1wmeKPjF_10bingo_core15rule_dependencyNtB5_22RuleDependencyAnalyzer21update_analysis_stats
FNDA:0,_RNvMs0_NtCs6Pl1wmeKPjF_10bingo_core15rule_dependencyNtB5_22RuleDependencyAnalyzer22build_dependency_graph
FNDA:0,_RNvMs0_NtCs6Pl1wmeKPjF_10bingo_core15rule_dependencyNtB5_22RuleDependencyAnalyzer22get_cycle_dependencies
FNDA:0,_RNvMs0_NtCs6Pl1wmeKPjF_10bingo_core15rule_dependencyNtB5_22RuleDependencyAnalyzer23analyze_field_conflicts
FNDA:0,_RNvMs0_NtCs6Pl1wmeKPjF_10bingo_core15rule_dependencyNtB5_22RuleDependencyAnalyzer23can_execute_in_parallel
FNDA:0,_RNvMs0_NtCs6Pl1wmeKPjF_10bingo_core15rule_dependencyNtB5_22RuleDependencyAnalyzer24extract_condition_fields
FNDA:0,_RNvMs0_NtCs6Pl1wmeKPjF_10bingo_core15rule_dependencyNtB5_22RuleDependencyAnalyzer25get_circular_dependencies
FNDA:0,_RNvMs0_NtCs6Pl1wmeKPjF_10bingo_core15rule_dependencyNtB5_22RuleDependencyAnalyzer27generate_execution_clusters
FNDA:0,_RNvMs0_NtCs6Pl1wmeKPjF_10bingo_core15rule_dependencyNtB5_22RuleDependencyAnalyzer28detect_circular_dependencies
FNDA:0,_RNvMs0_NtCs6Pl1wmeKPjF_10bingo_core15rule_dependencyNtB5_22RuleDependencyAnalyzer28find_shared_condition_fields
FNDA:0,_RNvMs0_NtCs6Pl1wmeKPjF_10bingo_core15rule_dependencyNtB5_22RuleDependencyAnalyzer30analyze_condition_similarities
FNDA:0,_RNvMs0_NtCs6Pl1wmeKPjF_10bingo_core15rule_dependencyNtB5_22RuleDependencyAnalyzer30analyze_data_flow_dependencies
FNDA:0,_RNvMs0_NtCs6Pl1wmeKPjF_10bingo_core15rule_dependencyNtB5_22RuleDependencyAnalyzer30calculate_condition_similarity
FNDA:0,_RNvMs0_NtCs6Pl1wmeKPjF_10bingo_core15rule_dependencyNtB5_22RuleDependencyAnalyzer30extract_fields_from_conditions
FNDA:0,_RNvMs0_NtCs6Pl1wmeKPjF_10bingo_core15rule_dependencyNtB5_22RuleDependencyAnalyzer34find_strongly_connected_components
FNDA:0,_RNvMs0_NtCs6Pl1wmeKPjF_10bingo_core15rule_dependencyNtB5_22RuleDependencyAnalyzer3new
FNDA:0,_RNvMs0_NtCs6Pl1wmeKPjF_10bingo_core15rule_dependencyNtB5_22RuleDependencyAnalyzer7dfs_scc
FNDA:0,_RNvMs0_NtCs6Pl1wmeKPjF_10bingo_core15rule_dependencyNtB5_22RuleDependencyAnalyzer9get_stats
FNDA:0,_RNvXs1_NtCs6Pl1wmeKPjF_10bingo_core15rule_dependencyNtB5_22RuleDependencyAnalyzerNtNtCsd2KPTObkMr_4core7default7Default7default
FNDA:0,_RNvXs_NtCs6Pl1wmeKPjF_10bingo_core15rule_dependencyNtB4_24DependencyAnalysisConfigNtNtCsd2KPTObkMr_4core7default7Default7default
FNDA:6,_RNvMNtCscF0MZJB4Qop_10bingo_core15rule_dependencyNtB2_14RuleDependency13with_metadata
FNDA:13,_RNvMNtCscF0MZJB4Qop_10bingo_core15rule_dependencyNtB2_14RuleDependency3new
FNDA:2,_RNvMs0_NtCscF0MZJB4Qop_10bingo_core15rule_dependencyNtB5_22RuleDependencyAnalyzer10get_config
FNDA:1,_RNvMs0_NtCscF0MZJB4Qop_10bingo_core15rule_dependencyNtB5_22RuleDependencyAnalyzer13update_config
FNDA:7,_RNvMs0_NtCscF0MZJB4Qop_10bingo_core15rule_dependencyNtB5_22RuleDependencyAnalyzer14clear_analysis
FNDA:17,_RNvMs0_NtCscF0MZJB4Qop_10bingo_core15rule_dependencyNtB5_22RuleDependencyAnalyzer16detect_cycle_dfs
FNDA:2,_RNvMs0_NtCscF0MZJB4Qop_10bingo_core15rule_dependencyNtB5_22RuleDependencyAnalyzer16dfs_finish_order
FNDA:4,_RNvMs0_NtCscF0MZJB4Qop_10bingo_core15rule_dependencyNtB5_22RuleDependencyAnalyzer16get_dependencies
FNDA:7,_RNvMs0_NtCscF0MZJB4Qop_10bingo_core15rule_dependencyNtB5_22RuleDependencyAnalyzer20analyze_dependencies
FNDA:1,_RNvMs0_NtCscF0MZJB4Qop_10bingo_core15rule_dependencyNtB5_22RuleDependencyAnalyzer20find_shared_patterns
FNDA:1,_RNvMs0_NtCscF0MZJB4Qop_10bingo_core15rule_dependencyNtB5_22RuleDependencyAnalyzer21assess_cycle_severity
FNDA:1,_RNvMs0_NtCscF0MZJB4Qop_10bingo_core15rule_dependencyNtB5_22RuleDependencyAnalyzer21get_topological_order
FNDA:7,_RNvMs0_NtCscF0MZJB4Qop_10bingo_core15rule_dependencyNtB5_22RuleDependencyAnalyzer21update_analysis_stats
FNDA:7,_RNvMs0_NtCscF0MZJB4Qop_10bingo_core15rule_dependencyNtB5_22RuleDependencyAnalyzer22build_dependency_graph
FNDA:1,_RNvMs0_NtCscF0MZJB4Qop_10bingo_core15rule_dependencyNtB5_22RuleDependencyAnalyzer22get_cycle_dependencies
FNDA:7,_RNvMs0_NtCscF0MZJB4Qop_10bingo_core15rule_dependencyNtB5_22RuleDependencyAnalyzer23analyze_field_conflicts
FNDA:1,_RNvMs0_NtCscF0MZJB4Qop_10bingo_core15rule_dependencyNtB5_22RuleDependencyAnalyzer23can_execute_in_parallel
FNDA:48,_RNvMs0_NtCscF0MZJB4Qop_10bingo_core15rule_dependencyNtB5_22RuleDependencyAnalyzer24extract_condition_fields
FNDA:2,_RNvMs0_NtCscF0MZJB4Qop_10bingo_core15rule_dependencyNtB5_22RuleDependencyAnalyzer25get_circular_dependencies
FNDA:1,_RNvMs0_NtCscF0MZJB4Qop_10bingo_core15rule_dependencyNtB5_22RuleDependencyAnalyzer27generate_execution_clusters
FNDA:7,_RNvMs0_NtCscF0MZJB4Qop_10bingo_core15rule_dependencyNtB5_22RuleDependencyAnalyzer28detect_circular_dependencies
FNDA:5,_RNvMs0_NtCscF0MZJB4Qop_10bingo_core15rule_dependencyNtB5_22RuleDependencyAnalyzer28find_shared_condition_fields
FNDA:7,_RNvMs0_NtCscF0MZJB4Qop_10bingo_core15rule_dependencyNtB5_22RuleDependencyAnalyzer30analyze_condition_similarities
FNDA:7,_RNvMs0_NtCscF0MZJB4Qop_10bingo_core15rule_dependencyNtB5_22RuleDependencyAnalyzer30analyze_data_flow_dependencies
FNDA:19,_RNvMs0_NtCscF0MZJB4Qop_10bingo_core15rule_dependencyNtB5_22RuleDependencyAnalyzer30calculate_condition_similarity
FNDA:0,_RNvMs0_NtCscF0MZJB4Qop_10bingo_core15rule_dependencyNtB5_22RuleDependencyAnalyzer30extract_fields_from_conditions
FNDA:1,_RNvMs0_NtCscF0MZJB4Qop_10bingo_core15rule_dependencyNtB5_22RuleDependencyAnalyzer34find_strongly_connected_components
FNDA:9,_RNvMs0_NtCscF0MZJB4Qop_10bingo_core15rule_dependencyNtB5_22RuleDependencyAnalyzer3new
FNDA:2,_RNvMs0_NtCscF0MZJB4Qop_10bingo_core15rule_dependencyNtB5_22RuleDependencyAnalyzer7dfs_scc
FNDA:2,_RNvMs0_NtCscF0MZJB4Qop_10bingo_core15rule_dependencyNtB5_22RuleDependencyAnalyzer9get_stats
FNDA:8,_RNvXs1_NtCscF0MZJB4Qop_10bingo_core15rule_dependencyNtB5_22RuleDependencyAnalyzerNtNtCsd2KPTObkMr_4core7default7Default7default
FNDA:10,_RNvXs_NtCscF0MZJB4Qop_10bingo_core15rule_dependencyNtB4_24DependencyAnalysisConfigNtNtCsd2KPTObkMr_4core7default7Default7default
FNDA:22,_RNCNvNtNtCscF0MZJB4Qop_10bingo_core15rule_dependency5tests23create_rule_with_fields0B7_
FNDA:20,_RNCNvNtNtCscF0MZJB4Qop_10bingo_core15rule_dependency5tests23create_rule_with_fieldss_0B7_
FNDA:4,_RNCNvNtNtCscF0MZJB4Qop_10bingo_core15rule_dependency5testss_28test_field_conflict_analysis0B7_
FNDA:1,_RNCNvNtNtCscF0MZJB4Qop_10bingo_core15rule_dependency5testss_34test_condition_similarity_analysis0B7_
FNDA:1,_RNCNvNtNtCscF0MZJB4Qop_10bingo_core15rule_dependency5testss_34test_data_flow_dependency_analysis0B7_
FNDA:20,_RNvNtNtCscF0MZJB4Qop_10bingo_core15rule_dependency5tests23create_rule_with_fields
FNDA:1,_RNvNtNtCscF0MZJB4Qop_10bingo_core15rule_dependency5testss_24test_statistics_tracking
FNDA:1,_RNvNtNtCscF0MZJB4Qop_10bingo_core15rule_dependency5testss_25test_topological_ordering
FNDA:1,_RNvNtNtCscF0MZJB4Qop_10bingo_core15rule_dependency5testss_26test_configuration_updates
FNDA:1,_RNvNtNtCscF0MZJB4Qop_10bingo_core15rule_dependency5testss_28test_field_conflict_analysis
FNDA:1,_RNvNtNtCscF0MZJB4Qop_10bingo_core15rule_dependency5testss_33test_dependency_analyzer_creation
FNDA:1,_RNvNtNtCscF0MZJB4Qop_10bingo_core15rule_dependency5testss_33test_execution_cluster_generation
FNDA:1,_RNvNtNtCscF0MZJB4Qop_10bingo_core15rule_dependency5testss_34test_circular_dependency_detection
FNDA:1,_RNvNtNtCscF0MZJB4Qop_10bingo_core15rule_dependency5testss_34test_condition_similarity_analysis
